he:_glClearStencil
kUe:_Array_InternalArray__ICollection_Add_TisMark_t2724874473_m1613484179_gshared
GQc:__ZN5physx2Gu19gjkLocalPenetrationINS0_8CapsuleVENS0_17ShrunkConvexHullVEEEjRKT_RKT0_RKNS_6shdfnd3aos6FloatVERNSB_5Vec3VESG_SG_RSC_PhSI_Rhb
mei:__ZL80Graphic_t2426225576_CustomAttributesCacheGenerator_Graphic_OnFillVBO_m1723985607P21CustomAttributesCache
kYg:_ColorPlugin__ctor_m1241819855
cYb:__ZN12ShaderErrors21AddShaderCompileErrorERKNSt3__212basic_stringIcNS0_11char_traitsIcEENS0_9allocatorIcEEEEib
OYk:_npc1_OnTriggerEnter2D_m2992300799
zeb:__ZN18StreamedBinaryReadILb1EE21TransferSTLStyleArrayIN4core12basic_stringIcNS2_20StringStorageDefaultIcEEEEEEvRT_17TransferMetaFlags
VXl:__ZN6il2cpp2vm5Array13GetByteLengthEP11Il2CppArray
_Sj:_Raycast3DCallback_BeginInvoke_m3028685017
lOh:__ZL61IRemotingFormatter_t4112065742_CustomAttributesCacheGeneratorP21CustomAttributesCache
obl:_TextGenerator_get_lineCount_m4287181941
Ztl:__ZN14dense_hash_mapI10KeyWrapperINSt3__212basic_stringIcNS1_11char_traitsIcEENS1_9allocatorIcEEEEEP11Il2CppClassN6il2cpp5utils11StringUtils12StringHasherIS7_EENS1_8equal_toIS8_EENS5_INS1_4pairIKS8_SA_EEEEE15set_deleted_keyERSJ_
ZOf:_Comparison_1_Invoke_m353639462_gshared
c6j:_UInt64_System_IConvertible_ToDecimal_m4205696037
Dul:__ZN15dense_hashtableI10KeyWrapperIPK19Il2CppGenericMethodES4_N6il2cpp8metadata23Il2CppGenericMethodHashEN14dense_hash_setIS4_S7_NS6_26Il2CppGenericMethodCompareENSt3__29allocatorIS4_EEE8IdentityES9_SC_E14squash_deletedEv
Xdj:__Z102RuntimeInvoker_Void_t1841601450_Int32_t2071877448_Il2CppObject_Int32_t2071877448_Nullable_1_t283458390PK10MethodInfoPvPS2_
Dsg:_GraphicRegistry_RegisterGraphicForCanvas_m2284226562
wza:__Z21SourceMipLevelForBlitiiii
Khb:__ZN31CanvasBatchIntermediateRenderer15AddAsRenderNodeER15RenderNodeQueueRK20DeprecatedSourceData
ILi:_GenericTypeParameterBuilder_GetEvent_m4210567427
nhg:__ZN16VirtFuncInvoker0IP17Camera_t189460977E6InvokeEjPv
AAl:__ZN6il2cpp6icalls8mscorlib6System8MonoType13IsPointerImplEP20Il2CppReflectionType
L0f:_Enumerator_get_Key_m2908810861
smj:__Z55RuntimeInvoker_ILTokenInfo_t149559338_Int32_t2071877448PK10MethodInfoPvPS2_
VDe:__ZN11UnityEngine7Connect14AppUpdateEventD0Ev
sHd:__ZNK5physx2Sc5Scene24getContactModifyCallbackEv
Jjm:__ZdlPv
Eci:__ZL77StandaloneInputModule_t70867863_CustomAttributesCacheGenerator_m_VerticalAxisP21CustomAttributesCache
cE:__ZN11UnityEngine9Animation28GenericAnimationBindingCacheD2Ev
yKd:__ZN5physx2Sq10AABBPruner10addObjectsEPjPKNS_9PxBounds3EPKNS0_13PrunerPayloadEj
sOh:__ZL68RemotingSurrogateSelector_t2821375126_CustomAttributesCacheGeneratorP21CustomAttributesCache
_kj:__Z76RuntimeInvoker_Void_t1841601450_Int32_t2071877448_KeyValuePair_2_t3716250094PK10MethodInfoPvPS2_
ghf:_List_1_System_Collections_IList_IndexOf_m39706221_gshared
m9k:_TweenSettingsExtensions_PrependCallback_m13875009
o3f:_Decimal_op_Implicit_m2971610317
Vc:invoke_viiiifiiiiif
T$a:__Z18RestoreRenderStateR20CameraRenderOldStateR17ShaderPassContext
sYf:_SynchronizedArrayListWrapper_get_Item_m3309425850
LQb:__Z18Transfer_BlittableI18StreamedBinaryReadILb1EELb1E5RectTIfEEvRK29SerializationCommandArgumentsR31RuntimeSerializationCommandInfo
KKb:__Z18Transfer_BlittableI24GenerateTypeTreeTransferLb0E11ColorRGBA32EvRK29SerializationCommandArgumentsR31RuntimeSerializationCommandInfo
vmc:__Z21Object_CUSTOM_DestroyP12Il2CppObjectf
LZc:__ZN5physx6shdfnd8PoolBaseINS_2Sc10NPhaseCore16ClothListElementENS0_19ReflectionAllocatorIS4_EEE17releaseEmptySlabsEv
ztg:_GraphicRaycaster_get_ignoreReversedGraphics_m2757724367
Uum:_emscripten_glDeleteBuffers__wrapper
poh:_TlsServerCertificateRequest_ProcessAsSsl3_m3017921864
Vyk:_Collision_t2876846408_marshal_pinvoke_back
v1d:__ZN5physx2Sc14ConstraintCore10breakApartEv
tMi:_GenericTypeParameterBuilder_GetHashCode_m867619899
llj:__Z79RuntimeInvoker_Void_t1841601450_Int32_t2071877448_ParameterModifier_t1820634920PK10MethodInfoPvPS2_
o_l:__ZNSt3__26__treeINS_12basic_stringIcNS_11char_traitsIcEENS_9allocatorIcEEEENS_4lessIS6_EENS4_IS6_EEE16__construct_nodeIJRKS6_EEENS_10unique_ptrINS_11__tree_nodeIS6_PvEENS_22__tree_node_destructorINS4_ISH_EEEEEEDpOT_
iIg:_BinaryReader_ReadDecimal_m3164824427
bMj:_EqualityComparer_1__cctor_m3397254040_gshared
rem:__ZNKSt3__220__time_get_c_storageIcE3__XEv
b4i:__Z37RuntimeInvoker_ContentType_t859870085PK10MethodInfoPvPS2_
j8d:__ZN5physx7Cooking20loadTriangleMeshDescERKNS_18PxTriangleMeshDescERNS_19TriangleMeshBuilderE
jdh:__ZThn4_N6il2cpp2vm13ComObjectBaseI34__Il2CppComDelegate_t3311706788CCW18Il2CppIInspectableNS0_7details6ComNilES5_S5_S5_S5_S5_S5_E14QueryInterfaceERK10Il2CppGuidPPv
ibl:_TextGenerator_get_verts_m3124035267
EQg:_MonoType_CheckMethodSecurity_m4116906190
O0c:__ZN5physx9NpFactory21releaseConnectorArrayEPNS_16NpConnectorArrayE
hTg:_DOTweenComponent_Awake_m307634654
ael:_Vector2_get_one_m3174311904
BQ:__ZNSt3__26__treeINS_12__value_typeIN19CloudServiceHandler11ServiceTypeEPS2_EENS_19__map_value_compareIS3_S5_NS_4lessIS3_EELb1EEE13stl_allocatorIS5_L18MemLabelIdentifier85ELi16EEE7destroyEPNS_11__tree_nodeIS5_PvEE
zNd:__ZNK5physx2Gu29EPASupportMapPairRelativeImplINS0_9TriangleVENS0_4BoxVEE6getDirEv
QZe:_Array_Sort_TisVector2_t2243707579_m1307634946_gshared
v8:__ZN13RuntimeStaticI18BackgroundJobQueueE13StaticDestroyEPv
Bgj:__Z37RuntimeInvoker_Enumerator_t1593300101PK10MethodInfoPvPS2_
Apa:__ZN17PersistentManager22CheckInstanceIDsLoadedEPii
Fxa:__ZN7ApiGLES17CopyBufferSubDataEjjlll
EFe:__ZN11UnityEngine15PlatformWrapper17GetCloudProjectIdEv
rx:__ZN7mecanim5human19MaskHasLeftFootGoalERKNS_6bitsetILj66EEE
Jsl:__ZNSt3__26vectorIPK10Il2CppTypeNS_9allocatorIS3_EEE7reserveEj
h_k:_U3CCreateWhereIteratorU3Ec__Iterator1D_1_Reset_m1773515612_gshared
FNj:_EqualityComparer_1_get_Default_m2134906921_gshared
$wg:_InputField_get_caretPosition_m1005871812
lAi:_TweenCallback_1_BeginInvoke_m138693653_gshared
aGj:_Dictionary_2__ctor_m3111963761_gshared
_O:__ZN11AudioModule26SetDefaultMicrophoneDriverEPv
dqd:__ZNK5physx15NpActorTemplateINS_15PxParticleFluidEE22getClientBehaviorFlagsEv
DWk:_AesManaged_CreateEncryptor_m1729287824
Ysb:__ZNK14Texture2DArray26CanReuploadDataToGfxDeviceEv
HZa:__ZN17PrePassRenderLoop14RenderBasePassEP13RenderTextureRK14LightingLayersR13dynamic_arrayI16RenderObjectDataLj4EERbR10MinMaxAABB
odb:__ZN17GlobalGameManager23VirtualRedirectTransferER17RemapPPtrTransfer
Qne:_sfnt_stream_close
qVf:_Char_System_IConvertible_ToInt16_m2741348777_AdjustorThunk
ldm:__ZNKSt3__27num_getIwNS_19istreambuf_iteratorIwNS_11char_traitsIwEEEEE6do_getES4_S4_RNS_8ios_baseERjRPv
oem:__ZNKSt3__220__time_get_c_storageIcE3__cEv
_rg:_FontData_get_verticalOverflow_m83665814
aHf:_ReadOnlyCollection_1_System_Collections_Generic_IListU3CTU3E_set_Item_m1547026160_gshared
TJe:__ZN16VirtFuncInvoker2IP12Il2CppObjectP25TweenerCore_3_t162251805919Vector3_t2243707580E6InvokeEjPvS3_S4_
JHh:__ZL61MarshalAsAttribute_t2900773360_CustomAttributesCacheGeneratorP21CustomAttributesCache
Xaa:__ZN7Texture13SetFilterModeEi
WIb:__Z33BuildSerializationCommandQueueForI19StreamedBinaryWriteILb0EEEvRK34BuildSerializationCommandQueueArgsR32SerializationCommandQueueBuilderRP20AllowNameConversionsbPK18TransferField_Info
jWf:_Char_ToUpper_m109978609
rZl:__ZN6il2cpp8metadata13GenericMethod9GetMethodEPK19Il2CppGenericMethod
seb:__ZNSt3__26vectorIN4core12basic_stringIcNS1_20StringStorageDefaultIcEEEENS_9allocatorIS5_EEE7reserveEj
UAf:_Collection_1_System_Collections_IList_Insert_m3083278457_gshared
Vxh:_X509BasicConstraintsExtension_Encode_m3505127076
zsb:__ZN24GenerateTypeTreeTransfer8TransferI13dynamic_arrayI12SpriteVertexLj4EEEEvRT_PKc17TransferMetaFlags
vsa:__ZN13GfxDeviceGLES11SetViewportERK5RectTIiE
evg:_Image_get_pixelsPerUnit_m4104195799
zZj:_Toggle_InternalToggle_m2323729210
D9f:_Decimal_System_IConvertible_ToInt64_m2504363272
llc:__Z24Time_Get_Custom_PropTimev
Jc:invoke_vifiiii
xQf:_Array_GetValue_m3182152438
Bf:_emscripten_glDepthRange
$ii:__ZL77U3CPrivateImplementationDetailsU3E_t1486305143_CustomAttributesCacheGeneratorP21CustomAttributesCache
zhj:__Z91RuntimeInvoker_Boolean_t3825574718_TouchScreenKeyboardTypeU26_t2194866306_Int32_t2071877448PK10MethodInfoPvPS2_
ELc:__ZN5physx2Gu24contactConvexHeightfieldERKNS0_13GeometryUnionES3_RKNS_11PxTransformES6_RKfRNS0_5CacheERNS0_13ContactBufferE
p2c:__ZN5physx6shdfnd5ArrayIPvNS0_19ReflectionAllocatorINS_2Cm5BlockIS2_Lj8EEEEEE15growAndPushBackERKS2_
Ykg:_StandaloneInputModule_get_repeatDelay_m3025279
Nqj:_GUILayoutGroup_CalcWidth_m4107152934
Spi:_RuntimeFieldHandle_get_Value_m3963757144
UTb:__Z14resize_trimmedINSt3__26vectorIN9ShaderLab20SerializedSubProgram12UAVParameterENS0_9allocatorIS4_EEEEEvRT_j
Ski:_SerializationInfo_AddValue_m1781549036
slh:_TlsServerKeyExchange_verifySignature_m3641534563
CCf:_Collection_1_Clear_m445145071_gshared
MXj:_Slider_FindSelectableOnLeft_m3136767885
LXi:__Z75RuntimeInvoker_Void_t1841601450_Il2CppObject_RuntimeFieldHandle_t2331729674PK10MethodInfoPvPS2_
Wya:__ZN4crndL20crnd_default_reallocEPvjPjbS0_
WPe:_Array_BinarySearch_TisInt32_t2071877448_m51233948_gshared
z7b:__ZN7Texture11SetWrapModeEi
gjm:__ZNSt3__26locale5__imp7installINS_9money_putIwNS_19ostreambuf_iteratorIwNS_11char_traitsIwEEEEEEEEvPT_
BSd:__ZN5physx24PxsComputeAABBLocalSpaceERKNS_18PxcAABBDataDynamicERNS_9PxBounds3E
_Tg:_U3CWaitForKillU3Ed__15_System_Collections_IEnumerator_Reset_m1981393790
uef:_UTF32Encoding_GetPreamble_m767706727
haj:__Z115RuntimeInvoker_Void_t1841601450_Rect_t3681755626_Il2CppObject_Int32_t2071877448_Int32_t2071877448_Int32_t2071877448PK10MethodInfoPvPS2_
Ykc:__Z33Texture_CUSTOM_Internal_GetHeightP12Il2CppObject
szg:_LayoutGroup_get_preferredHeight_m3901163825
yle:_UNITY_FT_Init_Class_ft_bitmap_glyph_class
Mfb:__ZN4PPtrI13RenderTextureE8TransferI18StreamedBinaryReadILb0EEEEvRT_
XDl:__ZN15dense_hashtableINSt3__24pairIK10KeyWrapperINS1_IPK9FieldInfoP11Il2CppClassEEEjEES9_17ReflectionMapHashIS8_EN14dense_hash_mapIS9_jSD_19ReflectionMapEqualsIS8_ENS0_9allocatorISB_EEE9SelectKeyESG_SI_E15insert_noresizeERKSB_
_2f:_DateTime_AbsoluteDays_m3061694073
Mij:__Z56RuntimeInvoker_Boolean_t3825574718_LabelData_t3712112744PK10MethodInfoPvPS2_
Nue:_UNITY_FT_Stream_GetChar
dRb:__Z18Transfer_BlittableI18StreamedBinaryReadILb1EELb1EdEvRK29SerializationCommandArgumentsR31RuntimeSerializationCommandInfo
$hk:_Enumerator_MoveNext_m435964161_AdjustorThunk
jik:_Enumerator_System_Collections_IEnumerator_get_Current_m229223308_gshared
KYh:__ZL202U3CCreateWhereIteratorU3Ec__Iterator1D_1_t2523986802_CustomAttributesCacheGenerator_U3CCreateWhereIteratorU3Ec__Iterator1D_1_System_Collections_Generic_IEnumerableU3CTSourceU3E_GetEnumerator_m2392330777P21CustomAttributesCache
aLd:__ZN5physx6shdfnd8internal8HashBaseINS0_4PairIKNS_2Sq13PrunerPayloadEjEES5_NS0_4HashIS5_EENS1_11HashMapBaseIS5_jS9_NS0_9AllocatorEE6GetKeyESB_Lb1EE5eraseERS6_
zke:__ZNK19TextRenderingModule8TMGenGetERK11UTF16StringPN13TextRendering4FontE10TextAnchor13TextAlignmentfffbb11ColorRGBA32fii
U2d:__ZN5physx13GuMeshFactory16createConvexMeshERNS_13PxInputStreamE
bbe:__ZN5physx6shdfnd8internal8HashBaseINS0_4PairIKPKcjEES5_NS0_4HashIS5_EENS1_11HashMapBaseIS5_jS9_NS_7profile26WrapperReflectionAllocatorIjEEE6GetKeyESD_Lb1EE6createERS6_Rb
MMh:__ZL55GCHandleType_t1970708122_CustomAttributesCacheGeneratorP21CustomAttributesCache
$Bk:_Event_Init_m3901382626
xEk:_AnimationPlayableUtilities_SetInputsValidated_m2696856860
Wab:__ZN10FileSystem12MountHandlerEP17FileSystemHandler
bYf:_FixedSizeArrayListWrapper_AddRange_m2071800418
$8:__Z9InitInputv
aAa:__ZN4gles10SetTextureER15DeviceStateGLESj16TextureDimensionj19BuiltinSamplerState
Vef:_Enumerator_VerifyState_m2358705882_AdjustorThunk
YLb:__Z29Transfer_Blittable_ArrayFieldI24GenerateTypeTreeTransfer11ColorRGBA32EvRT_R9ArrayInfoRK23StaticTransferFieldInfo
S2d:__ZNK5physx13GuMeshFactory15getConvexMeshesEPPNS_12PxConvexMeshEjj
_Tj:_Selectable_Navigate_m915280351
Ydh:_AppDomain_getCurDomain_m591611373
Q6a:__ZN16MemoryFileSystem6DeleteER13FileEntryDatab
vel:_Vector3_get_normalized_m936072361
Xna:__ZL21BlitScaleStbImageImplRK14ImageReferenceRS_NS_10ColorSpaceE
shd:__ZN5physx10NpMaterial17setStaticFrictionEf
hsh:_TlsStream_set_Position_m378064217
_D:__ZN18StreamedBinaryReadILb0EE21TransferSTLStyleArrayI13dynamic_arrayIjLj4EEEEvRT_17TransferMetaFlags
aGc:__ZNSt3__26__sortIR31RayHitsByInverseDepthComparitorP12RaycastHit2DEEvT0_S5_T_
RBd:__ZNK5physx7NpScene19getFilterShaderDataEv
vHb:__Z29Transfer_Blittable_ArrayFieldI14SafeBinaryReadyEvRT_R9ArrayInfoRK23StaticTransferFieldInfo
nM:__ZN20SoundChannelInstance15setChannelGroupEPN4FMOD12ChannelGroupE
ucd:__ZN5physx2Sc19ShapeInstancePairLL26onPoseChangedWhileSleepingEv
x5e:_Evidence_Equals_m2325859915
JMd:__ZN5physx22PxcSweepCapsuleCapsuleERKNS_11PxsCCDShapeES2_PKNS_12PxsRigidBodyES5_RKNS_11PxTransformES8_S8_S8_fRNS_6PxVec3ESA_RNS_10PxcNpCacheERNS_18PxcNpThreadContextEf
eRh:__ZL93WindowsIdentity_t373339331_CustomAttributesCacheGenerator_WindowsIdentity_Dispose_m2649088337P21CustomAttributesCache
xHi:_Default__ctor_m172834064
Sd:invoke_vifffii
ECb:__ZN20ArchiveStorageReader17MakeStorageUnusedEv
Qok:_Regex_IsMatch_m2159202025
HVc:__ZNK5physx3Cct17CapsuleController21getHalfHeightInternalEv
mJa:__ZNK25MultiBlocksMemoryFileData5CloneEv
R1l:_GC_add_ext_descriptor
SUc:__ZN5physx21PxQueryFilterCallbackD2Ev
wvg:_Image_CalculateLayoutInputHorizontal_m3275149860
kmi:_RemotingServices_GetMethodBaseFromName_m3271095947
j3i:__Z71RuntimeInvoker_TimeSpan_t3430258949_Double_t4078015681_Int64_t909078037PK10MethodInfoPvPS2_
rKa:__ZN17ArchiveFileSystem11CreateAsDirER13FileEntryData
W$c:__ZL30GeomOverlapCallback_CapsuleBoxRKN5physx10PxGeometryERKNS_11PxTransformES2_S5_PNS_2Gu12TriggerCacheE
Gmm:dynCall_iiiiiiiiiiii
jbf:_ASCIIEncoding_GetBytes_m3617160053
zck:_InternalEnumerator_1_MoveNext_m2289229080_AdjustorThunk
VVi:__Z72RuntimeInvoker_Boolean_t3825574718_Decimal_t724701077_Decimal_t724701077PK10MethodInfoPvPS2_
vkh:_CipherSuiteCollection_System_Collections_IList_RemoveAt_m143866082
pLk:_Context_get_HasGlobalDynamicSinks_m3205328884
Hra:__ZN22VertexDeclarationCacheD0Ev
ZCe:__Z54Register_UnityEngine_Analytics_CustomEventData_AddCharv
jja:__ZN6prcoreL17RemapGenericFloatI16TexFormatRGFloat17TexFormatRGBAHalfEEvPKNS_9InnerInfoE
obb:__ZNK21AssetBundleFileSystem8PositionERK13FileEntryData
BDk:_UnityEventBase_UnityEngine_ISerializationCallbackReceiver_OnBeforeSerialize_m1773826808
QGc:__ZN13dynamic_arrayI11Collision2DLj4EE9push_backERKS0_
q2:__ZN8Remapper23GetOrGenerateInstanceIDERK26SerializedObjectIdentifier
PDa:__Z26TransformVerticesInnerLoopILb0ELb0ELb0EEvPhRK10Matrix4x4fRK10Matrix3x3fjPKhiiiS8_ii25GfxTransformVerticesFlags
aNg:_StreamWriter_Flush_m3426120024
xKa:__ZN17FileSystemHandler10AtomicMoveER13FileEntryDataS1_
xb:invoke_iiiiiifffiiifii
BKg:_MemoryStream__ctor_m1489366847
W5e:_SecurityElement_IsValidTag_m64902195
mik:_Enumerator_System_Collections_IEnumerator_get_Current_m229223308_AdjustorThunk
ySi:_PropertyInfo_SetValue_m2961483868
YOj:_GenericComparer_1__ctor_m1501074793_gshared
Zpj:_GUILayoutEntry_set_style_m70917293
Tmf:_List_1_System_Collections_IList_Contains_m4193366963_gshared
pgl:_UnityEvent_3_FindMethod_Impl_m1889846153_gshared
rOk:_DictionaryEnumerator_get_Value_m1915638953
WHi:_ConstructorInfo_Invoke_m2144827141
uXj:_Slider_set_onValueChanged_m1751815187
xsb:__ZN6Sprite8TransferI24GenerateTypeTreeTransferEEvRT_
t4l:__ZThn4_N6il2cpp2vm13ComObjectBaseINS0_13ManagedObjectE18Il2CppIInspectableNS0_7details6ComNilES5_S5_S5_S5_S5_S5_E16GetManagedObjectEv
mmc:__Z48Register_UnityEngine_Transform_SetAsFirstSiblingv
Vij:__Z56RuntimeInvoker_Boolean_t3825574718_UriScheme_t1876590943PK10MethodInfoPvPS2_
Hvb:__ZN7SubMesh8TransferI24GenerateTypeTreeTransferEEvRT_
S_k:_Nullable_1_Equals_m2126262385_gshared
BRi:_MonoProperty_get_CanWrite_m2124922514
TFf:_ReadOnlyCollection_1_System_Collections_Generic_ICollectionU3CTU3E_Remove_m2381940392_gshared
EKc:__ZN5physx3Cct10Controller6setPosERKNS_14PxExtendedVec3E
DUg:_EaseManager_ToEaseFunction_m1173633506
G7:__ZN13RuntimeStaticI13RendererSceneE13StaticDestroyEPv
LMc:__ZN5physx2GuL14testFaceNormalERKNS0_13PolygonalDataES3_PNS0_12SupportLocalES5_RKNS_6shdfnd3aos15PsMatTransformVESA_RKNS7_6FloatVERSB_RjRNS7_5Vec3VENS0_13FeatureStatusERSI_
Dgj:__Z36RuntimeInvoker_Enumerator_t132208513PK10MethodInfoPvPS2_
fjj:__Z112RuntimeInvoker_Int32_t2071877448_Il2CppObject_Int32_t2071877448_Int32_t2071877448_Int32_t2071877448_Il2CppObjectPK10MethodInfoPvPS2_
_9l:_poll
nKg:_Stream_BeginRead_m1985960185
qtg:_Graphic_UnregisterDirtyVerticesCallback_m1526739224
q6g:__ZN16VirtFuncInvoker1IP21BigInteger_t925946152iE6InvokeEjPvi
o_g:_PathPlugin_Get_m3476918268
Wci:__ZL88TweenRunner_1_t2584777480_CustomAttributesCacheGenerator_TweenRunner_1_Start_m2640577060P21CustomAttributesCache
Khh:_MD4Managed_GG_m1462438360
Chc:__Z46Mesh_CUSTOM_PrintErrorCantAccessMeshForIndicesP12Il2CppObject
DJc:__Z55Register_UnityEngine_Rigidbody2D_INTERNAL_CALL_AddForcev
C7b:__ZN9Transform23SetSiblingIndexInternalEib
uui:_DOGetter_1_EndInvoke_m1102230086_gshared
TVj:_ScrollRect_get_minWidth_m3151814267
T0g:_U3CU3Ec__DisplayClass18_0__ctor_m3130146861
a0c:__ZL32GeomOverlapCallback_ConvexConvexRKN5physx10PxGeometryERKNS_11PxTransformES2_S5_PNS_2Gu12TriggerCacheE
Fsg:_Graphic_get_canvasRenderer_m2902370808
ww:__ZN7mecanim5human12HumanPoseSubERNS0_9HumanPoseERKS1_S4_
whh:_MD4_Create_m2582504069
fQj:_HashSet_1_System_Collections_IEnumerable_GetEnumerator_m2498631708_gshared
iTl:__ZN6il2cpp8metadata15GenericMetadata15GetGenericClassEiPK17Il2CppGenericInst
yYe:_Array_Resize_TisIl2CppObject_m2692793908_gshared
bTf:_Boolean_System_IConvertible_ToInt16_m977801621
LFb:__Z18Transfer_BlittableI14SafeBinaryReadLb0E10Matrix4x4fEvRK29SerializationCommandArgumentsR31RuntimeSerializationCommandInfo
mMa:__Z24GetFixedBehaviourManagerv
a6f:_Convert_ToUInt64_m1691869628
Wyl:__ZN6il2cpp2vm10ThreadPool4WaitEP17Il2CppAsyncResultPPv
bvi:_DOSetter_1_BeginInvoke_m2436040648_gshared
U7l:_vfprintf
Uki:_SerializationException__ctor_m1019897788
b8i:__Z67RuntimeInvoker_Playable_t3667545548_GenericMixerPlayable_t788733994PK10MethodInfoPvPS2_
Rxb:__ZNSt3__26__sortIRNS_6__lessINS_12basic_stringIcNS_11char_traitsIcEENS_9allocatorIcEEEES7_EEPS7_EEvT0_SB_T_
euk:_Debug_get_logger_m4173808038
oha:__ZL13SortTexByNameRKNSt3__24pairIN9ShaderLab16FastPropertyNameEN18UnityPropertySheet11UnityTexEnvEEES7_
uUa:__ZN20DynamicPropertySheetD0Ev
w4a:__ZN14SafeBinaryRead17RegisterConverterEPKcS1_PFbPvRS_E
pZ:__ZN35RegisterRuntimeInitializeAndCleanup8RegisterEPFvPvES2_iS0_
uvd:__ZNK5physx19NpRigidBodyTemplateINS_14PxRigidDynamicEE17getRigidBodyFlagsEv
SRf:_AsyncCallback__ctor_m3071689932
TMl:__ZNK15dense_hashtableINSt3__24pairIK10KeyWrapperIP11Il2CppClassES4_EES5_N6il2cpp8metadata16SZArrayClassHashEN14dense_hash_mapIS5_S4_SA_NS9_19SZArrayClassCompareENS0_9allocatorIS7_EEE9SelectKeyESC_SE_E13find_positionERS6_
lNf:_ReadOnlyCollection_1_System_Collections_IList_Clear_m2600246370_gshared
vMd:__ZN5physx29EntityReportContainerCallback7onEventEjPj
W8h:__ZL111TweenSettingsExtensions_t2285462830_CustomAttributesCacheGenerator_TweenSettingsExtensions_OnRewind_m1743495232P21CustomAttributesCache
j7h:__ZL68U3CU3Ec__DisplayClass10_0_t3010978348_CustomAttributesCacheGeneratorP21CustomAttributesCache
oEc:__ZN4PPtrI17PhysicsMaterial2DE8TransferI18StreamedBinaryReadILb0EEEEvRT_
Ejb:__ZN20SphericalHarmonicsL215AddAmbientLightERK10ColorRGBAf
NMd:__ZN5physx25PxcSweepConvexHeightfieldERKNS_11PxsCCDShapeES2_PKNS_12PxsRigidBodyES5_RKNS_11PxTransformES8_S8_S8_fRNS_6PxVec3ESA_RNS_10PxcNpCacheERNS_18PxcNpThreadContextEf
Nik:_ShimEnumerator_Reset_m98005789_gshared
$7g:_DSAManaged_NormalizeArray_m2287089393
idk:_InternalEnumerator_1_System_Collections_IEnumerator_get_Current_m2389982234_AdjustorThunk
pWj:_Selectable_get_interactable_m1725029500
Oyk:_Collision_get_contacts_m266635379
Yue:_UNITY_TT_Get_MM_Var
_:invoke_diddi
Yig:_ExecuteEvents__cctor_m288775360
pwe:__ZNK2UI6Canvas13GetRenderModeEv
d4f:_Double_TryParseStringConstant_m2585405703
PEl:__ZN15dense_hashtableINSt3__24pairIK10KeyWrapperIPK10Il2CppTypeEjEES6_N6il2cpp8metadata14Il2CppTypeHashEN14dense_hash_mapIS6_jSB_NSA_17Il2CppTypeCompareENS0_9allocatorIS8_EEE9SelectKeyESD_SF_E5clearEv
sQi:_MonoField_get_Attributes_m4138688533
VDj:_RectTransform_SendReapplyDrivenProperties_m90487700
YFb:__Z18Transfer_BlittableI14SafeBinaryReadLb0EiEvRK29SerializationCommandArgumentsR31RuntimeSerializationCommandInfo
Kxl:__ZN6il2cpp2vm13MetadataCache30GetPropertyDefinitionFromIndexEi
kHk:_ResourceEnumerator__ctor_m1679839941
L$e:_RijndaelTransform_Clear_m1652144089
yud:__ZN5physx14NpRigidDynamic7releaseEv
NIg:_MonoIO_GetException_m2577367044
vTi:__Z57RuntimeInvoker_Void_t1841601450_Il2CppObject_Il2CppObjectPK10MethodInfoPvPS2_
dSg:_NumberFormatter_get_IsZero_m1325357749
bJd:__ZN5physx6shdfnd8PoolBaseINS_21PxsBodyTransformVault13PxsBody2WorldENS0_19ReflectionAllocatorIS3_EEE15disposeElementsEv
udg:_Enum_ToObject_m322320225
N3e:_X509Certificate__ctor_m3860837120
sme:_gray_raster_reset
zGk:_GameObject_Internal_CreateGameObject_m3428198595
lem:__ZNKSt3__220__time_get_c_storageIcE7__weeksEv
rxk:_Camera_RaycastTry2D_m755036866
gNf:_ReadOnlyCollection_1_System_Collections_Generic_IListU3CTU3E_set_Item_m3663361643_gshared
NSc:__ZN5physx2Gu30computeCapsule_TriangleMeshMTDERKNS_22PxTriangleMeshGeometryERKNS_11PxTransformERNS0_8CapsuleVEffbRNS_10PxSweepHitE
fig:_EventTrigger_OnScroll_m626934407
dCb:__ZN30RuntimeInitializeOnLoadManager8TransferI18StreamedBinaryReadILb0EEEEvRT_
BIj:_Dictionary_2__ctor_m1206668798_gshared
zKi:_TypeBuilder_not_supported_m3178173643
bne:_UNITY_tt_face_load_pclt
hDb:__ZN21ArchiveStorageCreator14StoreDirectoryEv
uac:__ZL34GetComponentsImplementationRecurseILb1ELi0ELi2EEbR10GameObjectbRK17CompareParametersRK39GetComponentsImplementation_ReturnValue
_4l:__ZN6il2cpp6icalls8mscorlib6System9Threading5Mutex20CreateMutex_internalEbP12Il2CppStringPb
l1i:__Z50RuntimeInvoker_Int16_t4041245914_Int16_t4041245914PK10MethodInfoPvPS2_
JXf:_ArrayListWrapper_Remove_m1105489978
LTa:__ZNK6Camera18WorldToScreenPointERK8Vector3fPb
TSd:__ZN5physx2Cm12DelegateTaskINS_10PxsContextEXadL_ZNS2_28mergeCMDiscreteUpdateResultsEPNS_10PxBaseTaskEEEE11runInternalEv
yBe:__ZN14UnityAnalyticsD0Ev
Ukh:_TlsClientSettings_set_TargetHost_m3421266913
G7d:__ZN5physx19TriangleMeshBuilder10importMeshERKNS_18PxTriangleMeshDescERKNS_15PxCookingParamsEb
Kic:__Z45Playable_CUSTOM_INTERNAL_CALL_IsValidInternalR9HPlayable
$bi:__ZL109PointerEventData_t1599784723_CustomAttributesCacheGenerator_PointerEventData_get_eligibleForClick_m2497780621P21CustomAttributesCache
A$f:_HashKeys_CopyTo_m3566668422
D8j:_InternalEnumerator_1_Dispose_m549215360_AdjustorThunk
yVf:_Convert_ToSByte_m2665932200
Aij:__Z58RuntimeInvoker_Boolean_t3825574718_ControlPoint_t168081159PK10MethodInfoPvPS2_
z1:__ZNSt3__227__insertion_sort_incompleteIRPFbRKN18AwakeFromLoadQueue4ItemES4_EPS2_EEbT0_S9_T_
XTk:_PKCS12_Encrypt_m2154408631
LY:__GLOBAL__sub_I_runtime_camera_culling_lump_cpp
Dlk:_ValueCollection_System_Collections_ICollection_get_IsSynchronized_m45572582_gshared
EPe:_Array_InternalArray__IEnumerable_GetEnumerator_TisContactPoint2D_t3659330976_m478005999_gshared
$Rj:_Navigation_Equals_m4214630671_AdjustorThunk
QJf:_ReadOnlyCollection_1_System_Collections_Generic_IListU3CTU3E_set_Item_m257196015_gshared
znd:__ZN5physx6shdfnd5ArrayINS_18PxClothFabricPhaseENS0_19ReflectionAllocatorIS2_EEE8recreateEj
Lwi:_TweenerCore_3_Validate_m1363945525_gshared
nnb:__ZN26EnlightenSystemInformation8TransferI14SafeBinaryReadEEvRT_
WQk:_Array_InternalArray__get_Item_TisLink_t2723257478_m2281261655_gshared
aDd:__ZN5physx2Sq17SceneQueryManager11shiftOriginERKNS_6PxVec3E
aMj:_EqualityComparer_1__ctor_m2579856891_gshared
RQc:__ZN5physx2Gu16sweepBoxTriangleERKNS_10PxTriangleERKNS_9PxBounds3ERKNS_6PxVec3ES9_RS7_SA_Rf
IL:__ZN4PPtrI15AudioMixerGroupE8TransferI18StreamedBinaryReadILb1EEEEvRT_
xqk:_ExpressionAssertion_IsComplex_m783019628
Pik:_ShimEnumerator_MoveNext_m2943029388_gshared
B_f:_Hashtable__ctor_m2702360557
mj:_utime
q8d:__ZN5physx10writeChunkEaaaaRNS_14PxOutputStreamE
EBg:_DateTimeFormatInfo_get_RawAbbreviatedDayNames_m3998113647
aLj:_DefaultComparer_GetHashCode_m2596628120_gshared
AYg:_Path_AssignWaypoints_m1568093980
g0k:_Nullable_1__ctor_m3622474896_gshared
$Ke:__ZN16VirtFuncInvoker0IP8String_tE6InvokeEjPv
wEl:__ZN6il2cpp2gc19AppendOnlyGCHashMapIPK10Il2CppTypeP20Il2CppReflectionTypeNS_8metadata14Il2CppTypeHashENS7_17Il2CppTypeCompareEE3AddERKS4_S6_
igh:_PrimalityTest_Invoke_m4058801829
_li:_RemotingConfiguration_SetCustomErrorsMode_m1844153208
Kp:FUNCTION_TABLE_viiiiii
led:__ZN5physx2Sc9RigidCore13onShapeChangeERNS0_9ShapeCoreENS_7PxFlagsINS0_21ShapeChangeNotifyFlag4EnumEjEENS4_INS_11PxShapeFlag4EnumEhEE
PQk:_Array_InternalArray__get_Item_TisChar_t3454481338_m3646615547_gshared
Jy:__ZN7mecanim9animation22DestroyAvatarWorkspaceEPNS0_15AvatarWorkspaceERNS_6memory9AllocatorE
Zbj:__Z90RuntimeInvoker_Il2CppObject_Il2CppObject_Il2CppObject_Color2_t232726623_Single_t2076509932PK10MethodInfoPvPS2_
jke:__ZNSt3__26vectorI8UnityStr13stl_allocatorIS1_L18MemLabelIdentifier34ELi16EEE12__move_rangeEPS1_S6_S6_
jPk:_Dictionary_2_Do_CopyTo_TisInt32_t2071877448_TisIl2CppObject_m1249877663_gshared
Yrd:__ZN5physx6shdfnd5ArrayIPvNS0_15InlineAllocatorILj256ENS0_19ReflectionAllocatorINS_2Sc19ParticlePacketShapeEEEEEE15growAndPushBackERKS2_
qPd:__ZN5physx17solveContactBlockEPKNS_23PxcSolverConstraintDescEjRNS_16PxcSolverContextE
z8d:__ZN5physx6shdfnd10FoundationD2Ev
_Re:_Array_InternalArray__IndexOf_TisResourceCacheItem_t333236149_m761772858_gshared
Ync:__ZNSt3__210__list_impIN10GUIManager12SortedScriptE11memory_poolIS2_EE5clearEv
VTh:__ZL76Convert_t2607082565_CustomAttributesCacheGenerator_Convert_ToInt64_m44696721P21CustomAttributesCache
mzf:_Collection_1_IsSynchronized_m3592359027_gshared
vmi:_TrackingServices__cctor_m3639412334
Dea:__ZN9ShaderLab11shaderprops9GetVectorEPK19ShaderPropertySheetS3_NS_16FastPropertyNameERNS0_16PropertyLocationE
yqc:__Z32GUIStyle_Set_Custom_PropRichTextP12Il2CppObjecth
RC:__ZN7mecanim9animation29MotionOutputGetDeltaTransformEPKNS0_12MotionOutputE
fea:__ZNSt3__26__treeINS_12__value_typeI4PPtrI13RenderTextureEN19RenderBufferManager23RenderTextureParametersEEENS_19__map_value_compareIS4_S7_NS_4lessIS4_EELb1EEE11memory_poolIS7_EE5eraseENS_21__tree_const_iteratorIS7_PNS_11__tree_nodeIS7_PvEEiEE
h5e:_StrongNamePublicKeyBlob_Equals_m2407250401
HXk:_GameManager_Start_m2655388892
TFj:_ValueCollection_System_Collections_IEnumerable_GetEnumerator_m1773104428_gshared
mdb:__ZN17GlobalGameManager23VirtualRedirectTransferER19StreamedBinaryWriteILb0EE
Hzc:__ZN24b2ChainAndCapsuleContact8EvaluateEP10b2ManifoldRK11b2TransformS4_
aF:__ZN8Animator14OnAddComponentEPN5Unity9ComponentE
auf:_List_1_CheckMatch_m1184924052_gshared
Flc:__Z43Transform_CUSTOM_INTERNAL_get_localRotationP12Il2CppObjectP11Quaternionf
yJd:__ZN5physx2Sc10NPhaseCoreD2Ev
Z1c:__ZN5physx2Sc7BodySim18onConstraintDetachEv
Mbl:_Touch_get_fingerId_m4109475843_AdjustorThunk
Wsm:_glGetShaderInfoLog__wrapper
Pj:_emscripten_glGetTexParameteriv
XBd:__ZN5physx7NpScene8simulateEfPNS_10PxBaseTaskEPvjb
Emf:_List_1_ToArray_m3752387798_gshared
DLc:__ZN5physx2Gu13GeometryUnion3setERKNS_10PxGeometryE
Gih:_RSAManaged_ImportParameters_m3060955884
Tbh:_DeriveBytes__ctor_m3089550878
ORg:_NotImplementedException__ctor_m1305569814
iUb:__ZN9ShaderLab20SerializedSubProgram14ConstantBufferaSERKS1_
GJk:_ChannelData_CopyFrom_m4049054607
XZb:__Z13RegisterClassI4MeshEvv
ubi:__ZL94AxisEventData_t1524870173_CustomAttributesCacheGenerator_AxisEventData_get_moveDir_m3968662359P21CustomAttributesCache
XQe:_Array_FindLastIndex_TisIl2CppObject_m869210470_gshared
hkb:__ZN8PlayableD0Ev
fga:__ZNSt3__24pairIK8UnityStrS1_EC2ERKS3_
T7i:__Z56RuntimeInvoker_Int32_t2071877448_PlayableU26_t3233213460PK10MethodInfoPvPS2_
eI:__ZN12AudioManager8TransferI19StreamedBinaryWriteILb0EEEEvRT_
CD:__ZN4PPtrI25RuntimeAnimatorControllerE8TransferI18StreamedBinaryReadILb1EEEEvRT_
UKg:_WriteDelegate_Invoke_m2103848735
Enf:_List_1_get_Capacity_m4262042666_gshared
wPj:_GenericEqualityComparer_1_GetHashCode_m1950634276_gshared
ARb:__ZN18StreamedBinaryReadILb1EE21TransferSTLStyleArrayI13dynamic_arrayI11ColorRGBA32Lj4EEEEvRT_17TransferMetaFlags
ZW:__ZN22LocalFileSystemHandler4NameEv
fDb:__ZNSt3__26__treeINS_12__value_typeINS_12basic_stringIcNS_11char_traitsIcEENS_9allocatorIcEEEEjEENS_19__map_value_compareIS7_S8_NS_4lessIS7_EELb1EEE13stl_allocatorIS8_L18MemLabelIdentifier54ELi16EEE12__find_equalIS7_EERPNS_16__tree_node_baseIPvEESM_RKT_
Yjk:_Transform_1_EndInvoke_m687617772_gshared
qlj:__Z66RuntimeInvoker_Void_t1841601450_Int32_t2071877448_Mark_t2724874473PK10MethodInfoPvPS2_
YVk:_Locale_GetText_m512920887
X1b:__ZNK32RendererMaterialAnimationBinding12GetPPtrValueERKN11UnityEngine9Animation10BoundCurveE
_Nb:__Z18Transfer_BlittableI18StreamedBinaryReadILb0EELb0E8Vector2fEvRK29SerializationCommandArgumentsR31RuntimeSerializationCommandInfo
$ad:__ZN5physx18NpArticulationLink10clearForceENS_11PxForceMode4EnumE
Ili:_RemotingConfiguration_get_ProcessId_m3870172209
BNc:__ZN5physx2Gu30distanceSegmentTriangleSquaredERKNS_6PxVec3ES3_S3_S3_S3_PfS4_S4_
IEc:__ZN16CircleCollider2D10SmartResetEv
$ye:__ZN2UI11CanvasGroup12CleanupClassEv
eDg:_SortKey_ToString_m2406913228
qX:__ZN22LocalFileSystemHandler9MakeLocalER13FileEntryDatab
c6e:_String_op_Inequality_m304203149
v_l:__ZN6il2cpp2vm8Profiler10AllocationEP12Il2CppObjectP11Il2CppClass
j3f:_Convert_ToDateTime_m1020507389
cpg:_ColorTween_AddOnChangedCallback_m3190875685
OOl:__ZN13dynamic_arrayIP12Il2CppObjectLj4EE10reallocateEPS1_j
oxb:__ZN14SpriteRenderer21ReleaseGeometryJobMemEP25DynamicVBOGeometryJobData
Vje:__ZNSt3__23mapIN20TextRenderingPrivate7FontRefENS1_6OSFontENS_4lessIS2_EENS_9allocatorINS_4pairIKS2_S3_EEEEEixERS8_
cHj:_Dictionary_2_System_Collections_Generic_ICollectionU3CSystem_Collections_Generic_KeyValuePairU3CTKeyU2CTValueU3EU3E_Contains_m842343255_gshared
LIg:_Path_IsPathRooted_m1347207448
Lni:_ObjectManager_RegisterObjectInternal_m879109503
ZKe:_Array_get_swapper_TisVector4_t2243707581_m97441823_gshared
Bld:__ZNK5physx15NpActorTemplateINS_7PxClothEE12getAggregateEv
Cpa:__ZNSt3__26__sortIRNS_4lessIiEEPiEEvT0_S5_T_
Yge:__ZN14SafeBinaryRead21TransferSTLStyleArrayI10vector_mapINSt3__24pairIttEEfN20TextRenderingPrivate8FontImpl14KerningCompareENS2_9allocatorINS3_IS4_fEEEEEEEvRT_17TransferMetaFlags
r_b:__Z13RegisterClassI15QualitySettingsEvv
PZl:__ZN6il2cpp2vm6String21InitializeEmptyStringEP11Il2CppClass
wZa:__ZN25DeferredRenderLoopScratchD0Ev
sw:__ZN7mecanim9animation17EvaluateHumanPoseERKNS0_18ClipMuscleConstantERKNS0_15ClipMuscleInputEPKfRKNS0_12MotionOutputERNS_5human9HumanPoseE
WRh:__ZL90UTF7Encoding_t741406939_CustomAttributesCacheGenerator_UTF7Encoding_GetHashCode_m359766848P21CustomAttributesCache
tWi:__Z52RuntimeInvoker_Decimal_t724701077_Single_t2076509932PK10MethodInfoPvPS2_
SLd:__ZNK5physx2Cm12DelegateTaskINS_13PxsCCDContextEXadL_ZNS2_14postCCDAdvanceEPNS_10PxBaseTaskEEEE7getNameEv
nXa:__ZL13RenderCastersiRK8Vector3fS1_RK13ShadowJobDataR17ShaderPassContextRKNSt3__26vectorI16ShadowCasterData13stl_allocatorIS9_L18MemLabelIdentifier2ELi16EEEERKNS8_I20ShadowCasterPartDataSA_ISG_LSB_2ELi16EEEERK15RenderNodeQueueb
jXh:__ZL62SecurityProtocolType_t155967584_CustomAttributesCacheGeneratorP21CustomAttributesCache
p2d:__ZThn8_N5physx13NpClothFabricD1Ev
Xxh:_X509BasicConstraintsExtension_get_HasPathLengthConstraint_m3788532759
wfl:_WaitForSecondsRealtime__ctor_m1734539010
Qea:__ZN22CreateGpuProgramOutputD2Ev
vQe:__ZN21InterfaceFuncInvoker1Ii38CustomAttributeNamedArgument_t94157543E6InvokeEjP11Il2CppClassPvS0_
LKe:_Array_get_swapper_TisChar_t3454481338_m4185660724_gshared
HWc:__ZNK5physx3Cct15ObstacleContext14getNbObstaclesEv
oNb:__Z18Transfer_BlittableI19StreamedBinaryWriteILb0EELb1EsEvRK29SerializationCommandArgumentsR31RuntimeSerializationCommandInfo
GFl:__ZNK15dense_hashtableINSt3__24pairIK10KeyWrapperINS1_IPK10MethodInfoP11Il2CppClassEEEjEES9_17ReflectionMapHashIS8_EN14dense_hash_mapIS9_jSD_19ReflectionMapEqualsIS8_ENS0_9allocatorISB_EEE9SelectKeyESG_SI_E12test_deletedERK24dense_hashtable_iteratorISB_S9_SD_SK_SG_SI_E
k1e:_RSACryptoServiceProvider_EncryptValue_m802714447
_Pl:__ZN6il2cpp6icalls8mscorlib6System2IO6MonoIO9SetLengthE12Il2CppIntPtrxPi
q5d:__ZN5physx6shdfnd8PoolBaseINS_11NpAggregateENS0_19ReflectionAllocatorIS2_EEE12allocateSlabEv
sTh:__ZL76Convert_t2607082565_CustomAttributesCacheGenerator_Convert_ToByte_m932798552P21CustomAttributesCache
hud:__ZN5physx16NpParticleSystem23setParticleReadDataFlagENS_22PxParticleReadDataFlag4EnumEb
dJc:__ZZN11Rigidbody2D15InitializeClassEvEN35FunctorImpl_200kAnimatorMoveBuiltin4CallEPviR11MessageData
Ssd:__ZN5physx7NpScene26removeFromParticleBaseListERNS_14PxParticleBaseE
jAg:_DateTimeFormatInfo_GetInstance_m3133223810
yfh:_ModulusRing_BarrettReduction_m2802101099
YXi:__Z57RuntimeInvoker_ExtenderType_t1556892101_Int32_t2071877448PK10MethodInfoPvPS2_
hod:__ZN5physx2Sc9ClothCore23setSelfCollisionIndicesEPKjj
kHa:__ZN12HandlerChain4OpenER13FileEntryData14FilePermission16FileAutoBehavior
npj:__Z76RuntimeInvoker_Il2CppObject_UILineInfo_t3621277874_Il2CppObject_Il2CppObjectPK10MethodInfoPvPS2_
IPi:_MonoMethodInfo_GetParametersInfo_m3456861922
ynj:__Z37RuntimeInvoker_UILineInfo_t3621277874PK10MethodInfoPvPS2_
btl:__ZN15dense_hashtableINSt3__24pairIK10KeyWrapperIPK19Il2CppGenericMethodEPK26Il2CppGenericMethodIndicesEES6_N6il2cpp8metadata23Il2CppGenericMethodHashEN14dense_hash_mapIS6_SA_SE_NSD_26Il2CppGenericMethodCompareENS0_9allocatorISB_EEE9SelectKeyESG_SI_E15set_deleted_keyERKSB_
aYf:_FixedSizeArrayListWrapper_Add_m1263586472
q4:__ZN14FileCacherReadD2Ev
G1e:_RSAPKCS1SignatureDeformatter_VerifySignature_m1825067195
Ydc:__Z50Register_UnityEngine_CullingGroup_FinalizerFailurev
Hnh:_TlsClientCertificateVerify_ProcessAsTls1_m1960818833
Uka:__ZN27UnloadUnusedAssetsOperationD0Ev
bgb:__ZN6Camera15ThreadedCleanupEv
lU:__ZN9JSONWrite8TransferI8UnityStrEEvRT_PKc17TransferMetaFlags
Vy:__ZN26AnimatorControllerPlayable6MemoryD2Ev
VHe:__ZN13RuntimeStaticINSt3__26vectorIjNS0_9allocatorIjEEEEE13StaticDestroyEPv
x2g:_ShortcutExtensions_DOSmoothRewind_m1762400369
Vfj:__Z31RuntimeInvoker_Unit_t3220761768PK10MethodInfoPvPS2_
sdi:__ZL69ColorBlock_t2652774230_CustomAttributesCacheGenerator_m_DisabledColorP21CustomAttributesCache
Ejh:_CipherSuite_get_Code_m3902213587
eTj:_Scrollbar__ctor_m2244981801
WPl:__ZN6il2cpp6icalls8mscorlib6System2IO6MonoIO9GetLengthE12Il2CppIntPtrPi
bpi:_ObjectRecord_get_HasPendingFixups_m670959802
sHj:_Dictionary_2_Resize_m2807616086_gshared
qMd:__ZN5physx10PxsCCDPair12updateShapesEv
j2e:_SHA256Managed_HashCore_m4111458495
Ofg:_CultureInfo_get_CompareInfo_m3085280862
tIh:__ZL55Dictionary_2_t2276497324_CustomAttributesCacheGeneratorP21CustomAttributesCache
spb:__ZN15StaticBatchInfo8TransferI14SafeBinaryReadEEvRT_
$oi:_ObjectManager_RecordDelayedFixup_m1895730844
WQf:_ArrayTypeMismatchException__ctor_m1898555879
Upf:_List_1_System_Collections_IList_get_IsFixedSize_m3522184224_gshared
cG:__ZN9AudioClip23VirtualRedirectTransferER18StreamedBinaryReadILb0EE
Zlh:_ClientSessionInfo_CheckDisposed_m1394638186
eri:_SByte_Parse_m2544167007
yMa:__ZNSt3__26vectorIPN9ShaderLab9SubShaderENS_9allocatorIS3_EEE21__push_back_slow_pathIKS3_EEvRT_
vbg:_StackFrame_GetILOffset_m115192054
p9a:__ZN24GenerateTypeTreeTransfer8TransferIN11AssetBundle9AssetInfoEEEvRT_PKc17TransferMetaFlags
Hod:__ZN5physx2Sc9ClothCore22removeCollisionCapsuleEj
tqi:_RuntimeTypeHandle_GetHashCode_m3697629454_AdjustorThunk
k5g:_BigInteger__ctor_m2945783161
Tub:__Z14resize_trimmedINSt3__26vectorIh13stl_allocatorIhL18MemLabelIdentifier14ELi16EEEEEvRT_j
BOh:__ZL96ProxyAttribute_t4031752430_CustomAttributesCacheGenerator_ProxyAttribute_IsContextOK_m2391079277P21CustomAttributesCache
WDg:_IndexOutOfRangeException__ctor_m3497760912
f3c:__ZN5physx16PxsIslandManager25setArticulationLinkHandleEjPvRKNS_20PxsIslandManagerHookIjLj4294967295EEE
QLf:_ReadOnlyCollection_1_CopyTo_m1652036789_gshared
ll:_glCopyTexSubImage2D
N1h:__ZL61GUISkin_t1436893342_CustomAttributesCacheGenerator_m_textAreaP21CustomAttributesCache
e2b:__ZNK24RendererAnimationBinding13GetFloatValueERKN11UnityEngine9Animation10BoundCurveE
v2g:_ShortcutExtensions_DORewind_m1526207962
b_c:__ZN5physx2Sc10NPhaseCore39pool_deleteParticleElementRbElementPairEPNS0_35ParticleElementRbElementInteractionEjj
pym:_glActiveTexture__wrapper
Bxf:_Collection_1_Insert_m3594407958_gshared
fOa:_UNITY_png_write_zTXt
jW:__ZN18ScreenManagerWebGL13SetShowCursorEb
y_l:__ZN6il2cpp6icalls8mscorlib6System7Convert24InternalFromBase64StringEP12Il2CppStringb
yLa:__ZZ23InitPlayerLoopCallbacksvEN37EarlyUpdateProcessMouseInWindowstruct7ForwardEv
WYj:_Text_get_preferredWidth_m3352156860
WGi:_AssemblyCompanyAttribute__ctor_m1217508649
cze:__ZN2UI13CanvasManager14GetRenderOrderEPKNS_6CanvasE
Wcd:__ZN5physx6shdfnd5ArrayIPNS_3Scb5ShapeENS0_15InlineAllocatorILj16ENS0_19ReflectionAllocatorIS4_EEEEE15growAndPushBackERKS4_
JFb:__Z18Transfer_BlittableI14SafeBinaryReadLb0E5RectTIfEEvRK29SerializationCommandArgumentsR31RuntimeSerializationCommandInfo
Xua:__ZN9GfxDevice18InsertCustomMarkerEi
wLf:_ReadOnlyCollection_1_System_Collections_Generic_IListU3CTU3E_RemoveAt_m878653284_gshared
pAg:_DateTimeFormatInfo_GetFormat_m3676195179
nwa:__ZN14GfxContextGLES14GetFramebufferEv
jvm:_emscripten_glGenVertexArrays__wrapper
NZb:__ZN11GameManager7PRODUCEE18MemLabelIdentifier18ObjectCreationMode
J7i:__Z36RuntimeInvoker_HideFlags_t1434274199PK10MethodInfoPvPS2_
_ha:__ZN6prcoreL21CreateRemapAnyBlitterE13TextureFormatS0_
R6l:__ZN6il2cpp2os5Event4WaitEjb
H8b:__ZN17AnimationCurveTplIfE16StripInvalidKeysEv
NTe:_Array_InternalArray__ICollection_Add_TisKeyValuePair_2_t3716250094_m2381539361_gshared
Dch:_X509Extension_WriteLine_m2850991173
Wxe:__ZNK2UI6Canvas17GetSortingLayerIDEv
vFh:__ZL40UIntPtr_t_CustomAttributesCacheGeneratorP21CustomAttributesCache
_Fc:__ZN14Raycast2DQuery8RunQueryEb
Jhk:_Enumerator__ctor_m3597047336_gshared
f4b:__Z13RegisterClassI17GlobalGameManagerEvv
shi:__ZL70GridLayoutGroup_t1515633077_CustomAttributesCacheGenerator_m_StartAxisP21CustomAttributesCache
ZSl:__ZNK15dense_hashtableI10KeyWrapperIP18Il2CppGenericClassES3_N6il2cpp8metadata22Il2CppGenericClassHashEN14dense_hash_setIS3_S6_NS5_25Il2CppGenericClassCompareENSt3__29allocatorIS3_EEE8IdentityES8_SB_E3endEv
CNe:_Array_InternalArray__ICollection_Remove_TisInt64_t909078037_m2653583130_gshared
b$j:_Thread_get_ExecutionContext_m922067206
oS:__ZN11UnityEngine15CloudWebService13WWWRestClient18GetEditableHeadersEv
Jlh:_RecordProtocol_get_Context_m2688493529
Yfa:__ZN4PPtrI7TextureE8TransferI14SafeBinaryReadEEvRT_
NXd:__ZN5physx2Sc8ClothSim16addCollisionMeshEPKNS0_8ShapeSimE
kMk:_SynchronizedClientContextSink__ctor_m978504596
KUj:_ScrollRect_get_viewport_m3177057249
Dp:FUNCTION_TABLE_iiiiiiiiiiiiii
Q0d:__ZN5physx6shdfnd5ArrayIPKNS_10PxsCCDBodyENS0_19ReflectionAllocatorIS4_EEE8recreateEj
oEa:__ZN14DrawBufferGLESI12VertexBuffer27VertexBufferUsageMapperGLESED2Ev
Qcd:__ZN5physx6shdfnd4sortINS_2Cm19PreallocatingRegionENS0_4LessIS3_EENS0_19ReflectionAllocatorIS3_EEEEvPT_jRKT0_RKT1_j
MFe:__ZN19UnityConnectService18OnPlayerQuitStaticEPS_
Tfj:__Z35RuntimeInvoker_ScaleMode_t987318053PK10MethodInfoPvPS2_
Tne:_UNITY_tt_get_cmap_info
hPk:_Dictionary_2_Do_CopyTo_TisKeyValuePair_2_t3716250094_TisIl2CppObject_m715850636_gshared
Nbf:_DecoderExceptionFallback_GetHashCode_m2972426052
Z1a:__ZN16ReflectionProbes8ScheduleEN18ReflectionProbeJob7JobTypeEP15ReflectionProbei
FDf:_Collection_1_IsFixedSize_m3675221982_gshared
cUh:__ZL77Convert_t2607082565_CustomAttributesCacheGenerator_Convert_ToSByte_m883113940P21CustomAttributesCache
G7h:__ZL68U3CU3Ec__DisplayClass33_0_t1142366619_CustomAttributesCacheGeneratorP21CustomAttributesCache
Yff:_Enumerator_MoveNext_m3293920409_AdjustorThunk
zZa:__ZN14qsort_internal31_FindAndMovePivotToLastPositionIP16RenderObjectDatai26RenderDeferredObjectSorterEEvT_S4_T0_T1_
qvd:__ZN5physx19NpRigidBodyTemplateINS_14PxRigidDynamicEE20setRigidDynamicFlagsENS_7PxFlagsINS_15PxRigidBodyFlag4EnumEhEE
hMi:_GenericTypeParameterBuilder_get_DeclaringType_m1652924692
$hb:__ZN5Light23VirtualRedirectTransferER18StreamedBinaryReadILb1EE
Gfk:_Comparer_1__cctor_m3112251759_gshared
egi:__ZL73ScrollRect_t1199013257_CustomAttributesCacheGenerator_m_VerticalScrollbarP21CustomAttributesCache
fxh:_X509KeyUsageExtension_ToString_m1992050580
Dje:_UNITY_FT_GlyphLoader_Done
mKf:_ReadOnlyCollection_1_System_Collections_Generic_ICollectionU3CTU3E_Add_m2975080319_gshared
pJk:_ConstructionCall__ctor_m1143766850
kvj:_GUIStyleState_Init_m2434147050
Hfk:_Comparer_1_System_Collections_IComparer_Compare_m3203078743_gshared
$td:__ZN5physx22NpParticleBaseTemplateINS_16PxParticleSystemENS_16NpParticleSystemEE20setMaxMotionDistanceEf
Pmh:_Context_get_RandomSC_m1687420621
wab:__ZN5Cache10AddToCacheERKNSt3__212basic_stringIcNS0_11char_traitsIcEENS0_9allocatorIcEEEEi
R1h:__ZL67GUISkin_t1436893342_CustomAttributesCacheGenerator_m_verticalSliderP21CustomAttributesCache
u2a:__Z18SkinGenericMathLibILi2ELb1ELb0EEvR12SkinMeshInfo
ZPd:__ZN5physx18ComputeSortedListsEPNS_2Cm10BitMapBaseINS_6shdfnd9AllocatorEEEjjPKjPPNS_8SapBox1DES7_PjSB_jRKNS_2Gu4AxesESB_RjSB_SG_RbSH_
Hoe:_tt_cmap14_char_var_index
hxk:_Camera_INTERNAL_CALL_ScreenPointToRay_m2752248646
k3i:__Z77RuntimeInvoker_TimeSpan_t3430258949_TimeSpan_t3430258949_TimeSpan_t3430258949PK10MethodInfoPvPS2_
t_k:_Nullable_1_GetValueOrDefault_m1556343753_gshared
eqe:_psh_globals_new
NZk:_speedLoop_Start_m1679988536
dEa:__ZN13dynamic_arrayIN16GeometryJobTasks15GeometryJobTaskELj4EE18resize_initializedEjRKS1_12ResizePolicy
Tkg:_StandaloneInputModule_set_allowActivationOnMobileDevice_m2631121618
v3f:_Decimal_stripStyles_m294582157
Qxk:_Canvas_remove_willRenderCanvases_m1070419298
y6i:__Z73RuntimeInvoker_Single_t2076509932_Vector3_t2243707580_Vector3_t2243707580PK10MethodInfoPvPS2_
Sra:__ZN9GfxDevice20SetMaxBufferedFramesEi
xnf:_List_1_RemoveAll_m4125997475_gshared
rhc:__Z45Register_UnityEngine_Mathf_GammaToLinearSpacev
aDc:__ZN10Collider2D19WakeAllBodyContactsEv
WK:__ZN24AudioScriptBufferManagerD2Ev
aXg:_DOTween_Kill_m211473084
sIl:__ZN14dense_hash_mapI10KeyWrapperINSt3__24pairIPK11Il2CppImageP11Il2CppClassEEEj17ReflectionMapHashIS8_E19ReflectionMapEqualsIS8_ENS1_9allocatorINS2_IKS9_jEEEEE13set_empty_keyERSF_
Buc:__ZN8JSONRead21TransferSTLStyleArrayINSt3__26vectorINS1_12basic_stringIcNS1_11char_traitsIcEE13stl_allocatorIcL18MemLabelIdentifier1ELi16EEEES6_IS9_LS7_1ELi16EEEEEEvRT_S7_17TransferMetaFlags
zye:__ZN2UIL17UnloadAllCanvasesEv
J5f:_Convert_ToUInt16_m2130758075
R5a:__Z23ConvertIntegerToTypePtrIsEbPvR14SafeBinaryRead
Y7i:__Z71RuntimeInvoker_Boolean_t3825574718_Int32_t2071877448_Single_t2076509932PK10MethodInfoPvPS2_
WAc:__ZN12b2MouseJoint11ShiftOriginERK6b2Vec2
Goi:_ObjectReader_ReadObjectGraph_m1994105549
BNj:_EqualityComparer_1__ctor_m99476293_gshared
d8c:__ZNK5physx14NpArticulation17releaseDriveCacheERNS_24PxArticulationDriveCacheE
Lfh:_BigInteger_Incr2_m505983313
Ivk:_PCMReaderCallback_BeginInvoke_m3119095492
HWf:_ArrayList_get_Count_m523955479
XZg:_StringOptions_t2885323933_marshal_pinvoke_back
rjj:__Z85RuntimeInvoker_Int32_t2071877448_Vector3_t2243707580_Vector3_t2243707580_Il2CppObjectPK10MethodInfoPvPS2_
xkk:_Enumerator_get_Current_m2986380627_AdjustorThunk
fYf:_FixedSizeArrayListWrapper_Remove_m1359458911
gia:__ZN6prcoreL29inner_stretch_rgb565_bilinearEPKNS_9InnerInfoE
iod:__ZNK5physx2Sc9ClothCore25getSelfCollisionStiffnessEv
thg:_EventSystem_get_current_m319019811
iYj:_Text_get_mainTexture_m813502234
k4i:__Z47RuntimeInvoker_SecurityProtocolType_t3099771628PK10MethodInfoPvPS2_
EYa:__ZNK14RenderSettings19GetFlatAmbientColorEv
U1a:__ZN6prcoreL10inner_flipILj4EEEvPhS1_j
Dzb:__ZN18StreamedBinaryReadILb0EE21TransferSTLStyleArrayI10vector_mapIPKN5Unity4TypeE7Hash128NSt3__24lessIS6_EENS8_9allocatorINS8_4pairIS6_S7_EEEEEEEvRT_17TransferMetaFlags
Jz:__ZNK27StateMachineBehaviourPlayer15IsSenderEnabledEv
mxb:__Z19CalculateVertexSizejRK20VertexChannelsLayoutPj
nxf:_Collection_1_System_Collections_ICollection_get_IsSynchronized_m1924133708_gshared
faf:_String_Concat_m56707527
fmc:__Z40Register_UnityEngine_Transform_SetParentv
ycj:__Z133RuntimeInvoker_Il2CppObject_Il2CppObject_Single_t2076509932_Vector3_t2243707580_Int32_t2071877448_Single_t2076509932_SByte_t454417549PK10MethodInfoPvPS2_
Pvk:_AudioConfigurationChangeHandler_Invoke_m635374412
Hqh:_SslClientStream_get_HaveRemoteValidation2Callback_m3555576758
ctb:__ZN14Texture2DArray17UploadToGfxDeviceEv
SKf:_ReadOnlyCollection_1_System_Collections_Generic_IListU3CTU3E_Insert_m4216310986_gshared
yGf:_ReadOnlyCollection_1_System_Collections_Generic_IListU3CTU3E_set_Item_m1532495847_gshared
RJ:__Z14FMODMemoryFreePvjPKc
lCi:_InternalEnumerator_1_System_Collections_IEnumerator_Reset_m3731327620_AdjustorThunk
kpb:__ZThn28_N8RendererD0Ev
FPd:__ZN5physx29BroadPhaseBatchUpdateWorkTaskD0Ev
lci:__ZL104PointerEventData_t1599784723_CustomAttributesCacheGenerator_PointerEventData_get_worldNormal_m1704987468P21CustomAttributesCache
Bfl:_YieldInstruction_t3462875981_marshal_pinvoke_cleanup
r5e:_Evidence_get_IsSynchronized_m1427392003
xre:_cf2_glyphpath_moveTo
GFj:_SharedBetweenAnimatorsAttribute__ctor_m1221241062
UFd:__ZN5physx3Scb4Body9syncStateEv
LGe:__ZN13RuntimeStaticI19UnityConnectServiceE16StaticInitializeEPv
hmg:_AnimationTriggers_set_disabledTrigger_m609579531
VJh:__ZL47File_t1930543328_CustomAttributesCacheGeneratorP21CustomAttributesCache
l8f:_DateTimeOffset__ctor_m1796624924
Rqj:_GUILayoutUtility_get_spaceStyle_m1918520192
GSd:__ZN5physx20SingleAABBUpdateTaskD0Ev
z0k:_Predicate_1_EndInvoke_m1807093618_gshared
xIl:__ZN15dense_hashtableINSt3__24pairIK10KeyWrapperINS1_IPK11Il2CppImageP11Il2CppClassEEEjEES9_17ReflectionMapHashIS8_EN14dense_hash_mapIS9_jSD_19ReflectionMapEqualsIS8_ENS0_9allocatorISB_EEE9SelectKeyESG_SI_EC2EjRKSD_RKSG_RKSK_
ncd:__ZN5physx12PxsRigidBody23updatePoseDependenciesVERNS_10PxsContextE
qhg:_BaseRaycaster_OnDisable_m1716508791
sNe:_Array_InternalArray__ICollection_Remove_TisKeyValuePair_2_t3716250094_m2566517826_gshared
J5i:__Z54RuntimeInvoker_Vector3_t2243707580_Vector3_t2243707580PK10MethodInfoPvPS2_
wak:_InternalEnumerator_1_MoveNext_m1741571735_gshared
u4d:__ZN5physx2Gu12TriangleMesh4loadERNS_13PxInputStreamE
HFh:__ZL82Enum_t2459695545_CustomAttributesCacheGenerator_Enum_GetUnderlyingType_m3513899012P21CustomAttributesCache
Z1l:_GC_is_heap_ptr
Qkf:_List_1__ctor_m2300058426_gshared
BNl:__GLOBAL__sub_I_Assembly_cpp
ooh:_TlsServerSettings_set_CertificateRequest_m3419519893
qKe:_Tweener_DoChangeStartValue_TisVector3_t2243707580_TisIl2CppObject_TisVector3ArrayOptions_t2672570171_m154581043_gshared
RXg:_U3CU3Ec__DisplayClass2_0__ctor_m98975214
Cka:__Z21PlayerStartFirstSceneb
uC:__ZN7mecanim5human10RetargetToEPKNS0_5HumanEPKNS0_9HumanPoseES6_RKN4math4trsXEPS4_PNS_8skeleton13SkeletonPoseTIS8_EESF_
Vw:__ZN7mecanim9animation8SeekClipERKNS0_12StreamedClipERNS0_18StreamedClipMemoryEf
S3j:_Type_get_IsGenericParameter_m161434704
MMi:_MethodBuilder_get_Attributes_m3678061338
Un:_emscripten_glIsTexture
dyj:_Mathf_Clamp_m3542052159
MXf:_ArrayListWrapper_CopyTo_m793444109
qUh:__ZL79Convert_t2607082565_CustomAttributesCacheGenerator_Convert_ToUInt16_m3265369225P21CustomAttributesCache
ym:_emscripten_glHint
Lue:_ft_var_readpackeddeltas
Z1:__ZN6Object15ClassIDToStringEi
E7f:_DateTime_AddMilliseconds_m1813199744_AdjustorThunk
Mqi:_SByte_System_IConvertible_ToSByte_m108774324_AdjustorThunk
QMi:_MethodBuilder_GetParameterCount_m467267889
dgf:_List_1_System_Collections_Generic_IEnumerableU3CTU3E_GetEnumerator_m1072802841_gshared
gOi:_TypeBuilder_IsValueTypeImpl_m1499671481
Ttk:_AnimationEvent_set_intParameter_m1174062029
Q_f:_Hashtable_get_IsSynchronized_m836780937
AAh:_X509ChainStatus_t4278378721_marshal_pinvoke
wih:_RSAManaged__ctor_m1680944437
lvi:_DOSetter_1__ctor_m2116426170_gshared
Xn:_SDL_UpperBlit
x0d:__ZN5physx2Cm12DelegateTaskINS_2Sc5SceneEXadL_ZNS3_13ccdBroadPhaseEPNS_10PxBaseTaskEEEED0Ev
ouj:_GUIStyle_op_Implicit_m781448948
swi:_TweenerCore_3_ChangeEndValue_m3842480115_gshared
kZa:__Z35GetTextureDecodeValuesWithIntensity16TextureUsageMode17TextureColorSpace10ColorSpacef
KUf:_Byte_GetHashCode_m2885528842_AdjustorThunk
Yjd:__ZNK5physx7NpShape16getContactOffsetEv
URd:__ZN5physx14PxsAABBManager21processAggregatePairsEPKNS_19AggregateSortedDataE
dzf:_Collection_1_RemoveAt_m2468268700_gshared
IGj:_Dictionary_2_OnDeserialization_m2092139626_gshared
RAc:__ZNK12b2MouseJoint10GetAnchorAEv
hee:_PxCreateCooking
Pem:__ZNKSt3__28time_getIwNS_19istreambuf_iteratorIwNS_11char_traitsIwEEEEE16do_get_monthnameES4_S4_RNS_8ios_baseERjP2tm
aFb:__ZN14SafeBinaryRead20OverrideRootTypeNameEPKc
bXk:_collisionForbbiden_Update_m3182529721
tyb:__ZN9InputAxis7SetNameERKNSt3__212basic_stringIcNS0_11char_traitsIcEENS0_9allocatorIcEEEE
u4:__ZN14FileCacherRead16UnlockCacheBlockEj
R6j:_UIntPtr_get_Size_m537421489
Gbh:_X509Certificate_GetUnsignedBigInteger_m3491353542
jfd:__ZNK5physx12NpBatchQuery23getFilterShaderDataSizeEv
RJb:__Z18Transfer_BlittableI17RemapPPtrTransferLb1E8Vector3fEvRK29SerializationCommandArgumentsR31RuntimeSerializationCommandInfo
M8h:__ZL110TweenSettingsExtensions_t2285462830_CustomAttributesCacheGenerator_TweenSettingsExtensions_SetEase_m1063644988P21CustomAttributesCache
NFi:_InternalEnumerator_1_System_Collections_IEnumerator_Reset_m3080260213_AdjustorThunk
RKh:__ZL57StackBehaviour_t1390406961_CustomAttributesCacheGeneratorP21CustomAttributesCache
ue:_emscripten_glUniform1f
lce:__ZN5physx7profile11EventBufferINS_24PxDefaultContextProviderENS_6shdfnd6MutexTINS0_26WrapperReflectionAllocatorIhEEEENS0_14ScopedLockImplIS7_EENS_24PxProfileNullEventFilterEE10doAddEventINS0_17RelativeStopEventEEEvhtRKT_
_je:__Z20ParseImageParametersR11UTF16StringRiRN20TextRenderingPrivate16TextFormatChangeE
uek:_DefaultComparer_Compare_m2520853466_gshared
ze:_emscripten_glUniform1i
T8j:_InternalEnumerator_1_System_Collections_IEnumerator_Reset_m651165750_AdjustorThunk
VEb:__ZN13MonoBehaviour9CallAwakeEv
y$d:__ZN5physx2Sc19ShapeInstancePairLL23postIslandGenSecondPassEv
XVc:__ZN5physx3Cct26CharacterControllerManager16createControllerERKNS_16PxControllerDescE
AYi:__Z66RuntimeInvoker_Void_t1841601450_Int32_t2071877448_SByte_t454417549PK10MethodInfoPvPS2_
iVb:__ZN9ShaderLab16SerializedTagMapaSERKS0_
PYi:__Z75RuntimeInvoker_Void_t1841601450_Il2CppObject_Int32_t2071877448_Il2CppObjectPK10MethodInfoPvPS2_
COe:_SetPropertyUtility_SetStruct_TisFillMethod_t1640962579_m1867757822_gshared
rde:__ZN5physx26PxPhysicsInsertionCallbackD2Ev
lbc:__ZN8Material28ApplyMaterialPropertyDrawersEv
hLd:__ZN5physx2Sq16BucketPrunerCore12updateObjectERKNS_9PxBounds3ERKNS0_13PrunerPayloadE
L_d:__ZN5physx18PxsDynamicsContext23atomIntegrationParallelEfPKPNS_11PxsBodyCoreEPKPNS_12PxsRigidBodyEjPKNS_2Cm13SpatialVectorEPNS_13PxcSolverBodyEPNS_17PxcSolverBodyDataEPSA_RjSI_RNS_10PxBaseTaskE
_Ci:_InternalEnumerator_1_System_Collections_IEnumerator_get_Current_m3680087284_gshared
jD:__ZN11UnityEngine9Animation27CreateAvatarBindingConstantER9TransformPKN7mecanim9animation14AvatarConstantERNS3_6memory9AllocatorE
yBb:__ZN14SafeBinaryRead21TransferSTLStyleArrayINSt3__26vectorIN30RuntimeInitializeOnLoadManager9ClassInfoE13stl_allocatorIS4_L18MemLabelIdentifier12ELi16EEEEEEvRT_17TransferMetaFlags
A7j:_UnitySerializationHolder_GetObjectData_m2280028722
zmk:_PatternCompiler_EmitFalse_m1188949782
a6j:_UInt64_System_IConvertible_ToDateTime_m2412118561
_ac:__ZN9BlobWriteC2ER13dynamic_arrayIhLj16EE24TransferInstructionFlags19BuildTargetPlatform
YDl:__ZNK15dense_hashtableINSt3__24pairIK10KeyWrapperINS1_IPK9FieldInfoP11Il2CppClassEEEjEES9_17ReflectionMapHashIS8_EN14dense_hash_mapIS9_jSD_19ReflectionMapEqualsIS8_ENS0_9allocatorISB_EEE9SelectKeyESG_SI_E13find_positionERSA_
Q2:__ZN14MessageHandler3GetEv
Jsj:_GUISkin_set_verticalScrollbarThumb_m2647835739
Me:_emscripten_glAttachShader
g5h:__ZL108ShortcutExtensions_t3524050470_CustomAttributesCacheGenerator_ShortcutExtensions_DONearClipPlane_m3946677591P21CustomAttributesCache
fJf:_ReadOnlyCollection_1__ctor_m1539890895_gshared
Rra:__ZN9GfxDevice13SetActiveTierE12GraphicsTier
pkl:_Enumerator_System_Collections_IEnumerator_get_Current_m3079057684_AdjustorThunk
Prf:_List_1_System_Collections_ICollection_get_SyncRoot_m1804424478_gshared
t8g:_KeyPairPersistence_get_UserPath_m3433052783
mUc:__ZN5physx2Gu19GetRaycastFuncTableEv
Izf:_Collection_1_ClearItems_m1410275009_gshared
nMl:__ZNK15dense_hashtableINSt3__24pairIK10KeyWrapperIP11Il2CppClassES4_EES5_N6il2cpp8metadata16SZArrayClassHashEN14dense_hash_mapIS5_S4_SA_NS9_19SZArrayClassCompareENS0_9allocatorIS7_EEE9SelectKeyESC_SE_E10test_emptyEj
VEh:__ZL58Decimal_t724701077_CustomAttributesCacheGenerator_MinusOneP21CustomAttributesCache
HPe:_Array_InternalArray__IEnumerable_GetEnumerator_TisKeyframe_t1449471340_m3949799719_gshared
KFb:__Z18Transfer_BlittableI14SafeBinaryReadLb0E11QuaternionfEvRK29SerializationCommandArgumentsR31RuntimeSerializationCommandInfo
BU:__ZNK13EmscriptenWWW6GetUrlEv
kDc:__ZN13BoxCollider2D16CheckConsistencyEv
q$d:__ZN5physx17EdgeChangeManager23cleanupBrokenEdgeEventsEPKNS_4EdgeE
tcd:__ZN5physx17PxsContactManager16resetCachedStateEv
Kwg:_InputField_get_inputType_m2187991661
zV:_tlsf_walk_heap
dbh:_PKCS12_Decode_m731190390
fzl:__ZN6il2cpp2vm7Runtime6InvokeEPK10MethodInfoPvPS5_PP15Il2CppException
Cpl:__ZL25UnresolvedVirtualCall_249P12Il2CppObject20TimeSpan_t3430258949S1_PK10MethodInfo
$9j:_InternalEnumerator_1_get_Current_m1550231132_gshared
Lpk:_Reference_get_IgnoreCase_m2810892634
N7j:_Version_CheckedSet_m76493673
Zb:invoke_vif
Mub:__ZN14VertexDataInfo13UpdateStreamsEjjjRK19VertexStreamsLayoutRK20VertexChannelsLayout
ma:invoke_vid
zil:_KeyValuePair_2_set_Key_m744486900_AdjustorThunk
cc:invoke_vii
Sgm:__ZNSt3__28messagesIcED2Ev
zZh:__ZL86Component_t3819376471_CustomAttributesCacheGenerator_Component_SendMessage_m3615678587P21CustomAttributesCache
kEd:__ZN5physx13NpVolumeCacheD2Ev
hgi:__ZL82ScrollRect_t1199013257_CustomAttributesCacheGenerator_m_HorizontalScrollbarSpacingP21CustomAttributesCache
yEg:_Int16_System_IConvertible_ToUInt32_m883204517_AdjustorThunk
C7a:__ZN12TLSAllocatorI14StackAllocatorE16ThreadInitializeEP13BaseAllocator
hXf:_ArrayList_Sort_m2778059513
ccj:__Z81RuntimeInvoker_Int32_t2071877448_Il2CppObject_SByte_t454417549_Single_t2076509932PK10MethodInfoPvPS2_
wHc:__ZN17Physics2DSettings23VirtualRedirectTransferER18StreamedBinaryReadILb1EE
Evl:__ZN15dense_hashtableINSt3__24pairIK10KeyWrapperI13dynamic_arrayIPK10Il2CppTypeLj4EEEPFvvEEES8_N6il2cpp8metadata19Il2CppSignatureHashEN14dense_hash_mapIS8_SB_SF_NSE_22Il2CppSignatureCompareENS0_9allocatorISC_EEE9SelectKeyESH_SJ_E5clearEv
n3h:__ZL107StackTraceUtility_t1881293839_CustomAttributesCacheGenerator_StackTraceUtility_SetProjectFolder_m2154926761P21CustomAttributesCache
lYd:__ZThn8_N5physx2Sc35ParticleElementRbElementInteraction12onDeactivateEj
iug:_LayoutGroup_SetChildAlongAxis_m2732017156
Vze:__Z41CanvasRenderer_CUSTOM_DisableRectClippingP12Il2CppObject
mhh:_MD2_Create_m539024737
n0f:_SortedList_get_SyncRoot_m3299704254
Xjb:__ZNK14DirectorPlayer7GetTimeEv
cOd:__ZN5physx16PxsThreadContextC2EPNS_10PxsContextE
P0f:_Slot_t2267560602_marshal_pinvoke
J1i:__Z51RuntimeInvoker_UInt16_t986882611_Single_t2076509932PK10MethodInfoPvPS2_
x$l:_GC_allochblk
Xji:_SoapAttribute_get_XmlNamespace_m1436066016
CJa:__ZN25SingleBlockMemoryFileDataD0Ev
d9a:__ZNSt3__26vectorI14ConstantStringNS_9allocatorIS1_EEE6assignINS_11__wrap_iterIPS1_EEEENS_9enable_ifIXaasr21__is_forward_iteratorIT_EE5valuesr16is_constructibleIS1_NS_15iterator_traitsISA_E9referenceEEE5valueEvE4typeESA_SA_
FKc:__ZN5physx3Cct10Controller4moveERNS0_11SweptVolumeERKNS_6PxVec3EffRKNS_19PxControllerFiltersEPKNS_17PxObstacleContextEb
BFl:__ZNK15dense_hashtableINSt3__24pairIK10KeyWrapperINS1_IPK10MethodInfoP11Il2CppClassEEEjEES9_17ReflectionMapHashIS8_EN14dense_hash_mapIS9_jSD_19ReflectionMapEqualsIS8_ENS0_9allocatorISB_EEE9SelectKeyESG_SI_E10test_emptyERK30dense_hashtable_const_iteratorISB_S9_SD_SK_SG_SI_E
Dvd:__ZN5physx14NpRigidDynamic17setAngularDampingEf
KIb:__ZNSt3__26vectorI8GUIStyle13stl_allocatorIS1_L18MemLabelIdentifier1ELi16EEE7reserveEj
xNl:__ZN6il2cpp6icalls8mscorlib6System9Threading6Thread27GetSerializedCurrentCultureEP12Il2CppThread
uP:__Z32AudioSource_Get_Custom_PropPitchP12Il2CppObject
Zwl:__ZN6il2cpp2vm13MetadataCache14AddPointerTypeEP11Il2CppClassS3_
hSe:_Array_InternalArray__IndexOf_TisUInt32_t2149682021_m3231515987_gshared
Chl:_ListPool_1__cctor_m709904475_gshared
J6i:__Z83RuntimeInvoker_Void_t1841601450_QuaternionU26_t4187826802_QuaternionU26_t4187826802PK10MethodInfoPvPS2_
j_b:__Z13RegisterClassI11TimeManagerEvv
HJ:__ZN4FMOD8ChannelI11setPositionEjj
nR:__ZN11UnityEngine15CloudWebService16SessionContainer27GetDeleteErrorJsonDataBlockERK8UnityStrS4_RS2_
DEc:__ZN10Collider2D12SetPolygon2DEP9Polygon2D
ojm:__ZNSt3__26vectorIPNS_6locale5facetENS_15__sso_allocatorIS3_Lj28EEEE6resizeEj
$ef:_Enumerator_VerifyState_m4188527104_gshared
Ygi:__ZL75ToggleGroup_t1030026315_CustomAttributesCacheGenerator_U3CU3Ef__amU24cache1P21CustomAttributesCache
N4c:__ZN5physx6shdfnd8PoolBaseINS_2Sc12SimStateDataENS0_19ReflectionAllocatorIS3_EEE17releaseEmptySlabsEv
_7:__ZN17BaseObjectManager13StaticDestroyEPv
sZg:_LongPlugin_SetChangeValue_m3050133269
Fal:_TextGenerationSettings_CompareVector2_m592645251
dob:__ZNK29LineParametersPropertyBinding12GetPPtrValueERKN11UnityEngine9Animation10BoundCurveE
X4b:__ZN18PlayableController18DoesPlayableExistsEPK8Playable
O8f:_DBNull_System_IConvertible_ToChar_m3344298044
uOc:__ZN5physx2Gu22closestPtPointTriangleEPNS_6shdfnd3aos5Vec3VES4_S4_Rj
N2g:_U3CU3Ec__DisplayClass14_0_U3CDOColorU3Eb__0_m2518048952
WAb:__ZNSt3__26vectorIN15ResourceManager10DependencyE13stl_allocatorIS2_L18MemLabelIdentifier51ELi16EEEC2INS_11__wrap_iterIPS2_EEEET_SB_RKS5_PNS_9enable_ifIXaasr21__is_forward_iteratorISB_EE5valuesr16is_constructibleIS2_NS_15iterator_traitsISB_E9referenceEEE5valueEvE4typeE
q6i:__Z45RuntimeInvoker_IMECompositionMode_t1898275508PK10MethodInfoPvPS2_
Ied:__ZN5physx2Cm8PtrTableC2Ev
lBk:_CustomYieldInstruction_Reset_m3409422382
Klk:_LinkStack_Push_m2660199875
BI:__ZN4FMOD6Reverb13setPropertiesEPK22FMOD_REVERB_PROPERTIES
wqd:__ZNK5physx22NpParticleBaseTemplateINS_15PxParticleFluidENS_15NpParticleFluidEE14getRestitutionEv
SUa:__ZN9DepthPass13PrepareSubsetEjRK10RenderNodeifRK17ShaderReplaceData
mRd:__ZN5physx16PxsBroadPhaseMBP6updateEjjRKNS_23PxcBroadPhaseUpdateDataEPNS_10PxBaseTaskE
fom:dynCall_iiiifiifii
xid:__ZN5physx9NpPhysics18createRigidDynamicERKNS_11PxTransformE
C$c:__ZN5physx6shdfnd5ArrayIPvNS0_19ReflectionAllocatorINS_2Sc18TriggerInteractionEEEE15growAndPushBackERKS2_
wTk:_X509CertificateCollection_Add_m4008705157
aZk:_npcTransport__ctor_m1924642809
kji:_MonoMethodMessage_set_Uri_m3218581120
Z8b:__Z18ExtractTagThrowingR11ICallString
Mga:__ZN4PPtrI6ShaderE8TransferI19StreamedBinaryWriteILb0EEEEvRT_
J5k:_U3CU3Ec__DisplayClass52_0__ctor_m471148367
$zf:_Collection_1_IsFixedSize_m1816795498_gshared
FLa:__ZZ23InitPlayerLoopCallbacksvEN40EarlyUpdatePlayerCleanupCachedDatastruct7ForwardEv
ORc:__ZN5physx2Gu17intersectRayAABB2ERKNS_6shdfnd3aos5Vec3VES5_S5_S5_RKNS2_6FloatVERS6_S9_
hAe:__Z34CanvasRenderer_Get_Custom_PropCullP12Il2CppObject
oYg:_CatmullRomDecoder_SetWaypointsLengths_m132628524
Fjd:__ZNK5physx7NpShape17getSphereGeometryERNS_16PxSphereGeometryE
S2g:_U3CU3Ec__DisplayClass16_0_U3CDOShadowStrengthU3Eb__1_m1758195355
QTc:__ZL18intersectAnyVsMeshILi1EEbPKN5physx2Gu6SphereEPKNS1_7CapsuleEPKNS1_3BoxERKNS1_13RTreeMidphaseERKNS0_11PxTransformERKNS0_11PxMeshScaleEP14LimitedResults
BBb:__Z14resize_trimmedINSt3__26vectorIi13stl_allocatorIiL18MemLabelIdentifier12ELi16EEEEEvRT_j
Dkg:_MouseButtonEventData_ReleasedThisFrame_m482758300
q0l:_GC_push_marked2
rYk:_mana_NewBranch_getBranch_m3435253513
F7h:__ZL68U3CU3Ec__DisplayClass32_0_t2728653536_CustomAttributesCacheGeneratorP21CustomAttributesCache
V2c:__ZN5physx6shdfnd5ArrayIPvNS0_15InlineAllocatorILj256ENS0_19ReflectionAllocatorINS_2Cm5BlockIhLj128EEEEEEEE15growAndPushBackERKS2_
kYf:_ReadOnlyArrayListWrapper_set_Item_m2199017141
J$a:__ZN6Camera6SetFarEf
rTk:_DeriveBytes_DeriveIV_m3343375195
Ugc:__Z45Register_UnityEngine_Light_INTERNAL_set_colorv
E0e:_RNGCryptoServiceProvider_GetBytes_m167497991
Nia:__ZN6prcoreL12RemapGenericI17TexFormatABGR888817TexFormatARGB8888EEvPKNS_9InnerInfoE
Zcb:__ZN11GameManager17MainThreadCleanupEv
dAl:__ZN6il2cpp6icalls8mscorlib6System18CollectTypeMethodsINS_5utils10functional6FilterINSt3__212basic_stringIcNS7_11char_traitsIcEENS7_9allocatorIcEEEENS4_11StringUtils23CaseInsensitiveComparerEEEEEvP11Il2CppClassPKSH_jRKT_RNS7_6vectorIPK10MethodInfoNSB_ISR_EEEERA65535_b
KJe:__ZN18VirtActionInvoker1IP24TweenerCore_3_t102288586E6InvokeEjPvS1_
hKi:_TypeBuilder_get_Assembly_m492491492
yge:__Z52Register_UnityEngine_Rigidbody_INTERNAL_get_rotationv
JCf:_Collection_1_InsertItem_m1225429801_gshared
vDc:__ZN10Collider2D12AddToManagerEv
kU:__ZN11UnityEngine15CloudWebService17CloudServiceEvent12ToJsonStringER8UnityStrjPKc
hmd:__ZNK5physx7NpCloth24getParticleAccelerationsEPNS_6PxVec4E
yte:_UNITY_tt_slot_init
n_e:_HMACSHA512__cctor_m1167457383
Bwc:__ZL22Transfer_ManagedObjectI9JSONWriteLb1EEvRK29SerializationCommandArgumentsR31RuntimeSerializationCommandInfo
jta:__ZN9GfxDevice20DestroyRenderSurfaceER12ObjectHandleI17RenderSurface_TagP17RenderSurfaceBaseE
s0k:_Nullable_1_GetValueOrDefault_m2630877366_gshared
n0b:__ZL24PrepareSpriteRenderNodesILb1EEvR35RenderNodeQueuePrepareThreadContext
DGa:__ZN9GfxDevice22UpdateComputeResourcesEjPK9TextureIDPK16TextureDimensionPKijPKjjPK15ComputeBufferIDS7_PK20ComputeBufferCounterjSC_S2_S5_S9_SF_
Ztb:__ZN12_GLOBAL__N_15qAsinEff
YOk:_Dictionary_2_Do_ICollectionCopyTo_TisKeyValuePair_2_t3749587448_m2536766696_gshared
D7a:__ZN12TLSAllocatorI14StackAllocatorE13ThreadCleanupEv
Q5k:_U3CU3Ec__DisplayClass54_0_U3CDOScaleU3Eb__0_m1584348660
oVg:_U3CU3Ec_U3CToEaseFunctionU3Eb__4_34_m54315265
cO:__Z18GetAudioManagerPtrv
Fem:__ZNKSt3__28time_getIcNS_19istreambuf_iteratorIcNS_11char_traitsIcEEEEE10__get_yearERiRS4_S4_RjRKNS_5ctypeIcEE
p5i:__Z67RuntimeInvoker_Void_t1841601450_Int16_t4041245914_Int16_t4041245914PK10MethodInfoPvPS2_
Jub:__ZN4Mesh27SwizzleVertexColorsIfNeededEb
E8a:__Z27FindActiveTransformWithPathPKc
OYi:__Z63RuntimeInvoker_DSAParameters_t1872138834_BooleanU26_t3168250738PK10MethodInfoPvPS2_
qdc:__Z45Register_UnityEngine_Camera_INTERNAL_set_rectv
Yxk:_CanvasGroup_get_alpha_m1304564441
Yzd:__ZN5physx16PxsIslandManager14setEdgeRigidCMERKNS_20PxsIslandManagerHookIjLj4294967295EEEPNS_17PxsContactManagerE
Peb:__ZN12BaseRendererD0Ev
I5a:__Z29StdTemplateConversionFunctionIbyEbPvR14SafeBinaryRead
rJj:_DefaultComparer__ctor_m899694595_gshared
e3i:__Z56RuntimeInvoker_TimeSpan_t3430258949_TimeSpan_t3430258949PK10MethodInfoPvPS2_
Q7c:__ZN5physx14NpArticulation25setStabilizationThresholdEf
$9f:_Decimal_Floor_m1662853963
N3d:__ZN5physx2Gu11HeightField7releaseEv
gWb:__ZN24GenerateTypeTreeTransfer21TransferSTLStyleArrayINSt3__26vectorIN9ShaderLab20SerializedSubProgram14ConstantBufferENS1_9allocatorIS5_EEEEEEvRT_17TransferMetaFlags
DQa:__ZNK6Camera7GetNearEv
eql:__ZL25UnresolvedVirtualCall_279P12Il2CppObject18Color32_t874517518PK10MethodInfo
Mxa:__ZN7ApiGLES11UnmapBufferEjN2gl12BufferTargetE
Wvl:__ZN14dense_hash_mapI10KeyWrapperI13dynamic_arrayIPK10Il2CppTypeLj4EEEPFvvEN6il2cpp8metadata19Il2CppSignatureHashENSA_22Il2CppSignatureCompareENSt3__29allocatorINSD_4pairIKS6_S8_EEEEE13set_empty_keyERSG_
Ylb:__Z25GetNextAllowedTextureSizeib13TextureFormat
nX:__ZN20LocalFileSystemWebGL4CopyER13FileEntryDataS1_
ppf:_List_1_CheckIndex_m4231572822_gshared
JIf:_ReadOnlyCollection_1_System_Collections_Generic_IListU3CTU3E_get_Item_m3071300160_gshared
aT:__ZN19CloudServiceHandler6RetainEv
j6l:__ZN6il2cpp2os9Semaphore4WaitEb
vAc:__ZN15b2FrictionJointD0Ev
b6e:_StrongName_Equals_m67226644
Xeb:__ZN12BaseRenderer20FlattenToRenderQueueER15RenderNodeQueueRK20DeprecatedSourceData
nLi:_FieldBuilder_get_Attributes_m2174064290
jXk:_cue_showOrNot_Update_m4142984341
OXd:__ZN5physx2Sc8ClothSim23addCollisionHeightfieldEPKNS0_8ShapeSimE
Tyb:__ZN11TimeManager23VirtualRedirectTransferER18StreamedBinaryReadILb1EE
wla:__Z34scripting_liveness_calculation_endPv
qYl:__ZN6il2cpp2os6ThreadC2Ev
R6e:_SecurityFrame_InitFromRuntimeFrame_m45195821
oKh:__ZL53TextReader_t1561828458_CustomAttributesCacheGeneratorP21CustomAttributesCache
LYj:_Text_OnEnable_m820523638
kzh:_X509Chain_IsSignedWith_m292245392
xNe:_Array_InternalArray__ICollection_Remove_TisDateTime_t693205669_m1275668216_gshared
I3b:__ZZN6Camera15InitializeClassEvEN31FunctorImpl_99kTransformChanged4CallEPviR11MessageData
jJf:_ReadOnlyCollection_1_System_Collections_Generic_ICollectionU3CTU3E_Remove_m3751131234_gshared
vsc:__Z18Transfer_BlittableI8JSONReadLb0E8Vector3fEvRK29SerializationCommandArgumentsR31RuntimeSerializationCommandInfo
KJk:_ChannelServices__cctor_m3534779830
EJl:__ZN6il2cpp2vm6Thread6DetachEP12Il2CppThread
ope:_Render_Single_Pass
NHb:__ZNSt3__26vectorINS_12basic_stringIcNS_11char_traitsIcEE13stl_allocatorIcL18MemLabelIdentifier1ELi16EEEES4_IS7_LS5_1ELi16EEE8__appendEj
mA:__ZN11UnityEngine9Animation31CreateControllerBindingConstantEPKN7mecanim9animation18ControllerConstantEPKNS2_12AnimationSetEPNS1_18ValueArrayConstantEjPKNS2_14AvatarConstantERNS1_6memory9AllocatorE
aml:__ZL24UnresolvedVirtualCall_59P12Il2CppObjectS0_aPK10MethodInfo
IOj:_EqualityComparer_1__cctor_m2666196678_gshared
mBl:_il2cpp_class_get_name
Xpj:_GUIStyle_Init_m3872198731
oD:__ZN7mecanim8skeleton30SkeletonBuildReverseIndexArrayEPiPKiPKNS0_8SkeletonES6_
$fe:__ZZN9Rigidbody15InitializeClassEvEN35FunctorImpl_465kAnimatorMoveBuiltin4CallEPviR11MessageData
gem:__ZNKSt3__28time_getIcNS_19istreambuf_iteratorIcNS_11char_traitsIcEEEEE11do_get_dateES4_S4_RNS_8ios_baseERjP2tm
kWl:__ZN6il2cpp2os10ThreadImpl5SleepEjb
AQd:__ZN5physx14SapPairManager12shrinkMemoryEv
QVk:_X509ExtensionCollection_System_Collections_IEnumerable_GetEnumerator_m2600902401
FCe:__ZN11UnityEngine9Analytics15UserCustomEvent3AddEPKcb
aKl:__ZNSt3__214__split_bufferIiRNS_9allocatorIiEEEC2EjjS3_
ZCb:__ZN15FileSystemEntry4MoveERS_23FileSystemCopyMoveFlags
aNj:_EqualityComparer_1_System_Collections_IEqualityComparer_Equals_m2389655864_gshared
_Hj:_Dictionary_2_System_Collections_Generic_IEnumerableU3CSystem_Collections_Generic_KeyValuePairU3CTKeyU2CTValueU3EU3E_GetEnumerator_m3968773920_gshared
edj:__Z221RuntimeInvoker_Void_t1841601450_ColorOptions_t2213017305_Il2CppObject_SByte_t454417549_Il2CppObject_Il2CppObject_Single_t2076509932_Color2_t232726623_Color2_t232726623_Single_t2076509932_SByte_t454417549_Int32_t2071877448PK10MethodInfoPvPS2_
Ysh:_ListDictionary_FindEntry_m432748847
Kum:_glBindSampler__wrapper
iUg:_U3CWaitForRewindU3Ed__14_System_Collections_IEnumerator_Reset_m3291569966
th:_emscripten_set_mouseup_callback
ATb:__Z14resize_trimmedINSt3__26vectorIN9ShaderLab14SerializedPassENS0_9allocatorIS3_EEEEEvRT_j
qGa:__ZN9GfxDevice27SetRandomWriteTargetTextureEi9TextureID
kFk:_CustomAnimationPlayable_get_time_m2832957799
Myk:_Collision_get_gameObject_m1370363400
q1i:__Z48RuntimeInvoker_Int64_t909078037_SByte_t454417549PK10MethodInfoPvPS2_
U9g:_PrivateKeyInfo_Normalize_m3959595934
KCd:__ZN5physx7NpScene22removeBroadPhaseRegionEj
V$c:__ZL34GeomOverlapCallback_CapsuleCapsuleRKN5physx10PxGeometryERKNS_11PxTransformES2_S5_PNS_2Gu12TriggerCacheE
uW:__ZNK18ScreenManagerWebGL8GetWidthEv
SBd:__ZNK5physx7NpScene23getFilterShaderDataSizeEv
ssg:_Graphic_get_rectTransform_m2697395074
Gxl:__ZN6il2cpp2vm13MetadataCache33GetFieldDefaultValueDataFromIndexEi
Rtg:_GridLayoutGroup_set_startAxis_m1635162426
IF:__ZN10SampleClipD2Ev
pMk:_SynchronizationAttribute_EnterContext_m2984912761
SFh:__ZL73Enum_t2459695545_CustomAttributesCacheGenerator_Enum_ToObject_m2601523252P21CustomAttributesCache
_fg:_CultureInfo_construct_internal_locale_from_name_m971766383
RMk:__ZN16VirtFuncInvoker0IP21WaitHandle_t677569169E6InvokeEjPv
xZg:_ColorOptions_Reset_m2624799597_AdjustorThunk
jWl:__ZN6il2cpp2os10ThreadImpl13SetWaitObjectEPNS0_5posix15PosixWaitObjectE
MUf:_Byte_Equals_m368616327_AdjustorThunk
CUe:_Array_InternalArray__ICollection_Add_TisUIVertex_t1204258818_m3869382594_gshared
Use:_cff_cmap_unicode_init
jdg:_Enum_ToObject_m2460371738
h6g:_PrimalityTests_Test_m1088386156
x4:__ZN14FileCacherRead13GetFileLengthEv
mpc:__Z36Event_CUSTOM_Internal_SetNativeEvent13Il2Cpp_IntPtr
M9l:_readlink
VYe:_Array_Resize_TisVector3_t2243707580_m893658391_gshared
gEi:_InternalEnumerator_1_System_Collections_IEnumerator_get_Current_m4259662004_AdjustorThunk
CRk:_Array_InternalArray__get_Item_TisKeyframe_t1449471340_m1003508933_gshared
g5l:__ZN6il2cpp8metadata14Il2CppTypeHash4HashEPK10Il2CppType
Zah:_StrongName_get_PublicKeyToken_m1968460885
Mrb:__ZNK6Sprite9GetBoundsE8Vector2fbb
pwa:__ZN11ContextGLES6CreateEi
oTc:__ZN5physx6shdfnd5ArrayINS_10PxTriangleENS0_19ReflectionAllocatorIS2_EEE15growAndPushBackERKS2_
UHg:_BinaryReader_Dispose_m4249456877
M8e:_String_System_IConvertible_ToType_m512800076
yPb:__Z19TransferField_ArrayI18StreamedBinaryReadILb0EE27Converter_SimpleNativeClassI17AnimationCurveTplIfEEEvRK23StaticTransferFieldInfoR31RuntimeSerializationCommandInfoRT0_
Rjh:_CipherSuite_createEncryptionCipher_m1926075645
o7a:__ZN14StackAllocator16FrameMaintenanceEb
GOc:__ZL11SweepBoxBoxPKN5physx3Cct9SweepTestEPKNS0_11SweptVolumeEPKNS0_11TouchedGeomERKNS_14PxExtendedVec3ERKNS_6PxVec3ERNS0_12SweptContactE
Lul:__ZNK15dense_hashtableI10KeyWrapperIPK19Il2CppGenericMethodES4_N6il2cpp8metadata23Il2CppGenericMethodHashEN14dense_hash_setIS4_S7_NS6_26Il2CppGenericMethodCompareENSt3__29allocatorIS4_EEE8IdentityES9_SC_E5beginEv
d$:__ZNK10GameObject20QueryComponentByTypeEPKN5Unity4TypeE
Nff:_Enumerator_MoveNext_m1367380970_AdjustorThunk
FNi:_OpCode_GetHashCode_m2974727122
fhb:__ZN16GraphicsSettings8TransferI18StreamedBinaryReadILb1EEEEvRT_
Sjh:_CipherSuite_createDecryptionCipher_m1118350455
fje:__ZN20TextRenderingPrivate12GetFontPathsERNSt3__26vectorINS0_12basic_stringIcNS0_11char_traitsIcEENS0_9allocatorIcEEEENS5_IS7_EEEE
zQe:_Array_compare_TisSingle_t2076509932_m2704834068_gshared
ccg:_Double_System_IConvertible_ToInt16_m4200640326
kfc:__Z53Register_UnityEngine_GameObject_get_activeInHierarchyv
pMi:_GenericTypeParameterBuilder_get_IsGenericType_m1883522222
Z6i:__Z90RuntimeInvoker_Single_t2076509932_Single_t2076509932_Single_t2076509932_Single_t2076509932PK10MethodInfoPvPS2_
B0:__ZL30InitializeCoreScriptingClassesv
r8i:__Z49RuntimeInvoker_Void_t1841601450_Scene_t1684909666PK10MethodInfoPvPS2_
DDf:_Collection_1_CheckWritable_m3938993573_gshared
pi:_glBlitFramebuffer
BKa:__ZN17ArchiveFileSystem5TouchER13FileEntryData
PHd:__ZNK5physx2Sc5Scene17prefetchForRemoveERKNS0_10StaticCoreE
yoh:_SecurityParameters_set_Cipher_m3888132335
p6g:_BigInteger_GeneratePseudoPrime_m2606361440
OBg:_DateTimeFormatInfo_get_ShortTimePattern_m20923983
kGb:__Z35Transfer_Blittable_SingleValueFieldI14SafeBinaryReadhEvRT_R17GeneralMonoObjectRK23StaticTransferFieldInfo
ofi:__ZL140U3CMouseDragOutsideRectU3Ec__Iterator1_t2599668326_CustomAttributesCacheGenerator_U3CMouseDragOutsideRectU3Ec__Iterator1_Dispose_m2134284531P21CustomAttributesCache
Bmj:__Z57RuntimeInvoker_ContactPoint_t1376425630_Int32_t2071877448PK10MethodInfoPvPS2_
lqd:__ZN5physx22NpParticleBaseTemplateINS_15PxParticleFluidENS_15NpParticleFluidEE13setVelocitiesEjRKNS_16PxStrideIteratorIKjEERKNS4_IKNS_6PxVec3EEE
qZi:__Z129RuntimeInvoker_Int32_t2071877448_Il2CppObject_Int32_t2071877448_Int32_t2071877448_Il2CppObject_Int32_t2071877448_SByte_t454417549PK10MethodInfoPvPS2_
L9g:_EncryptedPrivateKeyInfo_get_Algorithm_m2779196942
Sji:_RemotingServices_GetRealProxy_m620317996
j_a:__ZN13dynamic_arrayI11CulledLightLj4EE6insertEPS0_PKS0_S4_
FBi:_ArrayReadOnlyList_1_RemoveAt_m2270349795_gshared
N0k:_Predicate_1_Invoke_m2060780095_gshared
Xdb:__ZN10TagManager23VirtualRedirectTransferER18StreamedBinaryReadILb1EE
Cxl:__ZN6il2cpp2vm13MetadataCache23GetInterfaceOffsetIndexEi
pq:FUNCTION_TABLE_vif
Eo:FUNCTION_TABLE_vid
uq:FUNCTION_TABLE_vii
cNa:_UNITY_png_create_write_struct
oYi:__Z149RuntimeInvoker_Boolean_t3825574718_Int32_t2071877448_Il2CppObject_Int32_t2071877448_Int32_t2071877448_Il2CppObject_Int32_t2071877448_SByte_t454417549PK10MethodInfoPvPS2_
Yda:__ZN7Texture23VirtualRedirectTransferER24GenerateTypeTreeTransfer
Iie:_UNITY_FT_Set_Transform
W1b:__ZNK32RendererMaterialAnimationBinding12SetPPtrValueERKN11UnityEngine9Animation10BoundCurveEi
vTl:__ZN6il2cpp8metadata15GenericMetadata20RegisterGenericClassEP18Il2CppGenericClass
pum:_glDeleteFramebuffers__wrapper
lYk:_line_w3_appear_m3110359549
Jug:_Image_get_overrideSprite_m706080347
yec:__Z36Register_UnityEngine_RectOffset_Initv
lfh:_BigInteger_ModInverse_m1881894572
dzl:__ZN6il2cpp2vm7Runtime17GetDelegateInvokeEP11Il2CppClass
Pti:_DOGetter_1_BeginInvoke_m2803366776_gshared
Oud:__ZNK5physx15NpActorTemplateINS_14PxRigidDynamicEE14getOwnerClientEv
Dgi:__ZL59Slider_t297367283_CustomAttributesCacheGenerator_m_FillRectP21CustomAttributesCache
E7h:__ZL68U3CU3Ec__DisplayClass31_0_t1424691621_CustomAttributesCacheGeneratorP21CustomAttributesCache
pnb:__ZN28EnlightenRendererInformation8TransferI14SafeBinaryReadEEvRT_
GZa:__ZN14qsort_internal6_QSortIP16RenderObjectDatai25RenderPrePassObjectSorterEEvT_S4_T0_T1_
tMh:__ZL69DefaultDependencyAttribute_t3858269114_CustomAttributesCacheGeneratorP21CustomAttributesCache
mfd:__ZN5physx12NpBatchQuery13getUserMemoryEv
fIa:__ZNK15Lz4Decompressor16DecompressMemoryEPKvPjPvS2_
Kne:_UNITY_tt_face_build_cmaps
nca:__ZN29SerializeTraitsForStringTypesINSt3__212basic_stringIcNS0_11char_traitsIcEE13stl_allocatorIcL18MemLabelIdentifier1ELi16EEEEE19ResizeSTLStyleArrayERS7_iS5_
bCj:_Ray_ToString_m2019179238
_Hc:__ZN11Rigidbody2D8TransferI24GenerateTypeTreeTransferEEvRT_
Jdi:__ZL60OptionData_t2420267500_CustomAttributesCacheGenerator_m_TextP21CustomAttributesCache
Wga:__Z35UnityPropertySheet_MakeSortedColorsRKNSt3__23mapIN9ShaderLab16FastPropertyNameE10ColorRGBAfNS_4lessIS2_EENS_9allocatorINS_4pairIKS2_S3_EEEEEER10vector_mapIS2_S3_S5_NS6_INS7_IS2_S3_EEEEE
Xp:FUNCTION_TABLE_iiiiiiffiiiiiiiiiffffiii
Xwg:_InputField_get_caretPositionInternal_m3011712053
Xme:_UNITY_tt_face_load_os2
HVd:__ZN5physx2GuL34fullContactsGenerationSphereConvexERKNS0_8CapsuleVERKNS0_11ConvexHullVERKNS_6shdfnd3aos12PsTransformVESB_PNS0_17PersistentContactERjRNS0_13ContactBufferEbRNS0_25PersistentContactManifoldERNS8_5Vec3VERKNS8_6FloatVEb
rvd:__ZN5physx19NpRigidBodyTemplateINS_14PxRigidDynamicEE16setRigidBodyFlagENS_15PxRigidBodyFlag4EnumEb
ehh:_HMAC_get_Key_m2528863640
qEf:_Collection_1_IsSynchronized_m1366278230_gshared
NRh:__ZL93StringBuilder_t1221177846_CustomAttributesCacheGenerator_StringBuilder_AppendLine_m1686706871P21CustomAttributesCache
J2c:__ZN5physx6shdfnd8PoolBaseINS_2Sc19ConstraintGroupNodeENS0_19ReflectionAllocatorIS3_EEE17releaseEmptySlabsEv
yIb:__Z29Transfer_Blittable_ArrayFieldI14SafeBinaryRead8Vector4fEvRT_R9ArrayInfoRK23StaticTransferFieldInfo
MKe:_Array_get_swapper_TisInt32_t2071877448_m2837069166_gshared
yDj:_RectTransform_INTERNAL_get_rect_m1177342209
Ujg:_PointerEventData_IsScrolling_m1971908975
_8h:__ZL108TweenSettingsExtensions_t2285462830_CustomAttributesCacheGenerator_TweenSettingsExtensions_OnKill_m787141751P21CustomAttributesCache
ikg:__ZN16VirtFuncInvoker1IP22MouseState_t3572864619iE6InvokeEjPvi
sWl:__GLOBAL__sub_I_RCW_cpp
GKc:__ZN5physx3Cct8SweptBoxD2Ev
oYl:__ZN6il2cpp2os26LibraryNamePrefixAndSuffixD2Ev
l1h:__ZL53UILineInfo_t3621277874_CustomAttributesCacheGeneratorP21CustomAttributesCache
cMd:__ZN5physx2Cm12DelegateTaskINS_13PxsCCDContextEXadL_ZNS2_12postCCDSweepEPNS_10PxBaseTaskEEEED0Ev
Sqk:_Parser_IsExplicitCapture_m4221197515
z9f:_Decimal_System_IConvertible_ToInt16_m3159038792
nw:__ZN7mecanim9animation12EvaluateClipEPKNS0_4ClipEPKNS0_9ClipInputEPNS0_10ClipMemoryEPNS0_10ClipOutputE
Iol:__ZL25UnresolvedVirtualCall_201P12Il2CppObject22UILineInfo_t3621277874S1_PK10MethodInfo
SWc:__ZN5physx3Cct9SweepTest15onObstacleAddedEjPKNS_17PxObstacleContextERKNS_6PxVec3ES7_f
t0c:__ZN5physx2Gu10SupportMapD2Ev
Lnb:__ZN4PPtrI11LightProbesE8TransferI18StreamedBinaryReadILb0EEEEvRT_
y5h:__ZL101ShortcutExtensions_t3524050470_CustomAttributesCacheGenerator_ShortcutExtensions_DOOffset_m1515150151P21CustomAttributesCache
lIk:_ComVisibleAttribute__ctor_m1789587486
Cad:__ZNK5physx15NpActorTemplateINS_18PxArticulationLinkEE22getClientBehaviorFlagsEv
TQi:_MonoMethodInfo_GetReturnType_m2864247130
A6h:__ZL111ShortcutExtensions_t3524050470_CustomAttributesCacheGenerator_ShortcutExtensions_DOBlendableRotateBy_m275321471P21CustomAttributesCache
dEc:__ZN16Physics2DManager25DestroyColliderCollisionsEP10Collider2D
Ej:_JS_WebRequest_Release
gJg:_DirectoryNotFoundException__ctor_m2242202556
Dad:__ZNK5physx15NpActorTemplateINS_18PxArticulationLinkEE12getAggregateEv
Q3a:__ZNSt3__26__treeINS_12__value_typeINS_12basic_stringIcNS_11char_traitsIcEENS_9allocatorIcEEEE17MessageIdentifierEENS_19__map_value_compareIS7_S9_NS_4lessIS7_EELb1EEENS5_IS9_EEE7destroyEPNS_11__tree_nodeIS9_PvEE
Raf:_String_CreateString_m2448464375
RAh:_X509SubjectKeyIdentifierExtension__ctor_m2959112706
FOi:_FieldInfo_get_IsNotSerialized_m2322769148
tCd:__ZNK5physx7NpScene18getStaticStructureEv
BVh:__ZL68Math_t2022911894_CustomAttributesCacheGenerator_Math_Max_m2671311541P21CustomAttributesCache
fMd:__ZN5physx13PxsCCDContext12postCCDSweepEPNS_10PxBaseTaskE
tTl:__ZN6il2cpp8metadata15GenericMetadata7InflateEPK19Il2CppGenericMethodPK20Il2CppGenericContext
MQi:_MonoGenericCMethod_get_ReflectedType_m2689239043
tYa:__ZN22PerThreadPageAllocatorC2Ev
rEf:_Collection_1_IsFixedSize_m499196375_gshared
Qog:_ColorTween_set_startColor_m3546206870_AdjustorThunk
u4e:_String_ParseDecimal_m3596063331
LAm:b225
H8d:__ZN5physx6shdfnd10Foundation19AlignCheckAllocator28deregisterAllocationListenerERNS_20PxAllocationListenerE
cad:__ZN5physx2Sc21ArticulationJointCore12setChildPoseERKNS_11PxTransformE
d9j:_InternalEnumerator_1_get_Current_m4083613828_gshared
iJl:__ZN6il2cpp2os4File11GetStdErrorEv
Q0g:_ShortcutExtensions_DOColor_m3644171909
Psf:_List_1_System_Collections_IList_get_IsReadOnly_m1745992999_gshared
yIl:__ZN13Il2CppHashMapINSt3__24pairIPK9EventInfoP11Il2CppClassEEj17ReflectionMapHashIS7_E19ReflectionMapEqualsIS7_ENS0_9allocatorINS1_IK10KeyWrapperIS7_EjEEEEEC2EjRKS9_RKSB_
eoc:__ZN8GUIState8EndOnGUIEv
def:_UnicodeEncoding_GetString_m542738941
aqc:__Z32GUIStyle_Set_Custom_PropWordWrapP12Il2CppObjecth
Fte:_UNITY_TT_Get_VMetrics
HIg:_Path_InsecureGetFullPath_m2635272425
f1f:_Enumerator_Clone_m1124749523
j7f:_DateTime_System_IConvertible_ToUInt32_m1363211018
tOd:__ZN5physx33solveContactCoulombBlockWriteBackEPKNS_23PxcSolverConstraintDescEjRNS_16PxcSolverContextEPNS_25PxcThresholdStreamElementEjPi
YVg:_PureQuaternionPlugin_Plug_m3044542140
$rf:_List_1_AsReadOnly_m4108578222_gshared
gWd:__ZN5physx9PxTaskMgr17submitUnnamedTaskERNS_6PxTaskENS_10PxTaskType4EnumE
usi:_DSA__ctor_m613430209
TKe:_Array_get_swapper_TisPlayable_t3667545548_m4216505466_gshared
wOe:_SetPropertyUtility_SetStruct_TisSingle_t2076509932_m3849235084_gshared
Iya:__ZN7Texture21GetMasterTextureLimitEv
T7j:_Version_get_Major_m3385239713
dJl:__ZN6il2cpp2vm10Reflection12HasAttributeEP12Il2CppObjectP11Il2CppClass
AOa:_UNITY_png_write_sRGB
Puc:__ZN8JSONRead21TransferSTLStyleArrayI13dynamic_arrayI4AABBLj4EEEEvRT_18MemLabelIdentifier17TransferMetaFlags
j2k:_InvokableCall_1__ctor_m121193486_gshared
r$:__ZN9ShaderLabL25StaticInitializeShaderLabEPv
vIj:_Dictionary_2_ContainsKeyValuePair_m3818021458_gshared
_Jd:__ZNK5physx2Sq12BucketPruner5sweepERKNS0_9ShapeDataERKNS_6PxVec3ERfRNS0_14PrunerCallbackE
T:Math_max
BEf:_Collection_1_System_Collections_IList_Insert_m1511106741_gshared
usk:_UriParser__ctor_m1282308392
Hml:__ZL24UnresolvedVirtualCall_92P12Il2CppObjectPK10MethodInfo
lBl:_il2cpp_class_get_methods
KIg:_Path_CanonicalizePath_m383914732
Xd:invoke_viiiiiffii
Lgk:_Enumerator_System_Collections_IEnumerator_get_Current_m1631145297_gshared
nXf:_ArrayList_Synchronized_m2395071980
wYl:__ZN6il2cpp2os6Thread16GetCurrentThreadEv
ICj:_Rect_get_min_m2549872833
lee:__ZN5physx6shdfnd8internal8HashBaseINS0_4PairIKPKNS0_14NamedAllocatorEPKcEES6_NS0_4HashIS6_EENS1_11HashMapBaseIS6_S9_SC_NS0_20NonTrackingAllocatorEE6GetKeyESE_Lb1EE15reserveInternalEj
BOg:_UnexceptionalStreamWriter_Write_m3206913035
wtk:_UnityAnalyticsHandler_t3238795095_marshal_pinvoke_back
fxb:__ZThn28_N14SpriteRendererD1Ev
Ieb:__ZN10TagManager8TransferI19StreamedBinaryWriteILb0EEEEvRT_
_Rb:__ZN11PreloadData23VirtualRedirectTransferER18StreamedBinaryReadILb0EE
gXg:_DOTween_PlayBackwardsAll_m700876428
K2l:__ZN6il2cpp6icalls8mscorlib6System10ReflectionL40il2cpp_class_get_generic_type_definitionEP11Il2CppClass
ssi:_DESTransform_ProcessBlock_m2826669227
X4i:__Z115RuntimeInvoker_Void_t1841601450_Il2CppObject_Int32_t2071877448_Int32_t2071877448_SByte_t454417549_Int32_t2071877448PK10MethodInfoPvPS2_
BEg:_Int16_CompareTo_m3493496879
Ifj:__Z36RuntimeInvoker_Direction_t1525323322PK10MethodInfoPvPS2_
__h:__ZL56RenderTexture_t2666733923_CustomAttributesCacheGeneratorP21CustomAttributesCache
$2h:__ZL56ColorWriteMask_t926634530_CustomAttributesCacheGeneratorP21CustomAttributesCache
dsb:__ZN6Sprite17MainThreadCleanupEv
gYh:__ZL56OidCollection_t3790243618_CustomAttributesCacheGeneratorP21CustomAttributesCache
LQh:__ZL61SignatureDescription_t89145500_CustomAttributesCacheGeneratorP21CustomAttributesCache
F8j:_InternalEnumerator_1_MoveNext_m3389738333_AdjustorThunk
Sbj:__Z89RuntimeInvoker_Il2CppObject_Il2CppObject_Il2CppObject_Rect_t3681755626_Single_t2076509932PK10MethodInfoPvPS2_
ZK:__ZN10AudioMixer14UpdateMuteSoloEv
MHb:__ZNSt3__26vectorINS_12basic_stringIcNS_11char_traitsIcEE13stl_allocatorIcL18MemLabelIdentifier1ELi16EEEES4_IS7_LS5_1ELi16EEE6assignINS_11__wrap_iterIPS7_EEEENS_9enable_ifIXaasr21__is_forward_iteratorIT_EE5valuesr16is_constructibleIS7_NS_15iterator_traitsISF_E9referenceEEE5valueEvE4typeESF_SF_
bPa:__Z17GetMonoManagerPtrv
eAk:_Component_GetComponents_m637589504
Rhd:__ZN5physx6shdfnd5ArrayINS_3Scb13MaterialEventENS0_19ReflectionAllocatorIS3_EEE15growAndPushBackERKS3_
Huf:_Stack_1_System_Collections_ICollection_get_SyncRoot_m3151629354_gshared
FRj:_MaskableGraphic_UnityEngine_UI_IClippable_get_gameObject_m954171032
Kea:__ZN9ShaderLab10SubProgram7CompileEv
Txa:__ZN7ApiGLES16SetPatchVerticesEi
aua:__ZN9GfxDevice12PresentFrameEPK14ChannelAssigns
y4c:__ZN5physx2Sc5Scene11onBodySleepEPNS0_7BodySimE
Is:__ZN6Object12SetHideFlagsEi
SIa:__ZN10MemoryFileC2E18MemLabelIdentifierP14MemoryFileData14FilePermission
_ki:_TrackingServices_NotifyUnmarshaledObject_m1794048369
drl:__ZN6il2cpp2vm5Class20FromGenericParameterEPK22Il2CppGenericParameter
TOh:__ZL59RemotingServices_t2399536837_CustomAttributesCacheGeneratorP21CustomAttributesCache
oLc:__ZL28GeomMTDCallback_PlaneCapsuleRN5physx6PxVec3ERfRKNS_10PxGeometryERKNS_11PxTransformES5_S8_
y7:__ZN15GlobalCallbacksC2Ev
V8a:__ZN11AssetBundle8TransferI14SafeBinaryReadEEvRT_
W7i:__Z97RuntimeInvoker_Void_t1841601450_PlayableU26_t3233213460_Int32_t2071877448_PlayableU26_t3233213460PK10MethodInfoPvPS2_
lXe:_Array_InternalArray__set_Item_TisLabelFixup_t4090909514_m565370771_gshared
fFc:__ZN7b2World10CreateBodyEPK9b2BodyDef
eDl:_FieldWithTarget_set_staticString_m2234360111
eke:_UNITY_FT_New_Memory_Face
udj:__Z221RuntimeInvoker_Void_t1841601450_ColorOptions_t2213017305_Il2CppObject_SByte_t454417549_Il2CppObject_Il2CppObject_Single_t2076509932_Color_t2020392075_Color_t2020392075_Single_t2076509932_SByte_t454417549_Int32_t2071877448PK10MethodInfoPvPS2_
rhd:__ZNK5physx10NpMaterial18getDynamicFrictionEv
C8k:_TweenExtensions_IsComplete_m3095330022
ZWh:__ZL74X509Crl_t1699034837_CustomAttributesCacheGenerator_U3CU3Ef__switchU24map13P21CustomAttributesCache
kpi:_SerializationEntry__ctor_m1619256036_AdjustorThunk
TLa:__ZZ23InitPlayerLoopCallbacksvEN43PostLateUpdatePlayerSendFrameCompletestruct7ForwardEv
U5e:__Z15CastclassSealedP12Il2CppObjectP11Il2CppClass
A4k:_U3CU3Ec__DisplayClass33_0__ctor_m3369890766
rZb:__ZN15ApplicationInfo14GetSandboxTypeEv
mid:__ZN5physx9NpPhysics16createConvexMeshERNS_13PxInputStreamE
JFk:_Playable_IsValid_m2102916683_AdjustorThunk
eKb:__Z18Transfer_BlittableI17RemapPPtrTransferLb1EhEvRK29SerializationCommandArgumentsR31RuntimeSerializationCommandInfo
Xti:_DOGetter_1_BeginInvoke_m1690324125_gshared
b_l:__ZNSt3__26vectorIjNS_9allocatorIjEEE26__swap_out_circular_bufferERNS_14__split_bufferIjRS2_EE
X_a:__ZN16ReflectionProbes40UpdateRealtimeReflectionProbesTimeslicedEv
$Il:__ZN15dense_hashtableINSt3__24pairIK10KeyWrapperINS1_IPK14Il2CppAssemblyP11Il2CppClassEEEjEES9_17ReflectionMapHashIS8_EN14dense_hash_mapIS9_jSD_19ReflectionMapEqualsIS8_ENS0_9allocatorISB_EEE9SelectKeyESG_SI_E14squash_deletedEv
ohl:_ListPool_1_Get_m529219189_gshared
WRl:__ZNSt3__26__treeINS_12__value_typeIP24Il2CppReflectionAssemblyPvEENS_19__map_value_compareIS3_S5_NS_4lessIS3_EELb1EEENS_9allocatorIS5_EEE16__insert_node_atEPNS_16__tree_node_baseIS4_EERSF_SF_
vda:__ZN13RenderManager16SetCurrentCameraEP6Camera
OMi:_MethodBuilder_GetBaseDefinition_m774166361
Mtl:__ZNK15dense_hashtableI10KeyWrapperIPK17Il2CppGenericInstES4_N6il2cpp8metadata21Il2CppGenericInstHashEN14dense_hash_setIS4_S7_NS6_24Il2CppGenericInstCompareENSt3__29allocatorIS4_EEE8IdentityES9_SC_E10test_emptyERK30dense_hashtable_const_iteratorIS4_S4_S7_SE_S9_SC_E
L3c:__ZN5physx2Sq17SceneQueryManager8addShapeERKNS_7NpShapeERKNS_12PxRigidActorEbPNS_9PxBounds3E
JVb:__ZN18StreamedBinaryReadILb1EE21TransferSTLStyleArrayI13dynamic_arrayIN9ShaderLab21SerializedBindChannelELj4EEEEvRT_17TransferMetaFlags
y3l:__ZN6il2cpp5utils5MatchENSt3__212basic_stringIcNS1_11char_traitsIcEENS1_9allocatorIcEEEEjRKS7_j
Yke:_UNITY_FT_Destroy_Class_psnames_module_class
_Bc:__ZNK12b2WheelJoint17GetReactionTorqueEf
vmk:_MRUList_Evict_m2430323183
NJf:_ReadOnlyCollection_1_System_Collections_Generic_ICollectionU3CTU3E_Remove_m1060547576_gshared
VQl:__ZN6il2cpp2vm5Image9GetCorlibEv
trb:__ZN2UI13RectTransform8TransferI18StreamedBinaryReadILb1EEEEvRT_
Ple:_ft_bitmap_glyph_bbox
zTl:__ZN6il2cpp2vm11MethodStack17GetStackFramesRawEv
yld:__ZNK5physx15NpActorTemplateINS_7PxClothEE14getOwnerClientEv
Qzk:_Component_GetComponent_m4225719715
aOd:__ZNK5physx2Gu29EPASupportMapPairRelativeImplINS0_8CapsuleVES2_E9doSupportERKNS_6shdfnd3aos5Vec3VERS6_S9_S9_
XZe:_Array_Sort_TisVector4_t2243707581_m474199742_gshared
iXg:_DOTween_PlayBackwards_m544554603
S7d:__ZN5physx10SubSortSAH5sort4EPjjRNS_6shdfnd5ArrayINS_11RTreeNodeNQENS2_19ReflectionAllocatorIS4_EEEERjjPS4_
dtj:_GUIStyle_InitCopy_m3676786505
hOg:_TextWriter_Write_m576684782
Hel:_Vector3_Max_m2105825185
Al:_glIsVertexArray
RIa:__ZN25SingleBlockMemoryFileDataC2E18MemLabelIdentifierPvjb
Nfb:__ZN5Unity9Component8TransferI18StreamedBinaryReadILb0EEEEvRT_
dIg:__ZN16VirtFuncInvoker0IhE6InvokeEjPv
ga:invoke_fff
AYj:_Text_get_fontSize_m3105730761
Mqm:b14
xoh:_TlsServerHello_Update_m1740270635
ude:__ZN5physx2Sc7PhysicsC2ERKNS_17PxTolerancesScaleERKNS_14PxvOffsetTableE
Zve:__ZN2UI6Canvas17MainThreadCleanupEv
eVj:_ScrollRect_Rebuild_m3423824761
dsf:_List_1_Find_m3862454845_gshared
gmk:_MatchCollection_get_Item_m2609281578
PEa:__ZN7ApiGLES13CreateProgramEv
C6i:__Z74RuntimeInvoker_Boolean_t3825574718_Vector3_t2243707580_Vector3_t2243707580PK10MethodInfoPvPS2_
t_j:_UTF8Encoding__ctor_m100325490
Vya:__ZN4crnd12crn_unpackerD2Ev
dYj:_StencilMaterial_ClearAll_m1372779118
Pl:_emscripten_glTexImage2D
ngj:__Z52RuntimeInvoker_Void_t1841601450_UIVertex_t1204258818PK10MethodInfoPvPS2_
qji:_ObjRefSurrogate_SetObjectData_m1873902916
qte:_tt_driver_class_pic_init
u0:__ZN18ScriptingArguments9AddStringEPKc
uMl:__ZN15dense_hashtableINSt3__24pairIK10KeyWrapperIP11Il2CppClassES4_EES5_N6il2cpp8metadata16SZArrayClassHashEN14dense_hash_mapIS5_S4_SA_NS9_19SZArrayClassCompareENS0_9allocatorIS7_EEE9SelectKeyESC_SE_E13set_empty_keyERKS7_
oHf:_ReadOnlyCollection_1_System_Collections_IList_get_IsReadOnly_m1367736517_gshared
rZh:__ZL116Component_t3819376471_CustomAttributesCacheGenerator_Component_GetComponentsInParent_m1920178904____includeInactive1P21CustomAttributesCache
Klm:runPostSets
$Nd:__ZNK5physx2Gu29EPASupportMapPairRelativeImplINS0_8CapsuleVES2_E18doWarmStartSupportEiiRNS_6shdfnd3aos5Vec3VES7_S7_
vbi:__ZL93AxisEventData_t1524870173_CustomAttributesCacheGenerator_AxisEventData_set_moveDir_m254243794P21CustomAttributesCache
aoa:__ZL23stbir__resize_arbitraryPvPKviiiS_iiiffffPfiij14stbir_datatype12stbir_filterS4_10stbir_edgeS5_16stbir_colorspace
Vmf:_List_1_System_Collections_IList_Insert_m848656350_gshared
nLb:__Z18Transfer_BlittableI24GenerateTypeTreeTransferLb1E8Vector4fEvRK29SerializationCommandArgumentsR31RuntimeSerializationCommandInfo
$Eg:_Int16_ToString_m3971652088_AdjustorThunk
Zl:_pthread_detach
gyl:__ZN6il2cpp2vm19SocketPollingThread7RunLoopEv
LAh:_X509ExtensionEnumerator_Reset_m3200687545
Z$g:_Vector4Plugin_SetRelativeEndValue_m2071181835
o2i:__Z197RuntimeInvoker_Boolean_t3825574718_Il2CppObject_Il2CppObject_Il2CppObject_Int32_t2071877448_DateTimeU26_t3448131235_SByte_t454417549_BooleanU26_t3168250738_SByte_t454417549_ExceptionU26_t1467204777PK10MethodInfoPvPS2_
iJd:__ZN5physx11EdgeManager6resizeEj
uvh:_IPv6Address_set_ScopeId_m1442934355
n9k:_TweenSettingsExtensions_InsertCallback_m832410615
Jke:__ZN13TextRendering4Font7PRODUCEE18MemLabelIdentifier18ObjectCreationMode
wYh:__ZL77U3CPrivateImplementationDetailsU3E_t1486305139_CustomAttributesCacheGeneratorP21CustomAttributesCache
pWb:__ZN9ShaderLab25SerializedTextureProperty8TransferI24GenerateTypeTreeTransferEEvRT_
VOf:_Comparison_1_Invoke_m2645957248_gshared
Jzm:_emscripten_glIsShader__wrapper
E6k:_U3CU3Ec__DisplayClass67_0_U3CDOShakeScaleU3Eb__0_m2785084294
Goe:_tt_cmap14_char_next
rLh:__ZL69AssemblyTrademarkAttribute_t3740556705_CustomAttributesCacheGeneratorP21CustomAttributesCache
Tua:__ZN13GfxDeviceGLES28GetNativeVertexBufferPointerEP9GfxBuffer
awd:__ZN5physx2Sc5Scene12removeStaticERNS0_10StaticCoreERNS_6shdfnd11InlineArrayIPKNS0_9ShapeCoreELj64ENS4_19ReflectionAllocatorIS8_EEEEb
CEl:__ZN15dense_hashtableINSt3__24pairIK10KeyWrapperIPK10Il2CppTypeEjEES6_N6il2cpp8metadata14Il2CppTypeHashEN14dense_hash_mapIS6_jSB_NSA_17Il2CppTypeCompareENS0_9allocatorIS8_EEE9SelectKeyESD_SF_E15insert_noresizeERKS8_
Yca:__ZN11NamedObject8TransferI18StreamedBinaryReadILb0EEEEvRT_
IDa:__ZNK17GPUSkinPoseBuffer12GetBoneCountEv
tqc:__Z32GUIStyle_Get_Custom_PropFontSizeP12Il2CppObject
fpi:_DelegatePInvokeWrapper_CallbackHandler_t362827733
WVh:__ZL59ResolveEventArgs_t1859808873_CustomAttributesCacheGeneratorP21CustomAttributesCache
D9k:_TweenSettingsExtensions_SetLookAt_m1482035211
T2k:_UnityAction_1_BeginInvoke_m3462722079_gshared
xOi:_EventInfo_get_MemberType_m3337516651
duc:__Z18Transfer_BlittableI8JSONReadLb1EyEvRK29SerializationCommandArgumentsR31RuntimeSerializationCommandInfo
qrl:__ZNK15dense_hashtableINSt3__24pairIK10KeyWrapperIPK22Il2CppGenericParameterEP11Il2CppClassEES6_N6il2cpp5utils11PointerHashIS4_EEN14dense_hash_mapIS6_S9_SE_NS0_8equal_toIS6_EENS0_9allocatorISA_EEE9SelectKeyESH_SJ_E12test_deletedERK24dense_hashtable_iteratorISA_S6_SE_SL_SH_SJ_E
um:_emscripten_glMatrixMode
$u:__ZN8Animator23VirtualRedirectTransferER18StreamedBinaryReadILb0EE
WKh:__ZL93TypeBuilder_t3308873219_CustomAttributesCacheGenerator_TypeBuilder_GetConstructors_m774120094P21CustomAttributesCache
_2a:__Z22CalculateTransformPathRK9TransformPS0_
I3d:__ZN5physx13GuMeshFactory17createHeightFieldERNS_13PxInputStreamE
jzd:__ZN5physx2Sc10NPhaseCore25createShapeInstancePairLLERNS0_8ShapeSimES3_NS_7PxFlagsINS_10PxPairFlag4EnumEtEE
aji:_MethodReturnDictionary__ctor_m756139344
XQ:__ZN11UnityEngine15CloudWebService14DataDispatcher16PrepareDataBlockERNS0_16SessionContainerE
wFk:_CustomAnimationPlayable_AddInput_m3120035390
oAd:__ZThn8_N5physx2Sc19ShapeInstancePairLL12onDeactivateEj
pDi:_InternalEnumerator_1__ctor_m967618647_gshared
F2l:__ZN6il2cpp6icalls8mscorlib6System9Threading7Monitor4ExitEP12Il2CppObject
tmj:__Z62RuntimeInvoker_ParameterModifier_t1820634920_Int32_t2071877448PK10MethodInfoPvPS2_
jOb:__ZL26Transfer_SimpleNativeClassI18StreamedBinaryReadILb0EE10RectOffsetLb0EEvRK29SerializationCommandArgumentsR31RuntimeSerializationCommandInfo
Vke:_UNITY_ft_destroy_default_module_classes
Hah:_SymmetricTransform_FinalDecrypt_m3674669784
wjf:_List_1_CheckMatch_m1772343151_gshared
GUa:__ZL12DepthPassJobPN21GfxDeviceAsyncCommand10ArgScratchEPKNS_3ArgE
uUb:__ZNSt3__26vectorIN9ShaderLab20SerializedSubProgram16TextureParameterENS_9allocatorIS3_EEE6assignINS_11__wrap_iterIPS3_EEEENS_9enable_ifIXaasr21__is_forward_iteratorIT_EE5valuesr16is_constructibleIS3_NS_15iterator_traitsISC_E9referenceEEE5valueEvE4typeESC_SC_
sHg:_IntPtr_Equals_m1214967011_AdjustorThunk
JZk:_SingleGear0_ouiCollide_m2322611487
N8d:__ZN9Rigidbody16ApplyConstraintsEv
Wqf:_List_1_Add_m3591975577_gshared
Rze:__Z55Register_UnityEngine_CanvasGroup_get_ignoreParentGroupsv
GDg:_Guid_Equals_m2389236871
Bbi:__ZL100PointerEventData_t1599784723_CustomAttributesCacheGenerator_U3CpointerPressRaycastU3Ek__BackingFieldP21CustomAttributesCache
nfl:_Vector4_ToString_m2340321043
Lo:FUNCTION_TABLE_iiiiiiiiiiii
b9:__Z24InitializeIl2CppFromMainRKNSt3__212basic_stringIcNS_11char_traitsIcEENS_9allocatorIcEEEES7_iPPKc
Srd:__ZN5physx2Sc17ParticleSystemSim8setFlagsEj
Hgb:__ZN16GraphicsSettingsD0Ev
n5a:__Z29StdTemplateConversionFunctionIshEbPvR14SafeBinaryRead
ZQa:__ZN15LODGroupManager21CalculateLODDataArrayERK13LODParametersPK6Cameraf
m:cttz_i8
jre:_UNITY_FT_GlyphLoader_Add
X8l:_uselocale
K6d:__ZN5physx2Gu15EdgeListBuilder18CreateEdgesToFacesEjPKjPKt
$Sc:__ZN5physx11PxMeshQuery5sweepERKNS_6PxVec3EfRKNS_10PxGeometryERKNS_11PxTransformEjPKNS_10PxTriangleERNS_10PxSweepHitENS_7PxFlagsINS_9PxHitFlag4EnumEtEEPKjfb
ixl:__ZNK15dense_hashtableINSt3__24pairIK10KeyWrapperIPK19Il2CppGenericMethodEPK26Il2CppGenericMethodIndicesEES6_N6il2cpp8metadata23Il2CppGenericMethodHashEN14dense_hash_mapIS6_SA_SE_NSD_26Il2CppGenericMethodCompareENS0_9allocatorISB_EEE9SelectKeyESG_SI_E12test_deletedERK24dense_hashtable_iteratorISB_S6_SE_SK_SG_SI_E
Dwj:_Light_get_color_m2617173338
rVh:__ZL47Guid_t2533601593_CustomAttributesCacheGeneratorP21CustomAttributesCache
I0h:__ZL108Physics2D_t2540166467_CustomAttributesCacheGenerator_Physics2D_GetRayIntersectionAll_m253330691____distance1P21CustomAttributesCache
smk:_MRUList__ctor_m2726533367
SBg:_DateTimeFormatInfo_get_FullDateTimePattern_m2607507656
Xoh:_HttpsClientStream_RaiseServerCertificateValidation_m3356770426
$Gh:__ZL73Il2CppArray_CustomAttributesCacheGenerator_Array_BinarySearch_m3052238307P21CustomAttributesCache
ebg:_DelegateSerializationHolder__ctor_m3915060553
rn:_emscripten_glViewport
e_l:__ZN6il2cpp6icalls8mscorlib6System15MonoCustomAttrs17IsDefinedInternalEP12Il2CppObjectP20Il2CppReflectionType
qub:__ZN4Mesh21UnswizzleVertexColorsEb
moh:_TlsServerSettings_set_CertificateTypes_m264196087
FEi:_InternalEnumerator_1__ctor_m4150855019_gshared
Wgc:__Z40Register_UnityEngine_Light_set_intensityv
nte:_cff_parse_font_bbox
Gbc:__Z35Application_Get_Custom_PropIsEditorv
nUc:__Z14raycast_sphereRKN5physx10PxGeometryERKNS_11PxTransformERKNS_6PxVec3ES8_fNS_7PxFlagsINS_9PxHitFlag4EnumEtEEjPNS_12PxRaycastHitEbPFbRSD_PvESG_
Ozb:__ZN14PlayerSettings23VirtualRedirectTransferER18StreamedBinaryReadILb0EE
t2:__ZN13MonoBehaviour19RebuildMonoInstanceEP11Il2CppClassP12Il2CppObjectP10MonoScript
PKe:_Array_get_swapper_TisCustomAttributeTypedArgument_t1498197914_m2780757375_gshared
Uhl:_KeyValuePair_2__ctor_m3201181706_AdjustorThunk
Ozh:_X509CertificateCollection_GetEnumerator_m75057995
P6l:__ZN6il2cpp2os5Event5ResetEv
OYa:__Z26CombineDepthNormalsTextureRK17RenderLoopContextR13dynamic_arrayI16RenderObjectDataLj4EE
xWk:_AesManaged__ctor_m2322442838
eTl:__ZN6il2cpp8metadata15GenericMetadata17InflateParametersEPK13ParameterInfohPK20Il2CppGenericContextb
EGg:_Int64_System_IConvertible_ToUInt32_m850395426_AdjustorThunk
t1:__ZN18AwakeFromLoadQueue28InvokePersistentManagerAwakeEPNS_4ItemEj17AwakeFromLoadMode
d6h:__ZL101ShortcutExtensions_t3524050470_CustomAttributesCacheGenerator_ShortcutExtensions_DOScaleZ_m1484201804P21CustomAttributesCache
yR:__ZNSt3__215basic_stringbufIcNS_11char_traitsIcEENS_9allocatorIcEEE7seekposENS_4fposI11__mbstate_tEEj
k_e:_HMACSHA512__ctor_m2390736870
u$d:__ZNK5physx2Cm12DelegateTaskINS_2Sc5SceneEXadL_ZNS3_23postIslandGenSecondPassEPNS_10PxBaseTaskEEEE7getNameEv
N4l:__ZNSt3__26__treeINS_12__value_typeIPvxEENS_19__map_value_compareIS2_S3_NS_4lessIS2_EELb1EEENS_9allocatorIS3_EEE16__insert_node_atEPNS_16__tree_node_baseIS2_EERSD_SD_
Bxb:__ZN4PPtrI6SpriteE8TransferI18StreamedBinaryReadILb0EEEEvRT_
xQa:__ZNK6Camera23CalculateShadowDistanceEv
WKi:_TypeBuilder_GetInterfaces_m1818658502
_2g:_U3CU3Ec__DisplayClass2_0_U3CDOAspectU3Eb__1_m2576574665
$eh:_BigInteger_op_Equality_m2683055762
y9:__Z25SetNeedToPerformRenderingb
Bpl:__ZL25UnresolvedVirtualCall_248P12Il2CppObject16Guid_t2533601593S1_PK10MethodInfo
fRi:_MonoMethod_GetPseudoCustomAttributes_m466965107
Zkk:_ValueCollection_System_Collections_Generic_IEnumerableU3CTValueU3E_GetEnumerator_m1604400448_gshared
IWa:__ZNSt3__227__insertion_sort_incompleteIR23CompareReflectionProbesP31RuntimeReflectionProbeBlendInfoEEbT0_S5_T_
sTg:_DOTweenComponent_FixedUpdate_m1532856798
JEj:_ResourceRequest_t2560315377_marshal_pinvoke
Hkj:__Z60RuntimeInvoker_Void_t1841601450_ResourceCacheItem_t333236149PK10MethodInfoPvPS2_
rXk:_eachGear_Update_m2002798520
XQj:_MaskUtilities_NotifyStencilStateChanged_m1527407683
cNd:__ZN5physxL27PxcSweepAnyShapeHeightfieldERKNS_11PxsCCDShapeES2_PKNS_12PxsRigidBodyES5_RKNS_11PxTransformES8_fRNS_6PxVec3ESA_RNS_10PxcNpCacheERNS_18PxcNpThreadContextE
V7g:_DSAManaged_GenerateKeyPair_m2711647034
Nyl:__ZNSt3__214__split_bufferI6pollfdRNS_9allocatorIS1_EEED2Ev
cTe:_Tweener_DOStartupDurationBased_TisDouble_t4078015681_TisDouble_t4078015681_TisNoOptions_t2508431845_m2792965821_gshared
yjj:__Z100RuntimeInvoker_Int32_t2071877448_Il2CppObject_Single_t2076509932_Int32_t2071877448_Int32_t2071877448PK10MethodInfoPvPS2_
eUe:_Array_InternalArray__ICollection_Add_TisResourceCacheItem_t333236149_m1151081240_gshared
iId:__ZN5physx3Scb5SceneD2Ev
D4f:_Convert_ToInt32_m2209788057
bx:__ZN17AnimationPlayable11DerivesFromEP11Il2CppClass
JGb:__ZN6HelperI14SafeBinaryRead23TransferArrayField_InfoE24SerializationFunctionForERKS1_R23StaticTransferFieldInfoPb
zmi:_SoapServices_GetXmlTypeForInteropType_m3821579913
fxa:__ZN7ApiGLES13CreateTextureEj16TextureDimensionN2gl9TexFormatEiiiii
rxm:_emscripten_glTexParameterfv__wrapper
Xpk:_CaptureAssertion_IsComplex_m1433259302
R4k:_U3CU3Ec__DisplayClass38_0_U3CDOLocalPathU3Eb__1_m3921559090
Elf:_List_1_Sort_m3692768805_gshared
MRk:_Array_InternalArray__get_Item_TisVector4_t2243707581_m3866288892_gshared
aIc:__ZN11Rigidbody2D8TransferI19StreamedBinaryWriteILb0EEEEvRT_
S8d:__Z16GetDynamicsScenev
uzd:__ZThn8_N5physx2Sc18TriggerInteraction7destroyEv
BTe:_Tweener_DOStartupDurationBased_TisVector4_t2243707581_TisVector4_t2243707581_TisVectorOptions_t293385261_m2764373909_gshared
Zbl:_TouchScreenKeyboard_get_active_m1442597648
qYh:__ZL68Uri_t19570940_CustomAttributesCacheGenerator_U3CU3Ef__switchU24map15P21CustomAttributesCache
Fpe:_ps_dimension_done
umg:_LayoutRebuilder_MarkLayoutForRebuild_m640589351
Pve:__Z46Register_UnityEngine_TextGenerator_Dispose_cppv
Wjg:_PointerEventData_get_pressEventCamera_m724559964
a5e:_String_IndexOfUnchecked_m3356721554
Xmb:__ZN16LightmapSettings8TransferI14SafeBinaryReadEEvRT_
nAa:__ZN17BufferManagerGLES13ReleaseBufferEP14DataBufferGLES
R0c:__ZN5physx6shdfnd5ArrayIPvNS0_19ReflectionAllocatorINS_16NpConnectorArrayEEEE15growAndPushBackERKS2_
gXi:__Z94RuntimeInvoker_Int32_t2071877448_Il2CppObject_Int32_t2071877448_Int32_t2071877448_Il2CppObjectPK10MethodInfoPvPS2_
C2:__Z64scripting_unity_engine_object_new_and_invoke_default_constructorP11Il2CppClassP6ObjectPP15Il2CppException
ryd:__ZN5physx2Sc5Scene15prepareSimulateEv
buc:__Z18Transfer_BlittableI8JSONReadLb1EjEvRK29SerializationCommandArgumentsR31RuntimeSerializationCommandInfo
v2c:__ZN5physx6shdfnd5ArrayIPNS_2Sc11InteractionENS0_19ReflectionAllocatorIS4_EEE8recreateEj
$fi:__ZL63ScrollRect_t1199013257_CustomAttributesCacheGenerator_m_InertiaP21CustomAttributesCache
lTk:_PKCS12_Decrypt_m1557069392
SYj:_VertexHelper_AddUIVertexQuad_m280792808
kwh:_WebHeaderCollection_ToString_m1246460752
UEi:_InternalEnumerator_1_System_Collections_IEnumerator_get_Current_m2842514953_AdjustorThunk
tGk:_Font_get_fontSize_m1732593415
zs:stackSave
pbm:__ZNSt3__213basic_istreamIcNS_11char_traitsIcEEED1Ev
GVk:_X509CrlEntry_get_Extensions_m79989256
$pe:_ps_dimension_end
Nhc:__Z41Register_UnityEngine_Mesh_Internal_Createv
Z6a:__ZN16MemoryFileSystem5TouchER13FileEntryData
$wb:__ZN14SpriteRenderer23VirtualRedirectTransferER24GenerateTypeTreeTransfer
l0e:_RIPEMD160Managed_JJ_m2933451431
wge:__Z63Register_UnityEngine_Physics_INTERNAL_CALL_Internal_RaycastTestv
N_e:_MACTripleDES_Initialize_m1318099802
Shh:_MD5SHA1_VerifySignature_m507888141
ZTf:_Byte_System_IConvertible_ToChar_m4188836679
ABg:_NumberFormatter_InitDecHexDigits_m2036076025
Bik:_Enumerator_get_CurrentKey_m3839846791_AdjustorThunk
zuc:__ZN8JSONRead21TransferSTLStyleArrayI13dynamic_arrayIaLj1EEEEvRT_18MemLabelIdentifier17TransferMetaFlags
P$a:__ZN6Camera9SetAspectEf
UIc:__ZN16Physics2DManager13CircleCastAllERK8Vector2ffS2_fiffPK10Collider2DbP13dynamic_arrayI12RaycastHit2DLj4EE
Zog:_ColorTween_get_ignoreTimeScale_m641454126_AdjustorThunk
Ma:invoke_viiffiii
jDl:__ZN15dense_hashtableINSt3__24pairIK10KeyWrapperINS1_IPK14Il2CppAssemblyP11Il2CppClassEEEjEES9_17ReflectionMapHashIS8_EN14dense_hash_mapIS9_jSD_19ReflectionMapEqualsIS8_ENS0_9allocatorISB_EEE9SelectKeyESG_SI_E4findERSA_
mfh:_Kernel_modInverse_m3230829577
vSk:_Mesh_GetAllocArrayFromChannel_TisVector3_t2243707580_m2367580537_gshared
PGf:_ReadOnlyCollection_1_Contains_m1800950533_gshared
jlb:__ZN12CubemapArray8TransferI18StreamedBinaryReadILb1EEEEvRT_
Oci:__ZL79TouchInputModule_t2561058385_CustomAttributesCacheGenerator_m_ForceModuleActiveP21CustomAttributesCache
Xym:_emscripten_glBindVertexArray__wrapper
uhh:_MD4__ctor_m2366413460
L9h:__ZL65StringPluginExtensions_t3910942986_CustomAttributesCacheGeneratorP21CustomAttributesCache
Pui:_DOSetter_1__ctor_m1460312617_gshared
eIj:_Dictionary_2_InitArrays_m435313205_gshared
FF:__ZN10ObjectPoolIN4FMOD3DSPENS0_4DSPIEE7GetFreeEi
I0a:__ZN9Transform37InitializeTransformHierarchyRecursiveER18TransformHierarchyRii
dFh:__ZL80Decimal_t724701077_CustomAttributesCacheGenerator_Decimal_op_Implicit_m233687092P21CustomAttributesCache
psg:_Graphic_get_useLegacyMeshGeneration_m1366444625
Kei:__ZL65InputField_t1631627530_CustomAttributesCacheGenerator_m_InputTypeP21CustomAttributesCache
tml:__ZL24UnresolvedVirtualCall_78P12Il2CppObjectPK10MethodInfo
e6g:_ModulusRing_Pow_m1137250399
Fdk:_InternalEnumerator_1_MoveNext_m2410670600_AdjustorThunk
$qh:_SslStreamBase_resetBuffer_m3028042362
pSa:__ZN17MeshRenderingData4InitEP4MeshS1_iP15SharedGfxBufferS3_
Bjh:_CipherSuite_get_HashAlgorithmType_m3902365773
C2k:_InvokableCall_2_Find_m1763382885_gshared
yJf:_ReadOnlyCollection_1_System_Collections_ICollection_get_SyncRoot_m2779904122_gshared
WDl:__ZN15dense_hashtableINSt3__24pairIK10KeyWrapperINS1_IPK9FieldInfoP11Il2CppClassEEEjEES9_17ReflectionMapHashIS8_EN14dense_hash_mapIS9_jSD_19ReflectionMapEqualsIS8_ENS0_9allocatorISB_EEE9SelectKeyESG_SI_E12resize_deltaEjj
hea:__ZN19ShaderPropertySheet38CopyTextureWithAuxiliaryPropertiesFromERKN9ShaderLab16FastPropertyNameERKS_
wAh:_X509ChainStatus__ctor_m3628359961_AdjustorThunk
Kjb:__ZN14DirectorPlayer23VirtualRedirectTransferER19StreamedBinaryWriteILb0EE
G4h:__ZL103TweenExtensions_t405253783_CustomAttributesCacheGenerator_TweenExtensions_WaitForCompletion_m3746720476P21CustomAttributesCache
t5e:_Evidence_get_HostEvidenceList_m2095478124
Ylc:__Z57Register_UnityEngine_Transform_INTERNAL_set_localPositionv
Ykh:_Context_Clear_m4000337070
eva:__ZN13GfxDeviceGLES26SetRandomWriteTargetBufferEi15ComputeBufferID
rDh:_IntervalCollection_Normalize_m538796191
wdd:__ZN5physx6shdfnd4sortIPvNS0_4LessIS2_EENS0_19ReflectionAllocatorINS_2Cm5BlockIhLj256EEEEEEEvPT_jRKT0_RKT1_j
kWg:_DOTween_AutoInit_m4125144064
gsg:_FontUpdateTracker_UntrackText_m3827316510
P9a:__ZN18AssetBundleManager19RegisterAssetBundleEP11AssetBundle
rzi:_TweenerCore_3__ctor_m4171196319_gshared
x4d:__ZN5physx20InternalTriangleMesh7releaseEv
JLd:__ZN5physx6shdfnd5ArrayINS_16PxsCCDBlockArrayINS_13PxsCCDOverlapELi128EE9BlockInfoENS0_19ReflectionAllocatorIS5_EEE15growAndPushBackERKS5_
K3c:__ZNK5physx7NpShape8getFlagsEv
kXg:_DOTween_PlayForward_m3077912960
svf:_Collection_1_Remove_m2052213582_gshared
k7b:__ZNK11ICallString6ToUTF8Ev
Gzi:_TweenerCore_3_ChangeEndValue_m3143172042_gshared
Vpk:_CaptureAssertion_get_Alternate_m2729005740
g$l:_GC_number_stack_black_listed
Vem:__ZNKSt3__220__time_get_c_storageIwE3__cEv
FHi:_Default_SelectMethod_m3081239996
evd:__ZN5physx19NpRigidBodyTemplateINS_14PxRigidDynamicEE25setMassSpaceInertiaTensorERKNS_6PxVec3E
jnd:__ZNK5physx7NpCloth16getContactOffsetEv
cbc:__ZNSt3__214__split_bufferIPN9BlobWrite11TypeContextENS_9allocatorIS3_EEE10push_frontERKS3_
E4:__ZN12FileAccessor4ReadEyyPvPy
Hea:__ZN13dynamic_arrayI16ShaderKeywordSetLj4EE6insertEPS0_PKS0_S4_
HPb:__Z29Transfer_Blittable_ArrayFieldI18StreamedBinaryReadILb0EE11QuaternionfEvRT_R9ArrayInfoRK23StaticTransferFieldInfo
aOk:_MethodDictionary_IsOverridenKey_m3922224650
Z$f:_SyncHashtable_Contains_m3042906549
XEc:__ZN14dense_hash_mapINSt3__24pairIPK10Collider2DS4_EE11Collision2DNS2_23ColliderPairHashFunctorENS0_8equal_toIS5_EE13stl_allocatorINS1_IKS5_S6_EEL18MemLabelIdentifier65ELi16EEE4findERSB_
c9b:__Z21GetSceneHierarchyPathPK6Object
Ptf:_List_1_System_Collections_IList_set_Item_m4016273526_gshared
QAh:_X509KeyUsageExtension_CopyFrom_m931530012
l$a:__ZN13RenderTexture9SetHeightEi
YTg:_U3CWaitForKillU3Ed__15_MoveNext_m1537769148
wRj:__ZN21InterfaceFuncInvoker0IP25RectTransform_t3349966182E6InvokeEjP11Il2CppClassPv
acm:__ZNKSt3__27collateIcE7do_hashEPKcS3_
$yh:_X509Chain_get_CertificateAuthorities_m3325663784
Pib:__ZN16LevelGameManager8TransferI24GenerateTypeTreeTransferEEvRT_
oqj:_GUIStyle_get_fixedHeight_m414733479
Lzk:_Color32__ctor_m1932627809_AdjustorThunk
Orh:_SslStreamBase_Read_m1036897444
mTl:__ZN15dense_hashtableI10KeyWrapperIP18Il2CppGenericClassES3_N6il2cpp8metadata22Il2CppGenericClassHashEN14dense_hash_setIS3_S6_NS5_25Il2CppGenericClassCompareENSt3__29allocatorIS3_EEE8IdentityES8_SB_E12resize_deltaEjj
BFe:__ZNSt3__24pairIKN4core12basic_stringIcNS1_20StringStorageDefaultIcEEEEN11UnityEngine7Connect19RemoteSettingsValueEEC2ERKSA_
oUl:__ZNK15dense_hashtableINSt3__24pairIK10KeyWrapperIP12Il2CppObjectEN6il2cpp2gc9CachedCCWEEES5_NS7_5utils11PointerHashIS3_EEN14dense_hash_mapIS5_S9_SD_NS0_8equal_toIS5_EENS0_9allocatorISA_EEE9SelectKeyESG_SI_E12test_deletedERK24dense_hashtable_iteratorISA_S5_SD_SK_SG_SI_E
KSj:_RectMask2D_PerformClipping_m1232012832
SPl:__ZN6il2cpp6icalls8mscorlib6System2IO6MonoIO17GetFileAttributesEP12Il2CppStringPi
ijk:_Transform_1_Invoke_m4020530914_gshared
loe:_tt_cmap8_char_index
jij:__Z105RuntimeInvoker_Il2CppObject_Il2CppObject_Quaternion_t4030073918_Quaternion_t4030073918_Single_t2076509932PK10MethodInfoPvPS2_
Mqj:_GUILayoutGroup_ResetCursor_m3160916532
Qsk:_CustomEventData_AddUInt16_m3349298376
zHb:__Z29Transfer_Blittable_ArrayFieldI14SafeBinaryReadjEvRT_R9ArrayInfoRK23StaticTransferFieldInfo
gQh:__ZL56HashAlgorithm_t2624936259_CustomAttributesCacheGeneratorP21CustomAttributesCache
JCb:__ZN23PreloadManagerOperationD0Ev
Sf:_emscripten_set_keydown_callback
glf:_List_1_Add_m2342465036_gshared
u$f:_Enumerator_get_Value_m3684748062
Keb:__ZN19StreamedBinaryWriteILb0EE21TransferSTLStyleArrayINSt3__26vectorI17SortingLayerEntryNS2_9allocatorIS4_EEEEEEvRT_17TransferMetaFlags
Q4j:_UInt32_Parse_m3371984903
M4:__ZN12FileAccessorC2Ev
QUk:_X509CertificateCollection_Compare_m1014334435
A0a:__ZN9Transform35SetLocalPositionWithoutNotificationERKN4math7_float3E
n8c:__ZN5physx2Sc15ArticulationSim12applyImpulseERNS0_8BodyCoreERKNS_9PxcFsDataERKNS_6PxVec3ES9_
sud:__ZNK5physx22NpParticleBaseTemplateINS_16PxParticleSystemENS_16NpParticleSystemEE7getTypeEv
ZFk:_Playable_get_duration_m4155589845_AdjustorThunk
nnk:_PatternLinkStack_GetCurrent_m2994645935
BAc:__ZNK11b2GearJoint16GetReactionForceEf
oOf:_Comparison_1__ctor_m2929820459_gshared
P$e:__ZN16VirtFuncInvoker5IiP22ByteU5BU5D_t3397334013iiS1_iE6InvokeEjPvS1_iiS1_i
DMk:_AsyncResult__ctor_m1183194429
czl:__ZN6il2cpp2vm7Runtime10GetDataDirEv
cOk:_MethodDictionary_set_Item_m3475146889
zBk:_DebugLogHandler_Internal_Log_m3491540823
I7c:__ZNK5physx14NpArticulation26getInternalDriveIterationsEv
Ekj:__Z54RuntimeInvoker_Void_t1841601450_LabelFixup_t4090909514PK10MethodInfoPvPS2_
ZOh:__ZL62WellKnownObjectMode_t2630225581_CustomAttributesCacheGeneratorP21CustomAttributesCache
gZj:_Toggle_PlayEffect_m3950629415
LPg:_MonoCustomAttrs_GetCustomAttribute_m100274015
Nhj:__Z69RuntimeInvoker_Void_t1841601450_Int32_t2071877448_Vector3_t2243707580PK10MethodInfoPvPS2_
Dma:__ZN13RenderManager18UpdateAllRenderersEv
C9d:__ZThn24_N14PhysicsManagerD1Ev
wDe:__ZN22BaseUnityConnectClient30OnEnteringStatePausedOrStoppedEv
fDf:_Collection_1_System_Collections_ICollection_get_SyncRoot_m2157752542_gshared
Tvl:__ZN13dynamic_arrayIPK10Il2CppTypeLj4EE6assignEPKS2_S5_
Nw:__ZN7mecanim5human12HumanPoseAddERNS0_9HumanPoseERKS1_S4_
Y5h:__ZL111ShortcutExtensions_t3524050470_CustomAttributesCacheGenerator_ShortcutExtensions_DORotateQuaternion_m4202237645P21CustomAttributesCache
R2k:_UnityAction_1__ctor_m2836997866_gshared
nuk:_Animator_ResetTrigger_m865269317
hTh:__ZL64AssemblyLoadEventArgs_t4233815743_CustomAttributesCacheGeneratorP21CustomAttributesCache
iCf:_Collection_1_IsFixedSize_m218241296_gshared
I$b:__Z17BuildSmoothCornerjRP10LineVertexRKN4math8float4x4EPK15LineBuilderDataRKfSA_RK11ColorRGBA32
C8:__ZN15dense_hashtableINSt3__24pairIKNS0_12basic_stringIcNS0_11char_traitsIcEE13stl_allocatorIcL18MemLabelIdentifier54ELi16EEEEP11AssetBundleEES8_11djb2_hash_tIS8_EN14dense_hash_mapIS8_SB_SE_NS0_8equal_toIS8_EENS0_9allocatorISC_EEE9SelectKeyESH_SJ_EC2ERKSM_j
q0a:__Z24MergeTransformComponentsR9TransformS0_b
XZk:_thisCollideWith_OnTriggerExit2D_m3696363315
n3c:__ZThn24_N5physx2Sc20ArticulationJointSimD0Ev
Obj:__Z92RuntimeInvoker_Il2CppObject_Il2CppObject_Il2CppObject_Vector2_t2243707579_Single_t2076509932PK10MethodInfoPvPS2_
kae:__ZN14PhysicsManager32AddToTriggerStayStatesIfRequiredEPK9Rigidbody
Dti:_DOGetter_1_BeginInvoke_m3134053505_gshared
KLg:_MonoIO_get_PathSeparator_m2635828107
Lmi:_TypeInfo_get_TypeName_m1722081275
Tzc:__ZN15b2CircleContactD0Ev
oRg:_MonoType_get_Name_m865859211
zfg:_CultureInfo__cctor_m2290268677
cBi:_ArrayReadOnlyList_1_System_Collections_IEnumerable_GetEnumerator_m3039869667_gshared
j9e:_String_Trim_m3982520224
tZc:__ZN5physx14PxsAABBManager12createBPElemEv
Gli:_RemotingConfiguration__cctor_m2129988840
Nzf:_Collection_1_Insert_m44548038_gshared
jkd:__ZThn12_N5physx7NpShape14onRefCountZeroEv
BLc:__ZL26GeomMTDCallback_ConvexMeshRN5physx6PxVec3ERfRKNS_10PxGeometryERKNS_11PxTransformES5_S8_
VFh:__ZL42Il2CppArray_CustomAttributesCacheGeneratorP21CustomAttributesCache
Odd:__ZN5physx15NpActorTemplateINS_18PxArticulationLinkEE22setClientBehaviorFlagsENS_7PxFlagsINS_25PxActorClientBehaviorFlag4EnumEhEE
yl:_emscripten_glVertexAttribPointer
zYg:_Path__ctor_m4253660657
Ika:__ZN14PreloadManager26UpdatePreloadingSingleStepENS_21UpdatePreloadingFlagsEi
dxj:_Material__ctor_m1440882780
I2e:_SHA512Managed_Initialize_m891287980
M$d:__ZN18ScBeforeSolverTask11runInternalEv
zqa:__Z19InitializeGfxDevicej
J5e:_SecurityException__ctor_m1484114982
iKk:_SinkProviderData_get_Children_m100594762
vVk:_X509Crl_GetHashName_m183504634
LQf:_Array_GetValue_m1507415734
Ljc:__Z57Register_UnityEngine_RectTransform_INTERNAL_set_anchorMinv
oAg:_Object_MemberwiseClone_m2655589444
X$c:__ZL33GeomOverlapCallback_CapsuleConvexRKN5physx10PxGeometryERKNS_11PxTransformES2_S5_PNS_2Gu12TriggerCacheE
THf:_ReadOnlyCollection_1_System_Collections_IList_get_Item_m375043207_gshared
fia:__ZN6prcoreL25inner_stretch_i8_bilinearEPKNS_9InnerInfoE
ec:invoke_fiifiii
mS:__ZN11UnityEngine15CloudWebService13WWWRestClient17GetResponseStatusEv
fJg:_DirectoryInfo_ToString_m4208086799
Kyk:_Collision_get_transform_m4132935520
oRi:_MonoMethod_get_IsGenericMethod_m4276550811
vjk:_Transform_1_BeginInvoke_m3826027984_gshared
Ztk:_AnimationEvent_set_time_m2162176572
F3f:_Decimal_op_Implicit_m2149927308
ggl:_UnityEvent_1_RemoveListener_m4000386396_gshared
E4d:__ZN5physx20InternalTriangleMesh9loadRTreeERNS_13PxInputStreamEj
pwd:__ZN5physx19NpRigidBodyTemplateINS_14PxRigidDynamicEE25setCMassLocalPoseInternalERKNS_11PxTransformE
r7h:__ZL68U3CU3Ec__DisplayClass18_0_t1881678340_CustomAttributesCacheGeneratorP21CustomAttributesCache
dxd:__ZNK5physx15NpActorTemplateINS_13PxRigidStaticEE14getOwnerClientEv
ykm:__ZNSt3__212basic_stringIwNS_11char_traitsIwEENS_9allocatorIwEEE9__grow_byEjjjjjj
EVl:__ZN6il2cpp6icalls8mscorlib6System9AppDomain22InternalGetProcessGuidEP12Il2CppString
Wqe:_cf2_builder_moveTo
ysd:__ZN5physx2Sc18ParticleSystemCore16releaseParticlesEv
r8g:_KeyPairPersistence_get_UseMachineKeyStore_m560802076
bNd:__ZNK5physx2Gu29EPASupportMapPairRelativeImplINS0_8CapsuleVENS0_4BoxVEE6getDirEv
_vf:_Collection_1_CopyTo_m1840908033_gshared
bUc:__ZN5physx2Gu20intersectTriangleBoxERKNS_6shdfnd3aos5Vec3VES5_S5_S5_S5_
Tgk:_Enumerator_System_Collections_IDictionaryEnumerator_get_Entry_m345330700_AdjustorThunk
Tzl:__ZNSt3__214__split_bufferIP9FieldInfoRNS_9allocatorIS2_EEEC2EjjS5_
bgg:_AbstractEventData__ctor_m3586111519
ELb:__Z18Transfer_BlittableI24GenerateTypeTreeTransferLb1EjEvRK29SerializationCommandArgumentsR31RuntimeSerializationCommandInfo
phh:_MD2Managed_Padding_m410163267
CZj:_Toggle_UnityEngine_UI_ICanvasElement_get_transform_m4177274032
xhb:__ZN11ColorRGBA328TransferI14SafeBinaryReadEEvRT_
vc:invoke_iiiififi
t1h:__ZL86GUI_t4082743951_CustomAttributesCacheGenerator_U3CnextScrollStepTimeU3Ek__BackingFieldP21CustomAttributesCache
Rce:__ZN5physx6shdfnd5ArrayIPvNS0_19ReflectionAllocatorINS_24NpPtrTableStorageManager8PtrBlockILi4EEEEEE15growAndPushBackERKS2_
xDb:__ZN24RingBufferMemoryFileData4LockEPPv
ttf:_List_1_set_Capacity_m1734764639_gshared
Sek:_DefaultComparer__ctor_m76117625_gshared
Yna:__Z11IsHDRFormat13TextureFormat
cwk:_Bounds__ctor_m1202659404_AdjustorThunk
vh:_emscripten_glClearDepth
lkb:__ZN8Playable12SetPlayStateE9PlayState
_nj:__Z70RuntimeInvoker_Boolean_t3825574718_Il2CppObject_BooleanU26_t3168250738PK10MethodInfoPvPS2_
yqb:__ZN14SafeBinaryRead21TransferSTLStyleArrayINSt3__26vectorIN15QualitySettings14QualitySettingENS1_9allocatorIS4_EEEEEEvRT_17TransferMetaFlags
$Pj:_HashSet_1__ctor_m2858247305_gshared
vJg:_File_OpenText_m4058508963
Syk:_Collision_get_frictionForceSum_m3438602686
b5i:__Z54RuntimeInvoker_Double_t4078015681_Interval_t2354235237PK10MethodInfoPvPS2_
vzb:__ZNSt3__26vectorINS_4pairIPKN5Unity4TypeE7Hash128EENS_9allocatorIS7_EEE8__appendEj
Mmi:_WellKnownClientTypeEntry__ctor_m670594074
EJc:__Z48Register_UnityEngine_CircleCollider2D_get_radiusv
Xdi:__ZL61FontData_t2614388407_CustomAttributesCacheGenerator_m_MinSizeP21CustomAttributesCache
_6f:_DateTime_System_IConvertible_ToSingle_m3927769066_AdjustorThunk
zse:_cff_font_load
w$g:_UlongPlugin_EvaluateAndApply_m248710881
dph:_RecordProtocol_SendRecord_m2977889250
xPd:__ZN5physx35solveContactPreBlock_ConcludeStaticEPKNS_23PxcSolverConstraintDescEjRNS_16PxcSolverContextE
goa:__ZL22stbir__encode_scanlineP11stbir__infoiPvPfiii
bCl:_il2cpp_method_get_param_count
m5i:__Z84RuntimeInvoker_Void_t1841601450_Int32_t2071877448_Int32_t2071877448_SByte_t454417549PK10MethodInfoPvPS2_
Gge:__ZN20QuadTreeNodeRenderer13StaticDestroyEPv
KOj:_EqualityComparer_1_System_Collections_IEqualityComparer_Equals_m3601790950_gshared
CN:__ZN14AudioBehaviourD2Ev
v$b:__ZN9Transform12CleanupClassEv
a8k:_DelegatePInvokeWrapper_TweenCallback_t3697142134
q3l:__ZN6il2cpp6icalls8mscorlib6System9Threading16NativeEventCalls19CloseEvent_internalE12Il2CppIntPtr
Wkh:_ClientContext_set_ClientHelloProtocol_m2246603449
j2c:__ZN5physx6shdfnd5ArrayIPvNS0_15InlineAllocatorILj256ENS0_19ReflectionAllocatorINS_2Cm5BlockIS2_Lj32EEEEEEEE15growAndPushBackERKS2_
M_d:__ZN5physx18PxsSolverStartTask13setupDescTaskEv
ike:_UNITY_FT_Set_Pixel_Sizes
Hyg:_U3CMouseDragOutsideRectU3Ec__Iterator1_MoveNext_m2845491958
kVb:__ZNSt3__26vectorIN9ShaderLab19SerializedSubShaderENS_9allocatorIS2_EEE26__swap_out_circular_bufferERNS_14__split_bufferIS2_RS4_EE
nFl:__ZNK15dense_hashtableINSt3__24pairIK10KeyWrapperINS1_IPK10MethodInfoP11Il2CppClassEEEjEES9_17ReflectionMapHashIS8_EN14dense_hash_mapIS9_jSD_19ReflectionMapEqualsIS8_ENS0_9allocatorISB_EEE9SelectKeyESG_SI_E10test_emptyEj
HCl:_AnalyticsTracker_TriggerEvent_m1494303835
chj:__Z35RuntimeInvoker_LoopType_t2249218064PK10MethodInfoPvPS2_
HNh:__ZL59IChannelReceiver_t2788889625_CustomAttributesCacheGeneratorP21CustomAttributesCache
hlg:_StandaloneInputModule_IsModuleSupported_m623598506
bKc:__ZN5physx3Cct13BoxController6resizeEf
r1g:_ShortcutExtensions_DOMoveY_m3000263681
UYi:__Z31RuntimeInvoker_Byte_t3683104436PK10MethodInfoPvPS2_
hTi:_ResourceReader_Close_m3256966401
jri:_SByte_ToString_m4105923225_AdjustorThunk
rcb:_LZ4_compress_generic
hpi:_StreamingContext_t1417235061_marshal_pinvoke_cleanup
Dfg:_CultureInfo_ConstructCurrentUICulture_m3363349599
iZh:__ZL87Component_t3819376471_CustomAttributesCacheGenerator_Component_GetComponent_m3720754210P21CustomAttributesCache
FSf:__ZN21InterfaceFuncInvoker1IxP12Il2CppObjectE6InvokeEjP11Il2CppClassPvS1_
IQg:_MonoType_GetEvent_m4160342003
uSj:_RawImage_set_texture_m2400157626
Lnm:dynCall_iifffii
q0d:__ZN5physx6shdfnd5ArrayINS_2Cm12DelegateTaskINS_2Sc5SceneEXadL_ZNS5_19updateCCDSinglePassEPNS_10PxBaseTaskEEEEENS0_19ReflectionAllocatorIS8_EEE8recreateEj
XVk:_Locale_GetText_m3480617287
uue:_Dual_Project
PMj:_EqualityComparer_1__ctor_m81618677_gshared
o_a:__ZNSt3__27__sort4IRNS_6__lessI11CulledLightS2_EEPS2_EEjT0_S6_S6_S6_T_
nKl:__ZN6il2cpp2vm14TypeNameParser26ParseArrayModifierOptionalEv
A3g:_MSCompatUnicodeTable_Level3_m260824928
Cyf:_Collection_1__ctor_m3278576882_gshared
gzg:_LayoutElement_OnEnable_m3478706401
SIi:_ConstructorBuilder_get_CallingConvention_m443074051
HNl:__ZN6il2cpp6icalls8mscorlib6System10Reflection8Assembly13get_code_baseEP24Il2CppReflectionAssemblyb
Shk:_Enumerator_System_Collections_IDictionaryEnumerator_get_Entry_m487599172_gshared
ked:__ZN5physx34NpShapeGetScRigidObjectFromScbSLOWERKNS_3Scb5ShapeE
tde:__ZN5physx2Gu12TriangleMesh18setupMeshInterfaceEv
Iuj:_GUIStyle_CalcMinMaxWidth_m2027503105
Y8i:__Z135RuntimeInvoker_RaycastHit2D_t4063908774_Vector2_t2243707579_Vector2_t2243707579_Single_t2076509932_Int32_t2071877448_Single_t2076509932PK10MethodInfoPvPS2_
G6k:_U3CU3Ec__DisplayClass68_0__ctor_m3225124398
VEg:_Int32_FindExponent_m3187554672
xta:__ZN13GfxDeviceGLES29RenderSurfaceStructMemorySizeEb
E8g:_KeyPairPersistence_Load_m1355205585
SUj:_ScrollRect_get_horizontalScrollbarVisibility_m4152068235
XFg:_Int32_ToString_m2960866144_AdjustorThunk
twl:__ZN15dense_hashtableI10KeyWrapperIPK19Il2CppGenericMethodES4_N6il2cpp8metadata23Il2CppGenericMethodHashEN14dense_hash_setIS4_S7_NS6_26Il2CppGenericMethodCompareENSt3__29allocatorIS4_EEE8IdentityES9_SC_E12maybe_shrinkEv
vwi:_TweenerCore_3_SetFrom_m4270264951_gshared
f1k:_Predicate_1_Invoke_m3539717340_gshared
f0k:_Nullable_1_ToString_m1180746670_AdjustorThunk
qOh:__ZL83MethodDictionary_t1742974787_CustomAttributesCacheGenerator_U3CU3Ef__switchU24map21P21CustomAttributesCache
b6c:__ZNK5physx21PxsBodyTransformVault12getTransformERKNS_11PxsBodyCoreE
jkj:__Z57RuntimeInvoker_Int32_t2071877448_RaycastHit2D_t4063908774PK10MethodInfoPvPS2_
hYl:__ZN6il2cpp6icalls8mscorlib6System11Environment15internalGetHomeEv
Lbj:__Z90RuntimeInvoker_Il2CppObject_Il2CppObject_Il2CppObject_Int32_t2071877448_Single_t2076509932PK10MethodInfoPvPS2_
uTb:__ZN9ShaderLab26SerializedShaderDependencyC2ERKS0_
Rvl:__ZN13dynamic_arrayIPK10Il2CppTypeLj4EE4backEv
xdb:__ZNK5Unity9Component7GetNameEv
nmj:__Z49RuntimeInvoker_Slot_t2267560602_Int32_t2071877448PK10MethodInfoPvPS2_
wAl:__ZNSt3__214__split_bufferIN6il2cpp6icalls8mscorlib6System12PropertyPairERNS_9allocatorIS5_EEEC2EjjS8_
qra:__ZN13RenderTexture9SetActiveEPS_i11CubemapFaceij
xUh:__ZL79Convert_t2607082565_CustomAttributesCacheGenerator_Convert_ToUInt16_m2130758075P21CustomAttributesCache
YLc:__ZN44ConvexVsHeightfieldContactGenerationCallback7onEventEjPj
crg:__ZN18VirtActionInvoker1IP22GameObject_t1756533147E6InvokeEjPvS1_
tVh:__ZL58IFormatProvider_t2849799027_CustomAttributesCacheGeneratorP21CustomAttributesCache
Rhl:_ObjectPool_1_Get_m3724675538_gshared
C$:__Z27LogRepeatingStringWithFlagsRKNSt3__212basic_stringIcNS_11char_traitsIcEENS_9allocatorIcEEEE15LogMessageFlagsi
v3a:__ZN13ScreenManagerD0Ev
POa:_UNITY_png_set_error_fn
Oq:FUNCTION_TABLE_diiii
vhm:__ZNKSt3__27codecvtIwc11__mbstate_tE5do_inERS1_PKcS5_RS5_PwS7_RS7_
FBc:__ZNK11b2RopeJoint16GetReactionForceEf
hC:__ZN7mecanim8skeleton26SkeletonPoseComputeGlobalQEPKNS0_8SkeletonEPKNS0_13SkeletonPoseTIN4math4trsXEEEPS7_ii
stg:_Graphic_UnregisterDirtyMaterialCallback_m819829270
juc:__ZN8JSONRead21TransferSTLStyleArrayI13dynamic_arrayIfLj4EEEEvRT_18MemLabelIdentifier17TransferMetaFlags
gc:invoke_fiiiffffi
Woc:__ZN11IMGUIModule18MonoBehaviourDoGUIEiR14ObjectGUIStateN13MonoBehaviour13GUILayoutTypeEi21ScriptingMethodIl2Cpp4PPtrIS2_E
qnf:_List_1_GetEnumerator_m2672519407_gshared
GB:__ZN9BlobWrite8TransferI22OffsetPtrArrayTransferIiEEEvRT_PKc17TransferMetaFlags
JWg:_DOTween_ToArray_m2997520276
l3g:_ContractionComparer_Compare_m314873025
Pxf:_Collection_1_IsFixedSize_m1690655146_gshared
kLe:_Tweener_DoStartup_TisColor_t2020392075_TisColor_t2020392075_TisColorOptions_t2213017305_m822152612_gshared
iKb:__Z18Transfer_BlittableI17RemapPPtrTransferLb1EjEvRK29SerializationCommandArgumentsR31RuntimeSerializationCommandInfo
yvj:_GUIUtility_EndGUIFromException_m2091524531
M6c:__ZN5physx6shdfnd5ArrayIPvNS0_15InlineAllocatorILj256ENS0_19ReflectionAllocatorINS_11NpAggregateEEEEEE15growAndPushBackERKS2_
nGg:_Int64_System_IConvertible_ToDouble_m638786774
Gvd:__ZNK5physx14NpRigidDynamic21getMaxAngularVelocityEv
Fzi:_TweenerCore_3_ChangeEndValue_m2737049315_gshared
fK:__ZN4FMOD6System7releaseEv
DJd:__ZN5physx6shdfnd8PoolBaseINS_2Sc18TriggerInteractionENS0_19ReflectionAllocatorIS3_EEE15disposeElementsEv
y$f:_HashKeys_get_IsSynchronized_m4207641174
hNb:__Z18Transfer_BlittableI19StreamedBinaryWriteILb0EELb1E8BitFieldEvRK29SerializationCommandArgumentsR31RuntimeSerializationCommandInfo
WZg:_StringOptions_t2885323933_marshal_pinvoke
gDi:_InternalEnumerator_1__ctor_m3441346029_AdjustorThunk
Wde:__ZN5physx28PxcContactCapsuleHeightFieldERKNS_2Gu13GeometryUnionES3_RKNS_11PxTransformES6_RKfRNS_10PxcNpCacheERNS0_13ContactBufferE
k3e:_SymmetricAlgorithm_get_Padding_m718051685
f_:__ZN26RecursivePlayableTraverser8TraverseER9FrameDataP8PlayableS3_P14DirectorPlayeriPvf
lCe:__ZN21UnityAnalyticsManager15ThreadedCleanupEv
akb:__ZN15DirectorManager18ScheduleForRemovalEP18PlayableController
TLc:__ZL31PointInConvexPolygon2D_OutCodesPKfjffffRh
Rtd:__ZN5physx22NpParticleBaseTemplateINS_16PxParticleSystemENS_16NpParticleSystemEE18setDynamicFrictionEf
Hhc:__Z22Mesh_CUSTOM_HasChannelP12Il2CppObject30InternalScriptingShaderChannel
z4i:__Z102RuntimeInvoker_Il2CppObject_Il2CppObject_Il2CppObject_Il2CppObject_Int32_t2071877448_Int32_t2071877448PK10MethodInfoPvPS2_
bC:__Z28SetExposedSkeletonTransformsRKN11UnityEngine9Animation30AnimatorGenericBindingConstantERKN7mecanim8skeleton13SkeletonPoseTIN4math4trsXEEERKNS6_INS7_7affineXEEERNS0_21AvatarBindingConstantE
jkb:__ZN8Playable11SetDurationEd
Z9c:__ZN5physx2Sc21ArticulationJointCore21setInternalComplianceEf
uTh:__ZL76Convert_t2607082565_CustomAttributesCacheGenerator_Convert_ToChar_m541258017P21CustomAttributesCache
bge:__ZN9Rigidbody12MoveRotationERK11Quaternionf
u8d:__ZNK5physx6shdfnd10Foundation13getErrorLevelEv
fql:__ZL25UnresolvedVirtualCall_280P12Il2CppObjectiPK10MethodInfo
eEa:__ZN16GeometryJobTasks20ScheduleGeometryJobsER9GfxDevicePFvP15GeometryJobDataEPK22GeometryJobInstructionjb
muj:_GUIUtility_Internal_GetHotControl_m2510727642
gI:__ZN12AudioManager29ShutdownReinitializeAndReloadEv
XSk:_NetscapeCertTypeExtension_Decode_m2210025005
_Vh:__ZL59StringComparison_t2376310518_CustomAttributesCacheGeneratorP21CustomAttributesCache
A1d:__ZN5physx2Cm12DelegateTaskINS_2Sc5SceneEXadL_ZNS3_15postNarrowPhaseEPNS_10PxBaseTaskEEEE11runInternalEv
Pee:__Z20ConvertContactToMonoP9Collision
Wpl:__ZL25UnresolvedVirtualCall_269P12Il2CppObjectiPK10MethodInfo
XDj:_RectTransform_GetLocalCorners_m1836626405
Vmi:_BaseFixupRecord_DoFixup_m1821597450
AJg:_FileLoadException__ctor_m1356374414
akh:_TlsStream_Reset_m1504601050
r_g:_PathPlugin_SetChangeValue_m2144720161
hbc:__Z29GetGlobalAllowNameConversionsv
SLc:__ZL17transformVerticesRfS_S_S_PfjPKN5physx6PxVec3EPKhRKNS1_7PxMat33E
$de:__ZNK5physx2Gu15HeightFieldUtil31getFaceIndexAtShapePointNoTest2Ejff
z4b:__ZN8Material8SetColorEN9ShaderLab16FastPropertyNameERK10ColorRGBAf
bO:__ZN9AudioClip27IsFormatSupportedByPlatformERKNSt3__212basic_stringIcNS0_11char_traitsIcEENS0_9allocatorIcEEEE
XWd:__ZN5physx6shdfnd5ArrayIPNS_14PxLightCpuTaskENS0_13TempAllocatorEE6resizeEjRKS3_
yPi:_Module_GetCustomAttributes_m3581287913
oHh:__ZL67Type_t_CustomAttributesCacheGenerator_Type_IsSubclassOf_m2450899481P21CustomAttributesCache
aM:__ZN11AudioSource23VirtualRedirectTransferER18StreamedBinaryReadILb0EE
_e:___syscall91
VOl:__ZN13dynamic_arrayIP12Il2CppObjectLj4EE20resize_uninitializedEjb
da:invoke_iiiddfi
EKd:__ZNK5physx2Sq10AABBPruner5sweepERKNS0_9ShapeDataERKNS_6PxVec3ERfRNS0_14PrunerCallbackE
OMb:__ZN10RectOffset8TransferI19StreamedBinaryWriteILb0EEEEvRT_
S0:__ZL41AssemblyNameMatchesWithOrWithoutExtensionPKcS0_
bcb:__ZN21ArchiveStorageCreatorC2Ev
CFd:__ZN5physx2Sc5Scene21fireCallBacksPostSyncEv
avk:_AssemblyIsEditorAssembly__ctor_m2639706522
OBa:__ZN14GfxContextGLES43AddRenderSurfaceToDeferredFBOInvalidateListEPK17RenderSurfaceGLES
yul:__ZN15dense_hashtableINSt3__24pairIK10KeyWrapperINS0_12basic_stringIcNS0_11char_traitsIcEENS0_9allocatorIcEEEEEP11Il2CppClassEES9_N6il2cpp5utils11StringUtils12StringHasherIS8_EEN14dense_hash_mapIS9_SC_SI_NS0_8equal_toIS9_EENS6_ISD_EEE9SelectKeyESL_SM_EC2EjRKSI_RKSL_RKSO_
iMd:__ZN5physx17PxsCCDAdvanceTask11runInternalEv
Rda:__ZN11NamedObject23VirtualRedirectTransferER14SafeBinaryRead
bBh:_BaseMachine_RTLReplace_m25431723
pwl:__ZN15dense_hashtableI10KeyWrapperIPK19Il2CppGenericMethodES4_N6il2cpp8metadata23Il2CppGenericMethodHashEN14dense_hash_setIS4_S7_NS6_26Il2CppGenericMethodCompareENSt3__29allocatorIS4_EEE8IdentityES9_SC_E15insert_noresizeERKS4_
Xje:__ZNSt3__26vectorIN20TextRenderingPrivate8FontImpl13CharacterInfoE13stl_allocatorIS3_L18MemLabelIdentifier1ELi16EEE6insertENS_11__wrap_iterIPKS3_EERS9_
Vka:__ZN23PreloadManagerOperation6IsDoneEv
v9a:__ZN15SerializeTraitsINSt3__24pairI8UnityStrN11AssetBundle9AssetInfoEEEE8TransferI19StreamedBinaryWriteILb0EEEEvRS5_RT_
mch:_X509Certificate_get_RawData_m3000055075
Nrl:__ZNSt3__26vectorIPK10Il2CppTypeNS_9allocatorIS3_EEE21__push_back_slow_pathIRKS3_EEvOT_
S5b:__Z33GetHasChangedDeprecatedSystemMaskv
YUl:__ZN6il2cpp5utils11StringUtils11Utf16ToUtf8ERKNSt3__212basic_stringIDsNS2_11char_traitsIDsEENS2_9allocatorIDsEEEE
yPk:_BaseInvokableCall_ThrowOnInvalidArg_TisIl2CppObject_m1349548392_gshared
jWc:__ZN5physx3Cct26CharacterControllerManagerD2Ev
Ghk:_Enumerator_VerifyState_m1165543189_AdjustorThunk
G7f:_DateTime_AddSeconds_m722082155_AdjustorThunk
NYf:_SynchronizedArrayListWrapper_CopyTo_m956887031
jfk:_Comparer_1__ctor_m1202126643_gshared
Toa:__ZN21LightProbeProxyVolume18HasHardwareSupportEv
fWa:__ZN26LightProbeProxyVolumeCacheC2ER13BatchRendererR15RenderLoopStats
aia:__ZN6prcoreL31inner_stretch_argb8888_bilinearEPKNS_9InnerInfoE
RQb:__Z18Transfer_BlittableI18StreamedBinaryReadILb1EELb1E8BitFieldEvRK29SerializationCommandArgumentsR31RuntimeSerializationCommandInfo
Iai:__ZL82Extensions_t507052800_CustomAttributesCacheGenerator_Extensions_NoFrom_m2168138502P21CustomAttributesCache
Bme:_UNITY_FT_Outline_Decompose
dll:__ZL23UnresolvedVirtualCall_8P12Il2CppObjectS0_S0_PK10MethodInfo
inh:_TlsClientCertificate_get_ClientCertificate_m3062440489
$Hk:_StringFreezingAttribute__ctor_m2135695937
j5e:_StrongNamePublicKeyBlob_ToString_m3721281223
Nq:FUNCTION_TABLE_iiiififi
J3h:__ZL80UnityEvent_t408735097_CustomAttributesCacheGenerator_UnityEvent__ctor_m588741179P21CustomAttributesCache
kEi:_InternalEnumerator_1_get_Current_m198513457_AdjustorThunk
LLd:__ZN5physx6shdfnd8internal8HashBaseINS0_4PairIKNS3_IPKNS_12PxsRigidCoreEPKNS_12PxsShapeCoreEEEPNS_11PxsCCDShapeEEESA_NS0_4HashISA_EENS1_11HashMapBaseISA_SD_SG_NS0_9AllocatorEE6GetKeyESI_Lb1EE15reserveInternalEj
qak:_InternalEnumerator_1__ctor_m1240086835_AdjustorThunk
aS:__ZN11UnityEngine15CloudWebService10RestClientINS0_16WWWRestHeaderMapEED2Ev
fec:__Z31Display_CUSTOM_GetSystemExtImpl13Il2Cpp_IntPtrPiS0_
Jmc:__Z58Register_UnityEngine_Object_Internal_CloneSingleWithParentv
pDg:_TextInfo_ToUpper_m299550697
Qik:_ShimEnumerator_get_Entry_m2332479818_gshared
sGd:__ZN5physx2Sc5Scene21setDominanceGroupPairEhhRKNS_20PxDominanceGroupPairE
QNf:_ReadOnlyCollection_1_System_Collections_IList_Contains_m4073811941_gshared
ela:__ZN23PreloadManagerOperation21MustCompleteNextFrameEv
vsg:_Graphic_OnRectTransformDimensionsChange_m1610753363
C5f:_Convert_ToUInt16_m3265369225
O:Math_exp
iQg:_MonoEnumInfo_get_Cache_m3551569711
Ip:FUNCTION_TABLE_iiifi
NVl:__ZN6il2cpp2os5posix13PosixAutoLockD2Ev
gNe:_Array_InternalArray__ICollection_Contains_TisVector3_t2243707580_m3625701788_gshared
Yqa:__ZNSt3__26vectorINS_4pairIyP17VertexDeclarationEENS_9allocatorIS4_EEE6insertENS_11__wrap_iterIPKS4_EERS9_
fCl:_il2cpp_object_get_virtual_method
kGf:_ReadOnlyCollection_1_System_Collections_IList_set_Item_m3877370174_gshared
Jqe:_cff_get_advances
RRa:__ZNK17MeshRenderingData30ExtractMeshBuffersAndDrawRangeEjiR11MeshBuffersR16DrawBuffersRangeb
hme:_UNITY_FT_Create_Class_sfnt_module_class
TYj:_Text_CalculateLayoutInputHorizontal_m1578553982
m$h:__ZL87Object_t1021602117_CustomAttributesCacheGenerator_Object_DestroyObject_m282495858____t1P21CustomAttributesCache
PWl:__ZNSt3__218uninitialized_copyIPNS_4pairIK10KeyWrapperIP14Il2CppIUnknownEjEES8_EET0_T_SA_S9_
Knf:_List_1__ctor_m3261706538_gshared
Sxd:__ZN5physx7NpScene12loadFromDescERKNS_11PxSceneDescE
_9f:_Decimal_IsZero_m3557909184_AdjustorThunk
nWf:_Char_ToString_m1401375624
W_e:_MD5CryptoServiceProvider__cctor_m3309191799
SX:__ZNK10FileSystem16LastErrorMessageEv
$qf:__ZN21InterfaceFuncInvoker0I20UIVertex_t1204258818E6InvokeEjP11Il2CppClassPv
PCh:_InterpreterFactory_get_NamesMapping_m3186583301
zKk:_ConfigHandler_ReadCustomProviderData_m784203316
jff:_Enumerator_System_Collections_IEnumerator_Reset_m3052395060_gshared
BHe:__ZN22UnityWebRequestManager10InitializeEv
M9a:__ZN17PersistentManager24GetTypeFromPathAndFileIDERKNSt3__212basic_stringIcNS0_11char_traitsIcEENS0_9allocatorIcEEEEx
ufh:_Kernel_DwordDivMod_m3728402123
vEb:__ZN13MonoBehaviour13AwakeFromLoadE17AwakeFromLoadMode
QEc:__ZN16CircleCollider2D14CreateInternalEP11Rigidbody2D
aKb:__ZL26Transfer_SimpleNativeClassI17RemapPPtrTransfer8GradientLb1EEvRK29SerializationCommandArgumentsR31RuntimeSerializationCommandInfo
e6b:__ZN12CachedWriter9InitWriteER15CacheWriterBase
enc:__Z21UnsignedInt64ToStringy
m_j:_UTF7Decoder__ctor_m549434986
qGd:__ZN5physx14PxsAABBManager15createAggregateEPvb
Uck:_InternalEnumerator_1_get_Current_m1025321669_AdjustorThunk
fzf:_Collection_1_get_Count_m224768946_gshared
mAj:_Object_t1021602117_marshal_pinvoke
dic:__Z36MonoBehaviour_CUSTOM_InvokeRepeatingP12Il2CppObjectP12Il2CppStringff
xfl:_WaitForSecondsRealtime_get_keepWaiting_m741039114
jmc:__Z66Register_UnityEngine_Transform_INTERNAL_CALL_InverseTransformPointv
IFi:_InternalEnumerator_1_MoveNext_m2720582493_gshared
FVk:_X509CrlEntry_get_RevocationDate_m1257876856
Kpb:__ZN12LineRenderer8TransferI14SafeBinaryReadEEvRT_
Bb:invoke_iiiiifiiiif
EVk:_X509Crl_VerifySignature_m1390212587
KBh:_Group__ctor_m4103922028
_Oa:__ZN6Camera26ClearIntermediateRenderersEj
Lyl:__ZNSt3__214__split_bufferI6pollfdRNS_9allocatorIS1_EEEC2EjjS4_
qOa:_UNITY_png_write_pCAL
Gym:_glLinkProgram__wrapper
Hia:__ZN6prcoreL12RemapGenericI17TexFormatARGB888815TexFormatBGR888EEvPKNS_9InnerInfoE
a$e:_MD5CryptoServiceProvider_ProcessFinalBlock_m1052610785
bZf:_BitArray_Set_m2878881714
kwi:_TweenerCore_3_Reset_m387790262_gshared
Kfc:__Z39TrailRenderer_Get_Custom_PropStartWidthP12Il2CppObject
yDf:_Collection_1_get_Item_m4215988522_gshared
ekd:__ZN5physx7NpShape8requiresERNS_23PxProcessPxBaseCallbackE
DOl:__ZN6il2cpp6icalls8mscorlib6System13Globalization11CultureInfo35construct_internal_locale_from_nameEP17Il2CppCultureInfoP12Il2CppString
uVi:__Z58RuntimeInvoker_Il2CppObject_Int32_t2071877448_Il2CppObjectPK10MethodInfoPvPS2_
Vxf:__ZN18VirtActionInvoker2Ii40CustomAttributeTypedArgument_t1498197914E6InvokeEjPviS0_
hLb:__ZL22Transfer_ManagedObjectI24GenerateTypeTreeTransferLb1EEvRK29SerializationCommandArgumentsR31RuntimeSerializationCommandInfo
BMh:__ZL55COMException_t1790481504_CustomAttributesCacheGeneratorP21CustomAttributesCache
_6g:_ASN1_get_Count_m404940548
TLk:_ContextAttribute_Equals_m53324298
Lxg:_InputField_MoveLeft_m688575903
Jl:_emscripten_set_main_loop_timing
qa:invoke_iiifffi
gec:__Z34Display_CUSTOM_GetRenderingExtImpl13Il2Cpp_IntPtrPiS0_
ovl:__ZN15dense_hashtableINSt3__24pairIK10KeyWrapperI13dynamic_arrayIPK10Il2CppTypeLj4EEEPFvvEEES8_N6il2cpp8metadata19Il2CppSignatureHashEN14dense_hash_mapIS8_SB_SF_NSE_22Il2CppSignatureCompareENS0_9allocatorISC_EEE9SelectKeyESH_SJ_E12resize_deltaEjj
h8j:_WeakReference_AllocateHandle_m1783929473
W9c:__ZN5physx2Sc21ArticulationJointCore22setTangentialStiffnessEf
F1g:_ShortcutExtensions_DOScaleZ_m1484201804
Hee:__ZN14CompletionTask22ProcessAllPhysicsTasksEv
Q1a:__ZN14ImageReference10FlipImageYEv
BBk:_DebugLogHandler_LogFormat_m177245518
Yfm:__ZNKSt3__210moneypunctIwLb0EE11do_groupingEv
xfb:__Z32TransferEnumWithNameForceIntSizeI14SafeBinaryRead13TargetEyeMaskEvRT_RT0_PKc17TransferMetaFlags
Poc:__Z14GetDefaultSkini
Ffg:_CultureInfo_get_Name_m3316229893
w7f:_DateTime_get_Ticks_m310281298_AdjustorThunk
CF:__ZN4FMOD3DSP9setBypassEb
HEf:_Collection_1_System_Collections_IList_get_Item_m287847793_gshared
p8a:__Z19NormalizeWheelInputf
wBh:_CaptureCollection_CopyTo_m1982767892
o5a:__Z29StdTemplateConversionFunctionIsaEbPvR14SafeBinaryRead
pNe:_Array_InternalArray__ICollection_Remove_TisLink_t865133271_m1984184141_gshared
wuc:__Z29Transfer_Blittable_ArrayFieldI8JSONReadhEvRT_R9ArrayInfoRK23StaticTransferFieldInfo
Pzg:_LayoutRebuilder_IsDestroyed_m3442208294
b9b:__ZN11MonoManager25GetImageFromAssemblyIndexEi
Fod:__ZN5physx2Sc9ClothCore17addCollisionPlaneERKNS_21PxClothCollisionPlaneE
STi:__Z123RuntimeInvoker_Void_t1841601450_Int32U26_t455636984_Il2CppObject_Il2CppObject_BooleanU26_t3168250738_BooleanU26_t3168250738PK10MethodInfoPvPS2_
XLa:__ZZ23InitPlayerLoopCallbacksvEN43PostLateUpdateClearImmediateRenderersstruct7ForwardEv
Jd:invoke_iiidfii
BJg:_FileLoadException__ctor_m918124939
$l:___syscall85
R3d:__ZNK5physx13PxHeightField8isKindOfEPKc
AWf:__ZN18VirtActionInvoker1IP12Il2CppObjectE6InvokeEjPvS1_
KSa:__ZNSt3__26__sortIRPFbP10GUIElementS2_EPS2_EEvT0_S7_T_
cgh:_SequentialSearchPrimeGeneratorBase_GenerateSearchBase_m2930465198
t3b:__ZN16GraphicsSettings12CleanupClassEv
_L:__ZNK11AudioSource26GetTypeInfoVirtualInternalEv
zRk:_Array_InternalArray__get_Item_TisContactPoint2D_t3659330976_m825151777_gshared
Jsh:__ZN23InterfaceActionInvoker2IP12Il2CppObjectS1_E6InvokeEjP11Il2CppClassPvS1_S1_
Crl:__ZN6il2cpp2vmL21SetupInterfacesLockedEP11Il2CppClassRKNS_2os12FastAutoLockE
eqd:__ZNK5physx15NpActorTemplateINS_15PxParticleFluidEE12getAggregateEv
s1d:__ZNK5physx2Sc18ParticleSystemCore16getInternalFlagsEv
GZk:_SingleGear0_Start_m3051389700
mBh:_Capture__ctor_m885749277
dgj:__Z107RuntimeInvoker_Single_t2076509932_Il2CppObject_Il2CppObject_Single_t2076509932_ILayoutElementU26_t440254879PK10MethodInfoPvPS2_
Jvg:_SubmitEvent__ctor_m222860306
QUc:__ZN16ControllerFilter9preFilterERKN5physx12PxFilterDataEPKNS0_7PxShapeEPKNS0_12PxRigidActorERNS0_7PxFlagsINS0_9PxHitFlag4EnumEtEE
oR:__ZN11UnityEngine15CloudWebService14DataDispatcher15SetupWebRequestEv
j0i:__Z94RuntimeInvoker_Int32_t2071877448_Il2CppObject_Int32_t2071877448_Il2CppObject_Int32_t2071877448PK10MethodInfoPvPS2_
_Ng:_TextWriter__cctor_m4047845042
z$b:__ZN13TrailRenderer26RendererCullingOutputReadyEPP12BaseRendererjPK6CameraRK10Matrix4x4f
Cph:_ReceiveRecordAsyncResult_get_Record_m1336421357
uEe:__ZN11UnityEngine15PlatformWrapper13GetShaderCapsEv
eRe:__ZN16VirtFuncInvoker2IbP12Il2CppObjectS1_E6InvokeEjPvS1_S1_
DRd:__ZN16MBPOS_TmpBuffers16allocateSleepingEjj
rTh:__ZL76Convert_t2607082565_CustomAttributesCacheGenerator_Convert_ToByte_m509311047P21CustomAttributesCache
bwg:_InputField_CaretBlink_m3960486606
Ml:_emscripten_glGetProgramiv
gLb:__Z65EmitSerializationCommandsForLinearCollectionOfManagedObjectsFieldI24GenerateTypeTreeTransferEvRK23TransferArrayField_InfoR20SerializationCommandR32SerializationCommandQueueBuilderRP20AllowNameConversions
oLk:__ZN23InterfaceActionInvoker3IP12Il2CppObjectbbE6InvokeEjP11Il2CppClassPvS1_bb
c9g:_SmallXmlParser_ReadCharacters_m1966365555
krh:_InternalAsyncResult_get_CompletedWithError_m3993955322
_3b:__ZN21FixedBehaviourManager6UpdateEv
D7b:__ZN9Transform9SetParentEPS_NS_15SetParentOptionE
kIf:_ReadOnlyCollection_1_System_Collections_IList_Add_m527174473_gshared
b$k:_Nullable_1_get_HasValue_m452362759_AdjustorThunk
dje:__ZNK20TextRenderingPrivate7FontRefltERKS0_
ima:__ZN19RuntimeSceneManager24BeginIntegrateMainThreadEP10UnityScene
z5i:__Z42RuntimeInvoker_RuntimePlatform_t1869584967PK10MethodInfoPvPS2_
J7c:__ZN5physx14NpArticulation26setExternalDriveIterationsEj
uMc:__ZN16RayRTreeCallbackILi0ELb0EED0Ev
G3i:__Z80RuntimeInvoker_Void_t1841601450_Il2CppObject_Int32_t2071877448_Int16_t4041245914PK10MethodInfoPvPS2_
$Wd:__ZN5physx20PxsParticleSystemSim23scheduleCollisionUpdateERNS_10PxBaseTaskE
m_l:__ZNSt3__2plIcNS_11char_traitsIcEENS_9allocatorIcEEEENS_12basic_stringIT_T0_T1_EERKS9_S6_
D_i:__Z53RuntimeInvoker_MonoEventInfo_t2190036573_Il2CppObjectPK10MethodInfoPvPS2_
TOg:_LocalDataStoreSlot__cctor_m1192669356
QUb:__ZN9ShaderLab20SerializedSubProgramaSERKS0_
dmm:_roundf
Taf:_String_CreateString_m2556700934
$kf:_List_1_System_Collections_Generic_ICollectionU3CTU3E_get_IsReadOnly_m1394164374_gshared
Heb:__ZN18StreamedBinaryReadILb0EE21TransferSTLStyleArrayINSt3__26vectorI17SortingLayerEntryNS2_9allocatorIS4_EEEEEEvRT_17TransferMetaFlags
Qsh:__ZN23InterfaceActionInvoker1IP12Il2CppObjectE6InvokeEjP11Il2CppClassPvS1_
r0h:__ZL80Physics_t634932869_CustomAttributesCacheGenerator_Physics_RaycastAll_m3650851272P21CustomAttributesCache
GXc:__ZN5physx15PxBoxControllerD0Ev
mv:__ZN8Animator15SetPrepareStageEv
EXj:_Slider_get_axis_m162140813
oQi:_MonoEventInfo_t2190036573_marshal_pinvoke
Drl:__ZN6il2cpp2vmL24SetupTypeHierarchyLockedEP11Il2CppClassRKNS_2os12FastAutoLockE
xEl:__ZN15dense_hashtableINSt3__24pairIK10KeyWrapperIPK10Il2CppTypeEjEES6_N6il2cpp8metadata14Il2CppTypeHashEN14dense_hash_mapIS6_jSB_NSA_17Il2CppTypeCompareENS0_9allocatorIS8_EEE9SelectKeyESD_SF_E4findERS7_
tWa:__Z20CalculateLightMatrixRK15SharedLightDataP10Matrix4x4f
_Vj:_ScrollRect_SetLayoutHorizontal_m3486408020
zje:_destroy_face
IPj:_GenericEqualityComparer_1_GetHashCode_m116190842_gshared
mKh:__ZL55StreamWriter_t3858580635_CustomAttributesCacheGeneratorP21CustomAttributesCache
cYc:__ZN5physx19PxAllocatorCallbackD2Ev
Q2l:__ZN6il2cpp6icalls8mscorlib6System8Security12Cryptography24RNGCryptoServiceProvider13RngInitializeEP11Il2CppArray
Orf:_List_1_System_Collections_ICollection_get_IsSynchronized_m227393674_gshared
avh:_IPAddress__cctor_m3624830012
rtd:__ZNK5physx15NpActorTemplateINS_16PxParticleSystemEE17getDominanceGroupEv
UM:__ZN20SoundChannelInstance7setMuteEb
wXj:_Slider_Rebuild_m3442875945
xjb:__ZN4PPtrI5LightE8TransferI19StreamedBinaryWriteILb0EEEEvRT_
cWc:__ZN5physx3Cct26CharacterControllerManager21createObstacleContextEv
X0h:__ZL115AnimatorStateInfo_t2577870592_CustomAttributesCacheGenerator_AnimatorStateInfo_t2577870592____nameHash_PropertyInfoP21CustomAttributesCache
Wwh:_AsnEncodedData_EnhancedKeyUsageExtension_m1452131166
yfm:__ZNSt3__210moneypunctIcLb0EED2Ev
Nfi:__ZL69Scrollbar_t3248359358_CustomAttributesCacheGenerator_m_OnValueChangedP21CustomAttributesCache
wRb:__Z19TransferField_ArrayI18StreamedBinaryReadILb1EE27Converter_SimpleNativeClassI17AnimationCurveTplIfEEEvRK23StaticTransferFieldInfoR31RuntimeSerializationCommandInfoRT0_
Thl:_KeyValuePair_2__ctor_m3201181706_gshared
mIc:__ZN7b2World18SetContactListenerEP17b2ContactListener
Msd:__ZN5physx15NpActorTemplateINS_15PxParticleFluidEE7releaseEv
QBh:_GroupCollection_get_IsSynchronized_m1100663675
Wxa:__ZN18GfxFramebufferGLES22MakeCurrentFramebufferENS_7BuiltinE
M2l:__ZN6il2cpp2vm12MarshalAlloc4FreeEPv
pCh:_Interpreter_Close_m1500459069
cAd:__ZN5physx6shdfnd5ArrayIPNS_2Sc19ShapeInstancePairLLENS0_19ReflectionAllocatorIS4_EEE15growAndPushBackERKS4_
Xnf:_List_1_System_Collections_ICollection_get_SyncRoot_m690028787_gshared
tBb:__ZN30RuntimeInitializeOnLoadManager23VirtualRedirectTransferER18StreamedBinaryReadILb1EE
ada:__ZN12CachedReader4ReadEPvj
OQd:__ZN5physx21MBPPostUpdateWorkTaskD0Ev
xwi:_TweenerCore_3_Reset_m1606553284_gshared
dre:_cf2_blues_init
Xbd:__ZN5physx2Sc8BodyCore24clearSpatialAccelerationEbb
Wsk:_CustomEventData_Add_m881214524
oEi:_InternalEnumerator_1_System_Collections_IEnumerator_get_Current_m3600601141_gshared
Y1e:_SHA1Internal_HashFinal_m3188468925
Rel:_Vector3_op_Inequality_m799191452
Z9h:__ZL117U3CWaitForCompletionU3Ed__13_t639731943_CustomAttributesCacheGenerator_U3CWaitForCompletionU3Ed__13__ctor_m1500940881P21CustomAttributesCache
wWa:__Z24CalculateLightShadowFadeRK6CamerafffR8Vector4f
Y0:__ZN19RuntimeSceneManagerD2Ev
qWh:__ZL55HeaderHandler_t324204131_CustomAttributesCacheGeneratorP21CustomAttributesCache
FJk:_ChannelData_get_CustomProperties_m1470957369
EEl:__ZNK15dense_hashtableINSt3__24pairIK10KeyWrapperIPK10Il2CppTypeEjEES6_N6il2cpp8metadata14Il2CppTypeHashEN14dense_hash_mapIS6_jSB_NSA_17Il2CppTypeCompareENS0_9allocatorIS8_EEE9SelectKeyESD_SF_E12test_deletedEj
$ha:__ZN6prcore17GetIntegerBlitterE13TextureFormatS0_N14ImageReference8BlitModeE
Xzd:__ZN5physx10PxsContext20createContactManagerERKNS_24PxvManagerDescRigidRigidEPNS_18PxsMaterialManagerE
iDc:__ZN13BoxCollider2DD0Ev
X5k:_U3CU3Ec__DisplayClass56_0_U3CDOScaleYU3Eb__1_m2853412445
eik:_Enumerator_VerifyState_m3173176371_AdjustorThunk
iyd:__ZN5physx2Cm12DelegateTaskINS_7NpSceneEXadL_ZNS2_12executeSolveEPNS_10PxBaseTaskEEEED0Ev
bNc:__ZN5physx2GuL18gPCMHullPrefetchCBEjPKNS_6PxVec3E
S1c:__ZN5physx2Sc5Scene31removeActiveBreakableConstraintEPNS0_13ConstraintSimE
aHg:_Int64_ToString_m1275187741
duh:_TypeConverterAttribute__cctor_m506796812
Hcf:_Encoding_get_IsReadOnly_m3729101432
gbc:__ZN9BlobWrite14ReduceCopyImplERK14ReduceCopyDataj
psi:_DESTransform_CipherFunct_m3559419566
pfk:_Comparer_1_System_Collections_IComparer_Compare_m1790257529_gshared
Boj:__Z37RuntimeInvoker_Enumerator_t3220004478PK10MethodInfoPvPS2_
rPi:_MethodInfo_get_ContainsGenericParameters_m572340060
XBc:__ZNK12b2WheelJoint10GetAnchorAEv
tEd:__ZN5physx6shdfnd5ArrayINS_12PxActorShapeENS0_19ReflectionAllocatorIS2_EEE15growAndPushBackERKS2_
nJa:__ZN25MultiBlocksMemoryFileData17AdjustBlocksCountEj
raa:__ZNK22BuiltinResourceManager11GetResourceEPKN5Unity4TypeERKNSt3__212basic_stringIcNS4_11char_traitsIcEENS4_9allocatorIcEEEE
Gpm:dynCall_fffff
blh:_TlsClientHello__ctor_m1699671541
Che:__ZN13TextRendering4Font8TransferI24GenerateTypeTreeTransferEEvRT_
B7:__ZN17CommonStringTableC2Ev
mLk:_Context_NotifyGlobalDynamicSinks_m2916447645
Vdc:__Z27CullingGroup_CUSTOM_DisposeP12Il2CppObject
UBj:_Random_Range_m2884721203
sOl:__ZN6il2cpp6icalls8mscorlib6SystemL23CheckWideningConversionEjjj
Kkj:__Z48RuntimeInvoker_Void_t1841601450_Mark_t2724874473PK10MethodInfoPvPS2_
lqj:_GUILayoutEntry_ApplyStyleSettings_m371609721
Ggd:__ZN5physx2Sc14ConstraintCore8setFlagsENS_7PxFlagsINS_16PxConstraintFlag4EnumEtEE
ZBf:_Collection_1_Remove_m1798559666_gshared
lo:_glStencilMask
KQk:_Array_InternalArray__get_Item_TisControlPoint_t168081159_m216874586_gshared
mWl:__ZN6il2cpp2os10ThreadImpl16GetCurrentThreadEv
L2d:__ZNK5physx2Sc15ClothFabricCore20getNbParticleIndicesEv
r8a:__ZN15GUIEventManager10QueueEventERK10InputEvent
Lhk:_Enumerator_System_Collections_IEnumerator_get_Current_m2010873149_gshared
lqg:_Resources_t2975512894_marshal_pinvoke_cleanup
_tk:_AnimationEvent_get_messageOptions_m3547411650
tHh:__ZL88Type_t_CustomAttributesCacheGenerator_Type_MakeGenericType_m2765875033____typeArguments0P21CustomAttributesCache
Lgi:__ZL74SpriteState_t1353336012_CustomAttributesCacheGenerator_m_HighlightedSpriteP21CustomAttributesCache
lli:_RealProxy__ctor_m2505535530
t0l:_GC_push_conditional_with_exclusions
Yti:_DOGetter_1_EndInvoke_m2074726563_gshared
sni:_BinaryFormatter_get_DefaultSurrogateSelector_m219714691
_w:__ZN21AnimationPosePlayableD0Ev
UR:__ZN11UnityEngine15CloudWebService10RestClientINS0_16WWWRestHeaderMapEE6SetUrlERK8UnityStr
NKd:__ZN5physx2Sq8AABBTree11shiftOriginERKNS_6PxVec3E
uJi:_ILGenerator_label_fixup_m1325994348
Dhh:_MD4Managed_Encode_m2097839378
FEf:_Collection_1_System_Collections_IList_get_IsFixedSize_m3252091801_gshared
Nij:__Z57RuntimeInvoker_Boolean_t3825574718_LabelFixup_t4090909514PK10MethodInfoPvPS2_
tpg:_FloatTween_get_ignoreTimeScale_m4161298485_AdjustorThunk
wwi:__ZN18VirtActionInvoker2IP25TweenerCore_3_t3199111798bE6InvokeEjPvS1_b
Iom:dynCall_iiiififi
WSi:__ZN16VirtFuncInvoker0IP18Stream_t3255436806E6InvokeEjPv
FKf:_ReadOnlyCollection_1_System_Collections_IList_get_IsFixedSize_m993752291_gshared
i1c:__ZN5physx2Sc7BodySim6wakeUpEv
qE:__ZN11UnityEngine9Animation28GenericAnimationBindingCache25RegisterIAnimationBindingE11ClassIDTypeiP17IAnimationBinding
Lyf:_Collection_1_System_Collections_IList_Insert_m580889797_gshared
Gtg:__ZN21InterfaceFuncInvoker1IP19Graphic_t2426225576iE6InvokeEjP11Il2CppClassPvi
g4g:_SimpleCollator_GetSortKey_m2188419329
Nzd:__ZN5physx6shdfnd8PoolBaseINS_2Gu30LargePersistentContactManifoldENS0_19ReflectionAllocatorIS3_EEE17releaseEmptySlabsEv
F1c:__ZN5physx2Sc21ConstraintInteraction7destroyEv
Dhi:__ZL56LayoutElement_t2808691390_CustomAttributesCacheGeneratorP21CustomAttributesCache
qTj:_Scrollbar_Set_m244028386
wjc:__Z33Register_UnityEngine_Random_Rangev
Dmc:__Z27Object_CUSTOM_DestroyObjectP12Il2CppObjectf
e6h:__ZL101ShortcutExtensions_t3524050470_CustomAttributesCacheGenerator_ShortcutExtensions_DOLookAt_m1204733618P21CustomAttributesCache
jOd:__ZN5physx13PxsSolverCoreD2Ev
Rgm:__ZNSt3__211__money_putIwE8__formatEPwRS2_S3_jPKwS5_RKNS_5ctypeIwEEbRKNS_10money_base7patternEwwRKNS_12basic_stringIcNS_11char_traitsIcEENS_9allocatorIcEEEERKNSE_IwNSF_IwEENSH_IwEEEESQ_i
F6a:__ZN16MemoryFileSystem6ParentERK13FileEntryDataRNSt3__212basic_stringIcNS3_11char_traitsIcEENS3_9allocatorIcEEEE
JDf:_Collection_1_System_Collections_IEnumerable_GetEnumerator_m2964241726_gshared
kAb:__ZN14PlayerSettings8TransferI18StreamedBinaryReadILb0EEEEvRT_
G4k:_U3CU3Ec__DisplayClass34_0_U3CDOJumpU3Eb__2_m412167168
cAl:__ZN6il2cpp6icalls8mscorlib6System8MonoType16GetMethodsByNameEP20Il2CppReflectionTypeP12Il2CppStringibS5_
MDk:_AnimationPlayable_op_Implicit_m408821639
Ful:__ZN15dense_hashtableI10KeyWrapperIPK19Il2CppGenericMethodES4_N6il2cpp8metadata23Il2CppGenericMethodHashEN14dense_hash_setIS4_S7_NS6_26Il2CppGenericMethodCompareENSt3__29allocatorIS4_EEE8IdentityES9_SC_E4swapERSF_
rBd:__ZNK5physx7NpScene16getNbConstraintsEv
TPk:_LayoutGroup_SetProperty_TisAxis_t1431825778_m2174054513_gshared
ond:__ZN5physx7NpCloth14setWakeCounterEf
tpb:__ZN4PPtrI10GameObjectE8TransferI14SafeBinaryReadEEvRT_
$Qj:_Mask_IsRaycastLocationValid_m62488857
V$h:__ZL105Physics_t634932869_CustomAttributesCacheGenerator_Physics_Raycast_m2036777053____queryTriggerInteraction5P21CustomAttributesCache
bra:__ZNSt3__27__sort3IRNS_4lessIN22BuiltinResourceManager8ResourceEEEPS3_EEjT0_S7_S7_T_
yek:_DefaultComparer_Compare_m3472472212_gshared
aKg:_MonoIO_GetLength_m2812344043
Npe:_ps_hints_t2mask
c4h:__ZL68UsedByNativeCodeAttribute_t3212052468_CustomAttributesCacheGeneratorP21CustomAttributesCache
rzk:_Color_op_Addition_m1759335993
xwb:__ZN10BlendShape8TransferI19StreamedBinaryWriteILb0EEEEvRT_
pca:__ZL4WalkRK16TypeTreeIteratorR12CachedReaderPib
a4d:__ZNK5physx2Gu11HeightField17getReferenceCountEv
l8k:_TweenExtensions_Restart_m2056936246
iG:__Z32TransferEnumWithNameForceIntSizeI14SafeBinaryReadN10SampleClip8LoadTypeEEvRT_RT0_PKc17TransferMetaFlags
U9:__Z19GetTimeSinceStartupv
Xda:__ZN7Texture23VirtualRedirectTransferER17RemapPPtrTransfer
h7e:_SecurityFrame_get_Assembly_m2816566490
NOi:_FieldInfo_GetPseudoCustomAttributes_m2500972355
J5h:__ZL99ShortcutExtensions_t3524050470_CustomAttributesCacheGenerator_ShortcutExtensions_DOPath_m1262144308P21CustomAttributesCache
SYc:__ZN5physx3Scb5Scene10getPxSceneEv
cve:_TT_Load_Composite_Glyph
Efl:_NetFxCoreExtensions_CreateDelegate_m2492743074
R2a:__Z33MultiplyMatrixArrayWithBase4x4REFPK10Matrix4x4fS1_S1_PS_j
fUi:__Z51RuntimeInvoker_Boolean_t3825574718_Int64_t909078037PK10MethodInfoPvPS2_
AWg:_DOTween_To_m2117641908
jRf:_Array_Sort_m2994254654
ztf:_List_1__ctor_m593058937_gshared
CPe:_Array_InternalArray__IEnumerable_GetEnumerator_TisColor32_t874517518_m2198639025_gshared
lYa:__ZN29RenderNodeQueuePrepareContextC2Ev
Ayj:_Mesh_Clear_m231813403
iWb:__ZN9ShaderLab20SerializedSubProgram16TextureParameter8TransferI24GenerateTypeTreeTransferEEvRT_
Ocj:__Z116RuntimeInvoker_Il2CppObject_Il2CppObject_Vector3_t2243707580_Single_t2076509932_Int32_t2071877448_Single_t2076509932PK10MethodInfoPvPS2_
i0j:_Thread_set_Name_m1343706609
c5l:__ZN6il2cpp2os11MutexHandle4WaitEj
kac:__ZL34GetComponentsImplementationRecurseILb1ELi1ELi1EEbR10GameObjectbRK17CompareParametersRK39GetComponentsImplementation_ReturnValue
b5l:__ZN6il2cpp2os11MutexHandle4WaitEv
JWf:_ArrayList_set_Capacity_m592558035
Qja:__ZN6prcoreL17RemapGenericFloatI15TexFormatRGHalf18TexFormatARGBFloatEEvPKNS_9InnerInfoE
mQg:_MonoEnumInfo_t2335995564_marshal_pinvoke_cleanup
Sba:__ZNK13RenderTexture13GetDataHeightEv
mGg:_Int64_System_IConvertible_ToDecimal_m3390697048_AdjustorThunk
TOa:__ZN13RenderManager23AddRemoveCamerasDelayedEv
sOa:_UNITY_png_write_pHYs
Xka:__ZN23PreloadManagerOperation11GetPriorityEv
aeg:_Exception_get_InnerException_m3722561235
eQl:__ZN6il2cpp2vm9Exception5RaiseEP15Il2CppException
JNe:_Array_InternalArray__ICollection_Remove_TisILTokenInfo_t149559338_m1523907845_gshared
pCe:__ZN11UnityEngine9Analytics15AnalyticsConfigC2Ev
Iyi:_TweenerCore_3_ChangeStartValue_m508084142_gshared
kqf:_List_1_GetEnumerator_m4053501645_gshared
Nee:__ZNK5Unity5Joint16GetCurrentForcesER8Vector3fS2_
_lk:__ZN21InterfaceFuncInvoker4IP17Match_t3164245899P17Regex_t1803876613P8String_tiiE6InvokeEjP11Il2CppClassPvS3_S5_ii
nsj:_GUISkin_set_toggle_m1758777401
MPj:_Enumerator_CheckState_m1761755727_gshared
Z_f:_Hashtable_Rehash_m2877670513
lob:__ZN12LineRenderer13AwakeFromLoadE17AwakeFromLoadMode
k$a:__ZN13RenderTexture8SetWidthEi
Zxg:_InputField_Insert_m1593238693
h$b:__ZNK28RectTransformPropertyBinding12SetPPtrValueERKN11UnityEngine9Animation10BoundCurveEi
tOb:__Z18Transfer_BlittableI18StreamedBinaryReadILb0EELb0EfEvRK29SerializationCommandArgumentsR31RuntimeSerializationCommandInfo
eve:_UNITY_FT_GlyphLoader_CheckSubGlyphs
t0i:__Z132RuntimeInvoker_Int32_t2071877448_Il2CppObject_Int32_t2071877448_Int32_t2071877448_Il2CppObject_Int32_t2071877448_Int32U26_t455636984PK10MethodInfoPvPS2_
ryl:__ZN6il2cpp2vm21ThreadPoolCompartment20SpawnNewWorkerThreadEv
$Te:_Array_InternalArray__ICollection_Add_TisCustomAttributeTypedArgument_t1498197914_m3260005285_gshared
O$f:_SyncHashtable_GetObjectData_m3774367030
$Fg:_Int32_ToString_m1128850770
IDg:_Guid_GetHashCode_m1401300871
Dhl:_ListPool_1_U3Cs_ListPoolU3Em__0_m1243609651_gshared
zrc:__Z42Register_UnityEngine_GUIStyle_set_fontSizev
vLh:__ZL61CallingConventions_t1097349142_CustomAttributesCacheGeneratorP21CustomAttributesCache
njd:__ZNK5physx9NpFactory11getNbShapesEv
Erg:_FontData__ctor_m3822008992
iUi:__Z140RuntimeInvoker_Boolean_t3825574718_Il2CppObject_Int32_t2071877448_Il2CppObject_SByte_t454417549_Int64U26_t763825331_ExceptionU26_t1467204777PK10MethodInfoPvPS2_
all:__ZL23UnresolvedVirtualCall_5P12Il2CppObjectsPK10MethodInfo
ID:__ZN4PPtrI6AvatarE8TransferI19StreamedBinaryWriteILb0EEEEvRT_
Ufj:__Z42RuntimeInvoker_ScreenMatchMode_t1916789528PK10MethodInfoPvPS2_
D_:__ZN9ShaderLab16FastPropertyName4InitEPKc
EAc:__ZN11b2GearJointD0Ev
uUg:_EaseCurve_Evaluate_m4151423631
o4:__Z18PathToAbsolutePathRKNSt3__212basic_stringIcNS_11char_traitsIcEENS_9allocatorIcEEEE
yGl:__ZN15dense_hashtableINSt3__24pairIK10KeyWrapperINS1_IPK12PropertyInfoP11Il2CppClassEEEjEES9_17ReflectionMapHashIS8_EN14dense_hash_mapIS9_jSD_19ReflectionMapEqualsIS8_ENS0_9allocatorISB_EEE9SelectKeyESG_SI_E13clear_deletedER30dense_hashtable_const_iteratorISB_S9_SD_SK_SG_SI_E
t_b:__Z13RegisterClassIN2UI13RectTransformEEvv
Avi:_DOSetter_1_EndInvoke_m949315410_gshared
E3g:_MSCompatUnicodeTable_ToWidthCompat_m2299599532
cSg:_NumberFormatter_get_IsFloatingSource_m2830957202
Svb:__ZN10VertexData8TransferI17RemapPPtrTransferEEvRT_
o$a:__ZN13RenderTexture9SetMipMapEb
cdm:__ZNKSt3__27num_getIwNS_19istreambuf_iteratorIwNS_11char_traitsIwEEEEE6do_getES4_S4_RNS_8ios_baseERjRl
gdm:__ZNKSt3__27num_getIwNS_19istreambuf_iteratorIwNS_11char_traitsIwEEEEE6do_getES4_S4_RNS_8ios_baseERjRm
_Uj:_ScrollRect_set_verticalScrollbarSpacing_m2356851539
bdm:__ZNKSt3__27num_getIwNS_19istreambuf_iteratorIwNS_11char_traitsIwEEEEE6do_getES4_S4_RNS_8ios_baseERjRb
$jb:__Z18GetDirectorManagerv
kdm:__ZNKSt3__27num_getIwNS_19istreambuf_iteratorIwNS_11char_traitsIwEEEEE6do_getES4_S4_RNS_8ios_baseERjRe
LSg:_OperatingSystem_GetObjectData_m2276196875
Rdb:__ZNK10TagManager26GetTypeInfoVirtualInternalEv
ddm:__ZNKSt3__27num_getIwNS_19istreambuf_iteratorIwNS_11char_traitsIwEEEEE6do_getES4_S4_RNS_8ios_baseERjRx
hdm:__ZNKSt3__27num_getIwNS_19istreambuf_iteratorIwNS_11char_traitsIwEEEEE6do_getES4_S4_RNS_8ios_baseERjRy
KEj:_ResourceRequest_t2560315377_marshal_pinvoke_back
zbi:__ZL92PointerEventData_t1599784723_CustomAttributesCacheGenerator_U3CpointerDragU3Ek__BackingFieldP21CustomAttributesCache
Dlc:__Z38Transform_CUSTOM_INTERNAL_get_rotationP12Il2CppObjectP11Quaternionf
edm:__ZNKSt3__27num_getIwNS_19istreambuf_iteratorIwNS_11char_traitsIwEEEEE6do_getES4_S4_RNS_8ios_baseERjRt
RKl:__ZNSt3__26vectorIN6il2cpp2vm17TypeNameParseInfoENS_9allocatorIS3_EEE8allocateEj
aHc:__ZN16b2StackAllocator4FreeEPv
wMh:__ZL66CriticalFinalizerObject_t1920899984_CustomAttributesCacheGeneratorP21CustomAttributesCache
mAa:__ZN7ApiGLES19UploadBufferSubDataEjN2gl12BufferTargetEllPKv
uLd:__ZN5physx2Sc5Scene17createClothSolverEv
I8e:_String_System_IConvertible_ToInt32_m1927223638
eOe:_Array_InternalArray__ICollection_Remove_TisContentType_t1028629049_m3085152315_gshared
urd:__ZNK5physx15PxsParticleData16getMaxParticlesVEv
V0i:__Z48RuntimeInvoker_Byte_t3683104436_Int64_t909078037PK10MethodInfoPvPS2_
Qri:_CryptographicException__ctor_m406825529
Ixk:_Canvas_set_sortingOrder_m2922819993
Ebe:__ZThn116_N5physx7profile8ZoneImplINS_28PxProfileNameProviderForwardEE12removeClientERNS_19PxProfileZoneClientE
SQd:__ZN15MBP_PairManager17removeMarkedPairsEPK10MBP_ObjectPN5physx16PxsBroadPhaseMBPERK8BitArrayS8_
_wl:__ZNSt3__26__treeINS_12__value_typeIP11Il2CppClassS3_EENS_19__map_value_compareIS3_S4_NS_4lessIS3_EELb1EEENS_9allocatorIS4_EEE25__emplace_unique_key_argsIS3_JNS_4pairIS3_S3_EEEEENSD_INS_15__tree_iteratorIS4_PNS_11__tree_nodeIS4_PvEEiEEbEERKT_DpOT0_
Naf:_ASCIIEncoding__ctor_m4127831672
hWg:_DOTween__cctor_m3994335352
GIb:__Z19TransferField_ArrayI14SafeBinaryRead27Converter_SimpleNativeClassI8GUIStyleEEvRK23StaticTransferFieldInfoR31RuntimeSerializationCommandInfoRT0_
hEb:__ZN9TextAsset23VirtualRedirectTransferER19StreamedBinaryWriteILb0EE
I4h:__ZL97TweenExtensions_t405253783_CustomAttributesCacheGenerator_TweenExtensions_WaitForKill_m2434480674P21CustomAttributesCache
v_j:_UTF8Encoding__ctor_m3336862259
W2l:__ZN6il2cpp5utils10MemoryPoolC2Ej
Zaj:__Z54RuntimeInvoker_Boolean_t3825574718_HitInfo_t1761367055PK10MethodInfoPvPS2_
qzh:_X509Chain_GetAuthorityKeyIdentifier_m2607407678
S2l:__ZN6il2cpp5utils10MemoryPoolC2Ev
Zib:__ZN14RenderSettings5ResetEv
Mid:__ZN5physx9NpPhysics33unregisterDeletionListenerObjectsERNS_18PxDeletionListenerEPKPKNS_6PxBaseEj
mpd:__ZNK5physx2Sc9ClothCore22getAngularInertiaScaleEv
Eem:__ZNKSt3__28time_getIcNS_19istreambuf_iteratorIcNS_11char_traitsIcEEEEE13__get_weekdayERiRS4_S4_RjRKNS_5ctypeIcEE
Ikg:_RaycastResult_set_gameObject_m1138581891_AdjustorThunk
JIl:__ZN14dense_hash_mapI10KeyWrapperINSt3__24pairIPK12PropertyInfoP11Il2CppClassEEEj17ReflectionMapHashIS8_E19ReflectionMapEqualsIS8_ENS1_9allocatorINS2_IKS9_jEEEEE15set_deleted_keyERSF_
pwk:_Bounds_get_extents_m4077324178_AdjustorThunk
hYi:__Z117RuntimeInvoker_Int32_t2071877448_Il2CppObject_Il2CppObject_Int32_t2071877448_Int32_t2071877448_BooleanU26_t3168250738PK10MethodInfoPvPS2_
m8b:__ZN12InputManager10GetAxisRawERKNSt3__212basic_stringIcNS0_11char_traitsIcEENS0_9allocatorIcEEEE
uad:__ZN5physx20NpRigidActorTemplateINS_18PxArticulationLinkEE12setActorFlagENS_11PxActorFlag4EnumEb
kPk:_Dictionary_2_Do_ICollectionCopyTo_TisKeyValuePair_2_t3716250094_m1740410536_gshared
YVl:__ZN6il2cpp2os10ThreadImplD2Ev
iah:_RSAManaged_Dispose_m3018788098
YAc:__ZN12b2MouseJoint23InitVelocityConstraintsERK12b2SolverData
_vc:__ZN8Gradient8TransferI9JSONWriteEEvRT_
zmh:_Context_get_ReceivedConnectionEnd_m3369356276
Bth:_NameObjectCollectionBase_get_Count_m2353593692
hMl:__ZN15dense_hashtableINSt3__24pairIK10KeyWrapperIP11Il2CppClassES4_EES5_N6il2cpp8metadata16SZArrayClassHashEN14dense_hash_mapIS5_S4_SA_NS9_19SZArrayClassCompareENS0_9allocatorIS7_EEE9SelectKeyESC_SE_E9copy_fromERKSH_j
idi:__ZL73U3COnFinishSubmitU3Ec__Iterator0_t99135383_CustomAttributesCacheGeneratorP21CustomAttributesCache
z7a:__ZNK12TLSAllocatorI14StackAllocatorE22GetAllocatedMemorySizeEv
nLh:__ZL54AssemblyName_t894705941_CustomAttributesCacheGeneratorP21CustomAttributesCache
P5f:_Convert_ToUInt32_m3394039268
NXg:_U3CU3Ec__DisplayClass0_0_U3CFloatU3Eb__2_m64240142
f9b:__Z32GetSceneHierarchyPathDescriptivePK6Object
mvb:__ZNSt3__26vectorI7SubMesh13stl_allocatorIS1_L18MemLabelIdentifier16ELi16EEEC2ERKS5_
wM:__ZNK7WeakPtrI20SoundChannelInstanceE10SharedData9GetRawPtrEv
zHa:__ZN12HandlerChain4NameEv
Co:FUNCTION_TABLE_fiiiiiifiiiiiif
Cyb:__ZNSt3__26vectorI9InputAxisNS_9allocatorIS1_EEE10deallocateEv
f_d:__ZN5physx37setupFinalizeSolverConstraintsCoulombERNS_13PxcNpWorkUnitERKNS_2Gu13ContactBufferERKNS_27PxcCorrelationBufferCoulombERKNS_11PxTransformESB_bPhRKNS_13PxcSolverBodyESF_RKNS_17PxcSolverBodyDataESI_ffjffff
EEg:_Int16_Equals_m3925135434_AdjustorThunk
bI:__ZN12AudioManager8TransferI18StreamedBinaryReadILb1EEEEvRT_
CAe:__Z44Register_UnityEngine_CanvasRenderer_get_cullv
Ekk:_Enumerator_Dispose_m2532362830_AdjustorThunk
dJh:__ZL60IHashCodeProvider_t1980576455_CustomAttributesCacheGeneratorP21CustomAttributesCache
fkl:_Enumerator_VerifyState_m1677639504_AdjustorThunk
Q5a:__Z29StdTemplateConversionFunctionIbbEbPvR14SafeBinaryRead
lkh:_CipherSuiteCollection_get_Item_m280627160
B2f:_DateTime__ParseString_m2623687350
Dki:_SerializationInfoEnumerator_MoveNext_m1876990879
W5h:__ZL105ShortcutExtensions_t3524050470_CustomAttributesCacheGenerator_ShortcutExtensions_DOLocalMoveZ_m2334840511P21CustomAttributesCache
h3a:__ZN14UnityWebStream24UpdateAllUnityWebStreamsEv
cyf:_Collection_1_System_Collections_IList_get_IsReadOnly_m2329986891_gshared
HHh:__ZL60ObsoleteAttribute_t3878847927_CustomAttributesCacheGeneratorP21CustomAttributesCache
DDh:_CostDelegate_BeginInvoke_m1628968398
AVe:_Array_InternalArray__ICollection_CopyTo_TisRaycastHit2D_t4063908774_m3837098618_gshared
hFj:_ScriptableObject_CreateInstance_m3271154163
TPd:__ZN5physx31ComputeCreatedDeletedPairsListsEPKjS1_jRPNS_17PxcBroadPhasePairERjS5_S4_S5_S5_RNS_14SapPairManagerE
fma:__ZN18LoadSceneOperation21MustCompleteNextFrameEv
r2g:_ShortcutExtensions_DOPlayForward_m3311652443
KK:__ZNK12AudioManager16GetAudioListenerEv
uQi:_MonoField_get_FieldType_m598011426
e9b:__ZNSt3__2plIcNS_11char_traitsIcEE13stl_allocatorIcL18MemLabelIdentifier1ELi16EEEENS_12basic_stringIT_T0_T1_EERKSA_SC_
byf:_Collection_1_System_Collections_IList_get_IsFixedSize_m1624702704_gshared
x9a:__ZN18AssetBundleManager30CollectPreloadDataDependenciesER4PPtrI11AssetBundleEbR13dynamic_arrayIiLj4EE
h9h:__ZL118TweenSettingsExtensions_t2285462830_CustomAttributesCacheGenerator_TweenSettingsExtensions_PrependInterval_m3957684016P21CustomAttributesCache
bZh:__ZL48Camera_t189460977_CustomAttributesCacheGeneratorP21CustomAttributesCache
vlj:__Z73RuntimeInvoker_Void_t1841601450_Int32_t2071877448_RaycastResult_t21186376PK10MethodInfoPvPS2_
ONl:__ZNSt3__212basic_stringIcNS_11char_traitsIcEENS_9allocatorIcEEE6__initINS_11__wrap_iterIPcEEEENS_9enable_ifIXsr21__is_forward_iteratorIT_EE5valueEvE4typeESB_SB_
_Cc:__ZNK11Rigidbody2D20GetAttachedCollidersER13dynamic_arrayIP10Collider2DLj4EE
VUd:__ZN5physx2Gu16pcmContactBoxBoxERKNS0_13GeometryUnionES3_RKNS_11PxTransformES6_RKfRNS0_5CacheERNS0_13ContactBufferE
dYg:_ColorPlugin_Reset_m1252644186
gxg:_InputField_OnDisable_m1865339380
x5j:_UInt32_System_IConvertible_ToType_m747769316
uw:__ZN7mecanim9animation12GetHumanPoseERKNS0_18ClipMuscleConstantEPKNS0_10ValueDeltaERNS_5human9HumanPoseE
nGl:__ZN6il2cpp2vm10Reflection17GetPropertyObjectEP11Il2CppClassPK12PropertyInfo
_Be:__ZN11UnityEngine9Analytics15UserCustomEvent12CustomParams6InsertEPKcRNS1_11CustomValueE
aRk:_Array_InternalArray__get_Item_TisInt16_t4041245914_m2533263979_gshared
Cum:_glDeleteVertexArrays__wrapper
ANb:__Z29Transfer_Blittable_ArrayFieldI19StreamedBinaryWriteILb0EEjEvRT_R9ArrayInfoRK23StaticTransferFieldInfo
GX:__Z13GetFileSystemv
fIe:_TweenManager_GetTweener_TisInt64_t909078037_TisInt64_t909078037_TisNoOptions_t2508431845_m2802339764_gshared
jqa:__ZNK5Unity4Type21FindAllDerivedClassesER13dynamic_arrayIPKS0_Lj4EENS0_17TypeFilterOptionsE
wxb:__ZN14SafeBinaryRead8TransferIfEEvRT_PKc17TransferMetaFlags
RNb:__ZL12InvokeMethodI18StreamedBinaryReadILb0EEEvRK29SerializationCommandArgumentsR31RuntimeSerializationCommandInfo
jCg:_DaylightTime_get_Delta_m2316831491
jGc:__ZNSt3__27__sort5IR24RayHitsByDepthComparitorP12RaycastHit2DEEjT0_S5_S5_S5_S5_T_
dNe:_Array_InternalArray__ICollection_Contains_TisUILineInfo_t3621277874_m1175659630_gshared
d1j:_WaitHandle_WaitOne_m370363697
Ybi:__ZL114PointerEventData_t1599784723_CustomAttributesCacheGenerator_PointerEventData_set_pointerCurrentRaycast_m2431897513P21CustomAttributesCache
FBh:_FactoryCache_Lookup_m1681894361
abm:__ZNSt3__215basic_streambufIcNS_11char_traitsIcEEED2Ev
gkf:_List_1_System_Collections_IList_get_Item_m2094199825_gshared
Uek:_DefaultComparer__ctor_m2470932885_gshared
n5d:__ZN5physx2Gu5RTree15exportExtraDataERNS_22PxSerializationContextE
Fva:__ZNK9GfxDevice14IsPureThreadedEv
GRb:__Z29Transfer_Blittable_ArrayFieldI18StreamedBinaryReadILb1EE5RectTIfEEvRT_R9ArrayInfoRK23StaticTransferFieldInfo
$Uh:__ZL79Convert_t2607082565_CustomAttributesCacheGenerator_Convert_ToUInt64_m1896191125P21CustomAttributesCache
Vuf:_Collection_1_System_Collections_IEnumerable_GetEnumerator_m1113932903_gshared
a0e:_RIPEMD160Managed_Initialize_m3365407578
xq:FUNCTION_TABLE_iiiiiifii
H6b:__Z29GetTextureSizeAllowedMultiple13TextureFormat
Qgm:__ZNSt3__211__money_putIwE13__gather_infoEbbRKNS_6localeERNS_10money_base7patternERwS8_RNS_12basic_stringIcNS_11char_traitsIcEENS_9allocatorIcEEEERNS9_IwNSA_IwEENSC_IwEEEESJ_Ri
$uh:_IPAddress_HostToNetworkOrder_m1092199707
DKd:__ZNK5physx2Sq10AABBPruner7overlapERKNS0_9ShapeDataERNS0_14PrunerCallbackE
YEj:_Rigidbody2D_AddForce_m3200488178
MOe:_SetPropertyUtility_SetStruct_TisSpriteState_t1353336012_m2898060836_gshared
Qwj:_Logger__ctor_m3834134587
N4e:_SecurityAttribute__ctor_m3425755778
C4b:__ZN21IntermediateRenderers3AddEP20IntermediateRenderer
djb:__ZN14RenderSettings23VirtualRedirectTransferER18StreamedBinaryReadILb1EE
Ozd:__ZN5physx6shdfnd5ArrayIPvNS0_19ReflectionAllocatorINS_2Gu30LargePersistentContactManifoldEEEE4copyINS0_15InlineAllocatorILj256ES6_EEEEvRKNS1_IS2_T_EE
_1k:_InvokableCall_1_add_Delegate_m3068046591_gshared
Ih:_glCheckFramebufferStatus
g1h:__ZL55TextGenerator_t647235000_CustomAttributesCacheGeneratorP21CustomAttributesCache
rQe:_Array_compare_TisInt32_t2071877448_m840310202_gshared
E$i:__Z57RuntimeInvoker_Il2CppObject_Il2CppObject_Byte_t3683104436PK10MethodInfoPvPS2_
hdj:__Z220RuntimeInvoker_Void_t1841601450_NoOptions_t2508431845_Il2CppObject_SByte_t454417549_Il2CppObject_Il2CppObject_Single_t2076509932_Double_t4078015681_Double_t4078015681_Single_t2076509932_SByte_t454417549_Int32_t2071877448PK10MethodInfoPvPS2_
Wdk:_InternalEnumerator_1_System_Collections_IEnumerator_get_Current_m442726479_AdjustorThunk
tsi:_DESTransform_ECB_m2629024873
wck:_InternalEnumerator_1_System_Collections_IEnumerator_get_Current_m790514740_AdjustorThunk
F0d:__ZN5physx2Cm12DelegateTaskINS_2Sc5SceneEXadL_ZNS3_19updateCCDSinglePassEPNS_10PxBaseTaskEEEE11runInternalEv
UXc:__ZN5physx6string9sprintf_sEPcjPKcz
hAc:__ZNK15b2DistanceJoint17GetReactionTorqueEf
h8d:__ZThn8_N5physx19TriangleMeshBuilderD1Ev
anc:__Z19ConcatWithSeparatorRKNSt3__212basic_stringIcNS_11char_traitsIcEE13stl_allocatorIcL18MemLabelIdentifier1ELi16EEEES8_S8_
ggh:__ZN16VirtFuncInvoker2IbP21BigInteger_t925946153P12Il2CppObjectE6InvokeEjPvS1_S3_
ZQc:__ZN5physx2Gu16intersectRayAABBERKNS_6PxVec3ES3_S3_S3_RfS4_
Zrb:__ZN9Transform23VirtualRedirectTransferER17RemapPPtrTransfer
mjj:__Z87RuntimeInvoker_Int32_t2071877448_Playable_t3667545548_Playable_t3667545548_Il2CppObjectPK10MethodInfoPvPS2_
apf:_List_1_AddCollection_m2221063383_gshared
Lv:__ZN21AnimationClipPlayable7SetTimeEd
$Hh:__ZL57TypedReference_t1025199857_CustomAttributesCacheGeneratorP21CustomAttributesCache
Wvk:_AudioSource_get_pitch_m4220572439
BRe:_Array_InternalArray__IndexOf_TisByte_t3683104436_m3605266236_gshared
avj:_GUIStyle_set_richText_m1853532836
lFf:_Collection_1_System_Collections_IList_Insert_m435904526_gshared
kck:_InternalEnumerator_1_System_Collections_IEnumerator_get_Current_m1810411564_gshared
Asj:_GUISkin_get_horizontalScrollbarThumb_m4062590908
bTj:_RaycastAllCallback_Invoke_m981876639
zcm:__ZNKSt3__26locale5__imp9use_facetEl
Y6e:_UnicodeEncoding__ctor_m72484327
n_d:__ZN5physx30setupFinalizeSolverConstraintsERNS_13PxcNpWorkUnitERKNS_2Gu13ContactBufferERKNS_20PxcCorrelationBufferERKNS_11PxTransformESB_bPhRKNS_13PxcSolverBodyESF_RKNS_17PxcSolverBodyDataESI_ffffff
cGh:__ZL74Il2CppArray_CustomAttributesCacheGenerator_Array_GetUpperBound_m1352329707P21CustomAttributesCache
X5:__ZN22BuiltinResourceManager16StaticInitializeEPv
nyi:_TweenerCore_3_ChangeValues_m2925494578_gshared
Afd:__ZN5physx7NpScene17releaseBatchQueryEPNS_12PxBatchQueryE
IJl:__ZN6il2cpp2gc9AllocatorIP12Il2CppThreadE10deallocateEPvj
yKf:_ReadOnlyCollection_1_System_Collections_IList_Contains_m1838328308_gshared
kxd:__ZN5physx20NpRigidActorTemplateINS_13PxRigidStaticEE11attachShapeERNS_7PxShapeE
bgl:_UnityEvent_1_GetDelegate_m2720691419_gshared
GZd:__ZN5physx26solveVBlockDefaultFrictionEPNS_13PxsSolverCoreEfjjPNS_13PxcSolverBodyEPNS_17PxcSolverBodyDataEjjPNS_25PxcArticulationSolverDescEjPNS_23PxcSolverConstraintDescEjS9_jRNS_6shdfnd5ArrayINS_24PxsConstraintBatchHeaderENSA_19ReflectionAllocatorISC_EEEESG_PNS_2Cm13SpatialVectorEPNS_25PxcThresholdStreamElementEjRj
DWl:__ZN15dense_hashtableINSt3__24pairIK10KeyWrapperIP14Il2CppIUnknownEjEES5_N6il2cpp5utils11PointerHashIS3_EEN14dense_hash_mapIS5_jSB_NS0_8equal_toIS5_EENS0_9allocatorIS7_EEE9SelectKeyESE_SG_E16reset_thresholdsEv
imh:_ClientSessionInfo_SetContext_m2649357891
m6a:__ZNSt3__26__treeINS_12__value_typeINS_12basic_stringIcNS_11char_traitsIcEE13stl_allocatorIcL18MemLabelIdentifier54ELi16EEEEPN16MemoryFileSystem4NodeEEENS_19__map_value_compareIS8_SC_NS_4lessIS8_EELb1EEES5_ISC_LS6_54ELi16EEE12__find_equalIS8_EERPNS_16__tree_node_baseIPvEESO_RKT_
Qdd:__ZN5physx15NpActorTemplateINS_18PxArticulationLinkEE17resolveReferencesERNS_24PxDeserializationContextE
MVi:__Z69RuntimeInvoker_Boolean_t3825574718_Il2CppObject_DoubleU26_t1208767207PK10MethodInfoPvPS2_
Hhg:_RaycasterManager_GetRaycasters_m1154876874
Drh:_SslStreamBase_InternalReadCallback_m2524917586
f5:__ZN8Remapper6RemoveEi
Bkf:_List_1_CheckCollection_m2608305187_gshared
iHd:__ZN5physx19NpRigidBodyTemplateINS_18PxArticulationLinkEE9visualizeERNS_2Cm12RenderOutputEPNS_7NpSceneE
OOd:__ZN5physx11writeBack1DERKNS_23PxcSolverConstraintDescERNS_16PxcSolverContextERNS_17PxcSolverBodyDataES6_
K3j:_Type_get_ContainsGenericParameters_m505913180
dke:__ZL36CleanupTextRenderingScriptingClassesv
zMc:__ZThn4_N16RayRTreeCallbackILi0ELb0EED0Ev
a$a:__ZN15ReflectionProbe17UseRendererResultEP13ProbeRenderer
ibf:_ASCIIEncoding_GetBytes_m819071568
Fhc:__Z34Mesh_CUSTOM_SetArrayForChannelImplP12Il2CppObject30InternalScriptingShaderChannel34InternalScriptingVertexChannelTypeiP11Il2CppArrayi
lJg:_MonoIO_DeleteFile_m3273821223
Ypg:__ZN16VirtFuncInvoker0I17Color_t2020392075E6InvokeEjPv
o5g:_BigInteger_GenerateRandom_m2507308768
Q6f:_DateTime_System_IConvertible_ToDouble_m1431748426_AdjustorThunk
hoi:__ZN16VirtFuncInvoker0IdE6InvokeEjPv
ulj:__Z76RuntimeInvoker_Void_t1841601450_Int32_t2071877448_ContactPoint2D_t3659330976PK10MethodInfoPvPS2_
QMe:_Array_InternalArray__ICollection_Contains_TisUInt16_t986882611_m510319131_gshared
aGd:__ZNK5physx2Sc5Scene20getNbParticleSystemsEv
oag:_Decimal_ToString_m541380585
rCh:_RepeatContext_get_Previous_m808449037
_0i:__Z60RuntimeInvoker_DateTime_t693205669_Il2CppObject_Il2CppObjectPK10MethodInfoPvPS2_
POi:_MemberFilter__ctor_m1775909550
vzi:_TweenerCore_3_ChangeValues_m624671403_gshared
rBl:_il2cpp_class_is_valuetype
JJd:__ZN5physx2Gu17GetGeomSweepFuncsEv
GAe:__Z70RectTransformUtility_CUSTOM_INTERNAL_CALL_RectangleContainsScreenPointP12Il2CppObjectRK13Vector2fIcallS0_
vdg:_Enum_ToObject_m2601523252
Zmm:dynCall_viiffiii
brh:_InternalAsyncResult_get_FromWrite_m2893408424
url:__ZN6il2cpp2vm5Class15GetElementClassEP11Il2CppClass
Gzg:_U3CDelayedSetDirtyU3Ec__Iterator0_System_Collections_IEnumerator_get_Current_m851854792
Nag:_Delegate_CreateDelegate_m1706525923
yim:__ZNKSt3__25ctypeIwE10do_tolowerEPwPKw
Rqd:__ZN5physx22NpParticleBaseTemplateINS_15PxParticleFluidENS_15NpParticleFluidEE23setParticleReadDataFlagENS_22PxParticleReadDataFlag4EnumEb
ABe:__ZN14UnityAnalytics25UnregisterGlobalCallbacksEv
p_j:_UTF7Encoding_GetBytes_m3015176946
mhb:__ZN16GraphicsSettings8TransferI17RemapPPtrTransferEEvRT_
Xfh:_BigInteger_op_LessThanOrEqual_m3528380540
xMg:_StreamReader__ctor_m2654332332
eye:__ZN2UI6Canvas13UpdateBatchesEb
T2:__Z28scripting_method_is_instance21ScriptingMethodIl2Cpp
eUb:__ZNSt3__26vectorIN9ShaderLab20SerializedSubProgram14ConstantBufferENS_9allocatorIS3_EEE18__construct_at_endINS_11__wrap_iterIPS3_EEEENS_9enable_ifIXsr21__is_forward_iteratorIT_EE5valueEvE4typeESC_SC_j
Qbi:__ZL105PointerEventData_t1599784723_CustomAttributesCacheGenerator_PointerEventData_set_pointerEnter_m1440587006P21CustomAttributesCache
Fif:_List_1_CheckCollection_m3968030679_gshared
G0k:_Predicate_1_BeginInvoke_m3556950370_gshared
tkd:__ZN5physx2Gu5Debug9visualizeERKNS_13PxBoxGeometryERNS_2Cm12RenderOutputERKNS5_8Matrix34ERKNS_9PxBounds3Eyfj
Hdf:_StringBuilder_ToString_m617673931
isa:__ZNK13GfxDeviceGLES12GetWireframeEv
dxl:__ZN15dense_hashtableINSt3__24pairIK10KeyWrapperIPK19Il2CppGenericMethodEPK26Il2CppGenericMethodIndicesEES6_N6il2cpp8metadata23Il2CppGenericMethodHashEN14dense_hash_mapIS6_SA_SE_NSD_26Il2CppGenericMethodCompareENS0_9allocatorISB_EEE9SelectKeyESG_SI_E4findERS7_
WKc:__ZN5physx6shdfnd5ArrayIPKvNS0_19ReflectionAllocatorIS3_EEE6resizeEjRKS3_
fLf:_ReadOnlyCollection_1_System_Collections_ICollection_get_IsSynchronized_m3127987432_gshared
yta:__ZN9GfxDevice18AllocRenderSurfaceEb
Zo:FUNCTION_TABLE_iifiiiiii
t_d:__ZN5physx31setupFinalizeSolverConstraints4EPNS_21PxcSolverContact4DescERNS_18PxcNpThreadContextEPhffRKNS_6shdfnd3aos5Vec4VES9_S9_S9_
aCd:__ZN5physx7NpScene5flushEb
Lxi:_TweenerCore_3_ApplyTween_m2278209809_gshared
Tqg:_Dropdown_Show_m324374589
C0:__ZL27CleanupCoreScriptingClassesv
yZh:__ZL85Component_t3819376471_CustomAttributesCacheGenerator_Component_SendMessage_m913946877P21CustomAttributesCache
CAd:__ZThn8_N5physx2Sc24ElementInteractionMarker10onActivateEj
Tzi:_ABSTweenPlugin_3__ctor_m2153224412_gshared
OVc:__ZThn8_N5physx3Cct17CapsuleController15getPxControllerEv
SOj:_GenericComparer_1__ctor_m3575096182_gshared
$jg:_RaycastResult_get_isValid_m2482925612
pij:__Z124RuntimeInvoker_Boolean_t3825574718_Il2CppObject_Il2CppObject_Il2CppObject_Double_t4078015681_Single_t2076509932_Il2CppObjectPK10MethodInfoPvPS2_
lhc:__Z26AnimationCurve_CUSTOM_InitP12Il2CppObjectP11Il2CppArray
Vyc:__ZNK14b2PolygonShape5CloneEP16b2BlockAllocator
OHl:__ZN6il2cpp2vm10Reflection7IsEventEP12Il2CppObject
Qwl:__ZNSt3__26__treeINS_12__value_typeIPFvvEPK10MethodInfoEENS_19__map_value_compareIS3_S7_NS_4lessIS3_EELb1EEENS_9allocatorIS7_EEE16__insert_node_atEPNS_16__tree_node_baseIPvEERSI_SI_
I1:__ZN17PersistentManager26GetStreamNameSpaceInternalEi
hpm:dynCall_iiiiffii
rG:__ZN4FMOD6System11createSoundEPKcjP22FMOD_CREATESOUNDEXINFOPPNS_5SoundE
DKf:_ReadOnlyCollection_1_System_Collections_ICollection_get_IsSynchronized_m4056631538_gshared
Pq:FUNCTION_TABLE_iiifiiii
Jfh:__ZN16VirtFuncInvoker1IP21BigInteger_t925946153iE6InvokeEjPvi
_9i:__Z66RuntimeInvoker_Void_t1841601450_Int32_t2071877448_Rect_t3681755626PK10MethodInfoPvPS2_
Mzj:_Object_Destroy_m4145850038
ecj:__Z97RuntimeInvoker_Il2CppObject_Single_t2076509932_Single_t2076509932_Single_t2076509932_Il2CppObjectPK10MethodInfoPvPS2_
b8:__ZNSt3__26__treeINS_12__value_typeINS_12basic_stringIcNS_11char_traitsIcEENS_9allocatorIcEEEEiEENS_19__map_value_compareIS7_S8_NS_4lessIS7_EELb1EEENS5_IS8_EEE7destroyEPNS_11__tree_nodeIS8_PvEE
rLl:__ZN6il2cpp2vm4Type14IsSystemDBNullEPK10Il2CppType
Oac:__ZN9Scripting28CreateEngineScriptableObjectEP12Il2CppObject
Ybe:__ZThn128_N5physx7profile8ZoneImplINS_28PxProfileNameProviderForwardEED1Ev
o$:__ZN9ShaderLab19CommonPropertyNames13StaticCleanupEPv
gVj:_ScrollRect_UpdateBounds_m3266596336
ZKd:__ZN5physx2Sq17AABBTreeUpdateMap10invalidateEjjRNS0_8AABBTreeE
rml:__ZL24UnresolvedVirtualCall_76P12Il2CppObjectPK10MethodInfo
_Na:_unity_z_zcfree
Xfe:__ZN9Rigidbody7PRODUCEE18MemLabelIdentifier18ObjectCreationMode
IZd:__ZN5physx28solveParallelDefaultFrictionERNS_18PxsDynamicsContextEjjPNS_13PxcSolverBodyEPNS_17PxcSolverBodyDataEjjPNS_25PxcArticulationSolverDescEjPNS_23PxcSolverConstraintDescEjS9_jPiSA_SA_SA_SA_SA_PNS_25PxcThresholdStreamElementEjSA_PNS_2Cm13SpatialVectorEPKPNS_11PxsBodyCoreERNSD_10BitMapBaseINS_6shdfnd9AllocatorEEEPKPNS_15PxsArticulationEjPViRNSL_5ArrayINS_24PxsConstraintBatchHeaderENSL_19ReflectionAllocatorISW_EEEES10_RNSV_IjNSX_IjEEEES13_PPNS_12PxsRigidBodyEj
atm:_glStencilOpSeparate__wrapper
T6b:__ZN4Mesh5SetUvEiPKfjj
Gma:__ZN7Texture13SetAnisoLimitENS_20AnisotropicFilteringE
Wma:__ZN28LightProbeProxyVolumeManager25UpdateSHCoeffsTextureDataER21LightProbeProxyVolume
bIa:__Z18CreateDecompressor15CompressionType18MemLabelIdentifier
xja:__ZN6prcoreL17RemapGenericFloatI18TexFormatRGBAFloat17TexFormatRGBAHalfEEvPKNS_9InnerInfoE
Bj:_emscripten_glCompressedTexSubImage2D
EBa:__ZN13GfxDeviceGLES22MemoryBarrierImmediateEyN2gl17MemoryBarrierTypeE
xGl:__ZNK15dense_hashtableINSt3__24pairIK10KeyWrapperINS1_IPK12PropertyInfoP11Il2CppClassEEEjEES9_17ReflectionMapHashIS8_EN14dense_hash_mapIS9_jSD_19ReflectionMapEqualsIS8_ENS0_9allocatorISB_EEE9SelectKeyESG_SI_E12test_deletedEj
yn:_abort
APl:__ZN6il2cpp6icalls8mscorlib6System4Type18internal_from_nameEP12Il2CppStringbb
dka:__ZN6prcoreL26RemapGenericFloatToIntegerI18TexFormatARGBFloat17TexFormatARGB8888EEvPKNS_9InnerInfoE
MZl:__ZN6il2cpp6icalls8mscorlib6System10Reflection9MonoField16GetValueInternalEP21Il2CppReflectionFieldP12Il2CppObject
zZb:__ZN6Object27GetOffsetOfInstanceIdMemberEv
lte:_cff_ps_has_glyph_names
u2k:_InvokableCall_1__ctor_m2837611051_gshared
m8d:__ZN5physx15writeWordBufferEPKtjbRNS_14PxOutputStreamE
xLj:_EqualityComparer_1__ctor_m1389939323_gshared
Mjk:_Transform_1_EndInvoke_m1025924012_gshared
aGh:__ZL81Il2CppArray_CustomAttributesCacheGenerator_Array_GetValue_m3550694941____indices0P21CustomAttributesCache
bMf:_ReadOnlyCollection_1_System_Collections_Generic_ICollectionU3CTU3E_get_IsReadOnly_m2873538493_gshared
Mmk:_PatternCompiler_EmitPosition_m3013268572
UAh:_X509SubjectKeyIdentifierExtension__ctor_m1109455121
ADf:_Collection_1_SetItem_m2707773254_gshared
Oll:__ZL24UnresolvedVirtualCall_45P12Il2CppObject19DateTime_t693205669PK10MethodInfo
ltg:_Graphic_CreateColorFromAlpha_m2614574534
kef:_UnicodeEncoding_GetHashCode_m2443440683
Lrc:__Z44Register_UnityEngine_GUIStyle_SetDefaultFontv
OLi:_GenericTypeParameterBuilder_GetPropertyImpl_m3566422383
VVl:__GLOBAL__sub_I_ThreadImpl_cpp
_Qb:__Z18Transfer_BlittableI18StreamedBinaryReadILb1EELb1EiEvRK29SerializationCommandArgumentsR31RuntimeSerializationCommandInfo
EB:__ZN9BlobWrite8TransferI22OffsetPtrArrayTransferIKN4math7_float3EEEEvRT_PKc17TransferMetaFlags
C3e:_TripleDES_IsWeakKey_m483013953
gyh:_X509Certificate2_get_PrivateKey_m2662162956
Qyi:_TweenerCore_3_UpdateDelay_m1266215114_gshared
k1c:__ZN5physx2Sc7BodySim37checkSleepReadinessBesidesWakeCounterEv
YQb:__Z18Transfer_BlittableI18StreamedBinaryReadILb1EELb1EsEvRK29SerializationCommandArgumentsR31RuntimeSerializationCommandInfo
eHl:__ZN15dense_hashtableINSt3__24pairIK10KeyWrapperINS1_IPK9EventInfoP11Il2CppClassEEEjEES9_17ReflectionMapHashIS8_EN14dense_hash_mapIS9_jSD_19ReflectionMapEqualsIS8_ENS0_9allocatorISB_EEE9SelectKeyESG_SI_E13clear_deletedER30dense_hashtable_const_iteratorISB_S9_SD_SK_SG_SI_E
Zy:__ZN26AnimatorControllerPlayable17IsMultithreadableEv
l6f:__ZN16VirtFuncInvoker0IP27NumberFormatInfo_t104580544E6InvokeEjPv
kBj:_Physics2D__cctor_m3532647019
Q7e:_Single_System_IConvertible_ToSByte_m3757385387
Iij:__Z51RuntimeInvoker_Boolean_t3825574718_Slot_t2022531261PK10MethodInfoPvPS2_
pKg:_StreamAsyncResult_SetComplete_m2141125667
Lma:__ZL21SetAnisoLimitEnumImplN7Texture20AnisotropicFilteringEb
tDe:__ZN22BaseUnityConnectClient17OnEnterStateReadyEv
Ztd:__ZNK5physx22NpParticleBaseTemplateINS_16PxParticleSystemENS_16NpParticleSystemEE15getMaxParticlesEv
Qed:__ZN5physx2Sc16ArticulationCore14setWakeCounterEf
kzd:__ZN5physx2Sc10NPhaseCore24createTriggerInteractionERNS0_8ShapeSimES3_NS_7PxFlagsINS_10PxPairFlag4EnumEtEE
ztc:__ZN8JSONRead18TransferStringDataI8UnityStrEEvRT_
QJa:__ZN15dense_hashtableINSt3__24pairIKNS0_12basic_stringIcNS0_11char_traitsIcEE13stl_allocatorIcL18MemLabelIdentifier54ELi16EEEEP20ArchiveStorageReaderEES8_11djb2_hash_tIS8_EN14dense_hash_mapIS8_SB_SE_NS0_8equal_toIS8_EES5_ISC_LS6_54ELi16EEE9SelectKeyESH_SI_E13set_empty_keyERKSC_
Rfm:__ZNKSt3__210moneypunctIcLb1EE14do_frac_digitsEv
MLc:__ZN5physx2Gu9ContainerD2Ev
zwj:_Keyframe_get_tangentMode_m1869200796_AdjustorThunk
kgc:__Z29Input_CUSTOM_GetMouseButtonUpi
CNc:__ZN5physx2Gu12selectNormalEhff
CAl:__ZN6il2cpp6icalls8mscorlib6System8MonoType16InternalGetEventEP20Il2CppReflectionTypeP12Il2CppStringi
BBj:_Quaternion_INTERNAL_CALL_Internal_ToEulerRad_m1077217777
B5j:_UInt32_System_IConvertible_ToUInt32_m1257480358_AdjustorThunk
WMg:_StreamWriter__ctor_m2615016597
Q5f:_Convert_ToUInt32_m3085255294
Wme:_UNITY_tt_face_load_maxp
vgc:__Z46Input_CUSTOM_INTERNAL_set_compositionCursorPosRK13Vector2fIcall
lx:__ZN7mecanim5human12FullBodyMaskEv
zsd:__ZN5physx3Scb14ParticleSystem16releaseParticlesEjRKNS_16PxStrideIteratorIKjEE
TSh:__ZL98Activator_t1850728717_CustomAttributesCacheGenerator_Activator_CreateInstance_m1465989661____args1P21CustomAttributesCache
L_:__ZN19ShaderPropertySheet11ComputeHashEv
_wj:__ZN23InterfaceActionInvoker4IiP18Object_t1021602117P8String_tP24ObjectU5BU5D_t3614634134E6InvokeEjP11Il2CppClassPviS1_S3_S5_
kFd:__ZN5physx2Sc5Scene21processLostTouchPairsEv
Rzc:__ZN12b2EPCollider24ComputePolygonSeparationEv
xt:__ZN4PPtrI6ObjectE8TransferI18StreamedBinaryReadILb1EEEEvRT_
Ymh:_Context_ClearKeyInfo_m205678623
Tog:_ColorTween_get_tweenMode_m2919867230_AdjustorThunk
vk:_llvm_fabs_f32
Fng:_CanvasScaler_HandleScaleWithScreenSize_m80056230
a_h:__ZL89GameObject_t1756533147_CustomAttributesCacheGenerator_GameObject_AddComponent_m3757565614P21CustomAttributesCache
kcl:_TrailRenderer_get_startWidth_m1625094787
Lzl:__ZNK6il2cpp5utils10functional6FilterINSt3__212basic_stringIcNS3_11char_traitsIcEENS3_9allocatorIcEEEENS0_11StringUtils21CaseSensitiveComparerEEclIPKcEEbRKT_
$Li:_GenericTypeParameterBuilder_get_AssemblyQualifiedName_m902593295
BTd:__ZN5physx22PxcContactConvexConvexERKNS_2Gu13GeometryUnionES3_RKNS_11PxTransformES6_RKfRNS_10PxcNpCacheERNS0_13ContactBufferE
d_j:_UTF7Encoding_InternalGetBytes_m2772055844
hNj:_EqualityComparer_1__ctor_m831468288_gshared
UMc:__ZNK5physx2Gu11ConvexHullV12HillClimbingERKNS_6shdfnd3aos5Vec3VE
ATe:_Tweener_DOStartupDurationBased_TisVector3_t2243707580_TisVector3_t2243707580_TisVectorOptions_t293385261_m1407234581_gshared
rFb:__ZL29CanTransferTypeAsNestedObjectI18TransferField_InfoEbRKT_
dzd:__ZNK5physx2Sc17ParticleSystemSim7getCoreEv
Q3g:_SimpleCollator__cctor_m2693747668
hag:_Decimal_CompareTo_m2454501434_AdjustorThunk
X1:__ZN14SafeBinaryReadD2Ev
i4j:_UInt16_System_IConvertible_ToChar_m4055364664
nsd:__ZN5physx2Sc18ParticleSystemCore10setDampingEf
l_b:__Z13RegisterClassI7TextureEvv
yqk:_ExpressionCollection_OnValidate_m1703610065
fFk:_Playable_INTERNAL_CALL_GetPlayStateInternal_m3560305748
Mv:__ZNK21AnimationClipPlayable7GetTimeEv
aqb:__ZN8Gradient8TransferI18StreamedBinaryReadILb1EEEEvRT_
ikk:_Enumerator_Dispose_m2369319718_AdjustorThunk
vUh:__ZL79Convert_t2607082565_CustomAttributesCacheGenerator_Convert_ToUInt16_m3991499696P21CustomAttributesCache
jlf:__ZN23InterfaceActionInvoker2IP23SingleU5BU5D_t577127397iE6InvokeEjP11Il2CppClassPvS1_i
fyi:_TweenerCore_3_Validate_m3999115877_gshared
WZc:__ZN5physx2Sc10NPhaseCore16deleteFilterPairEPNS0_10FilterPairE
vrc:__Z45Register_UnityEngine_GUIStyle_SetFontInternalv
TEc:__ZN19CollisionListener2DD0Ev
jKg:__ZN16VirtFuncInvoker5IP12Il2CppObjectP22ByteU5BU5D_t3397334013iiP24AsyncCallback_t163412349S1_E6InvokeEjPvS3_iiS5_S1_
Buf:_Enumerator_Dispose_m1520016780_AdjustorThunk
bbb:__ZN15dense_hashtableINSt3__24pairIKNS0_12basic_stringIcNS0_11char_traitsIcEENS0_9allocatorIcEEEES7_EES7_11djb2_hash_tIS7_EN14dense_hash_mapIS7_S7_SB_NS0_8equal_toIS7_EE13stl_allocatorIS9_L18MemLabelIdentifier54ELi16EEE9SelectKeyESE_SH_ED2Ev
Mlf:_List_1_set_Item_m3717668114_gshared
Bde:_PxCreateBasePhysics
Wk:_SDL_PauseAudio
BXg:_DOTween__ctor_m3410313657
wBl:_il2cpp_class_from_type
xRf:_Array_Sort_m2323017822
g0l:_GC_clear_mark_bit
t2g:_ShortcutExtensions_DORestart_m3156056520
xrj:_GUILayoutUtility__cctor_m2957755459
hdc:__Z48Register_UnityEngine_Camera_set_orthographicSizev
W1c:__ZN5physx2Sc5Scene28addActiveBreakableConstraintEPNS0_13ConstraintSimE
n$:__ZN9ShaderLab19CommonPropertyNames16StaticInitializeEPv
Vgd:__ZN5physx6shdfnd8PoolBaseINS_16NpParticleSystemENS0_19ReflectionAllocatorIS2_EEE15disposeElementsEv
Uqa:__ZN17ShaderPassContext8CopyFromERKS_
sla:__ZN13MemoryManager31DisallowAllocationsOnThisThreadEv
IBj:_Quaternion_Euler_m3586339259
iD:__ZN7mecanim9animation18CreateAvatarOutputEPKNS0_14AvatarConstantEbbRNS_6memory9AllocatorE
sce:__ZN5physx7profile11EventBufferINS_24PxDefaultContextProviderENS_6shdfnd6MutexTINS0_26WrapperReflectionAllocatorIhEEEENS0_14ScopedLockImplIS7_EENS_24PxProfileNullEventFilterEE10eventValueEtyx
Vri:_CspParameters__ctor_m2546931874
cM:__ZN11AudioSource23VirtualRedirectTransferER24GenerateTypeTreeTransfer
VQc:__ZN5physx2Gu11getBoxEdgesEv
tCe:__ZN14UnityAnalytics15SendCustomEventERN11UnityEngine9Analytics15UserCustomEventE
Xsb:__ZN14Texture2DArray23VirtualRedirectTransferER14SafeBinaryRead
IVa:__ZNK6Camera21CalculateCanDoShadowsEv
KDd:__ZNK5physx2Sc5Scene17getBroadPhaseCapsERNS_16PxBroadPhaseCapsE
YIj:_Dictionary_2_make_pair_m2631942124_gshared
Idd:__ZN5physx9NpFactory14onActorReleaseEPNS_7PxActorE
Wtl:__ZN14dense_hash_mapI10KeyWrapperINSt3__212basic_stringIcNS1_11char_traitsIcEENS1_9allocatorIcEEEEEP11Il2CppClassN6il2cpp5utils11StringUtils12StringHasherIS7_EENS1_8equal_toIS8_EENS5_INS1_4pairIKS8_SA_EEEEEC2EjRKSF_RKSH_
ttg:_Graphic__cctor_m1643894470
AYl:__ZN6il2cpp2os6Thread12SetStackSizeEj
Dyh:_X509ChainElementEnumerator_get_Current_m2232618221
Y3c:__ZN5physx2Sc5Actor15onElementAttachERNS0_7ElementE
vxf:_Collection_1_Clear_m3860339101_gshared
CCb:__ZNK20ArchiveStorageReader15HasStreamBlocksEv
s7b:__ZNK8Renderer16IsVisibleInSceneEv
j9i:__Z44RuntimeInvoker_AnimatorStateInfo_t2577870592PK10MethodInfoPvPS2_
aVj:_ScrollRect_set_onValueChanged_m3957749575
eY:__Z13VFormatBufferPciPKcz
_rd:__ZN5physx2Sc18ParticleSystemCore23setSimulationFilterDataERKNS_12PxFilterDataE
YOb:__Z18Transfer_BlittableI18StreamedBinaryReadILb0EELb1EhEvRK29SerializationCommandArgumentsR31RuntimeSerializationCommandInfo
_Mh:__ZL90SafeHandle_t2733794115_CustomAttributesCacheGenerator_SafeHandle_get_IsInvalid_m3910183075P21CustomAttributesCache
mvg:_Image_GenerateSimpleSprite_m4275440988
LBk:_Display_get_systemHeight_m3377672024
Z4j:_UInt16_ToString_m3280699191
Wfl:_UnityEvent_1_GetDelegate_m2566156550_gshared
hka:__ZN6prcoreL27StretchGenericFloatBilinearI15TexFormatRFloatEEvPKNS_9InnerInfoE
TJd:__ZN5physx6shdfnd8internal8HashBaseINS0_4PairIKNS_2Sq13PrunerPayloadEjEES5_NS0_4HashIS5_EENS1_11HashMapBaseIS5_jS9_NS0_9AllocatorEE6GetKeyESB_Lb1EE15reserveInternalEj
VNh:__ZL62IDynamicMessageSink_t3056162262_CustomAttributesCacheGeneratorP21CustomAttributesCache
FWi:__Z33RuntimeInvoker_UInt32_t2149682021PK10MethodInfoPvPS2_
jVi:__Z130RuntimeInvoker_Int32_t2071877448_Il2CppObject_Int32_t2071877448_Int32_t2071877448_Il2CppObject_Int32_t2071877448_Int32_t2071877448PK10MethodInfoPvPS2_
SOe:_Array_InternalArray__IEnumerable_GetEnumerator_TisBoolean_t3825574718_m798244337_gshared
erf:_List_1_CopyTo_m158925060_gshared
beb:__ZN4core20StringStorageDefaultIcE6assignERKS1_
Y7h:__ZL68U3CU3Ec__DisplayClass51_0_t1424691307_CustomAttributesCacheGeneratorP21CustomAttributesCache
l_i:__Z102RuntimeInvoker_Il2CppObject_Int32_t2071877448_Int32_t2071877448_Il2CppObject_Il2CppObject_Il2CppObjectPK10MethodInfoPvPS2_
GDb:__ZN39AssetBundleLoadFromStreamAsyncOperationC2ERKNSt3__212basic_stringIcNS0_11char_traitsIcEENS0_9allocatorIcEEEE
fRe:_Array_IndexOf_TisCustomAttributeNamedArgument_t94157543_m745056346_gshared
Ila:__Z33scripting_unity_engine_object_newP11Il2CppClassP6Object
Hxl:__ZN6il2cpp2vm13MetadataCache28GetFieldDefaultValueForFieldEPK9FieldInfo
Tek:_DefaultComparer_Compare_m3277849110_gshared
aBi:_ArrayReadOnlyList_1_ReadOnlyError_m2289309720_gshared
Qx:__ZN27AnimationLayerMixerPlayableD2Ev
Yyl:__ZN6il2cpp2vm8basepathEPKc
ENd:__ZN5physx2Gu22gjkRelativePenetrationINS0_9TriangleVENS0_8CapsuleVEEEjRKT_RKT0_RKNS_6shdfnd3aos15PsMatTransformVERKNSB_6FloatVERNSB_5Vec3VESJ_SJ_RSF_PhSL_Rh
y3:__ZNSt3__212basic_stringIcNS_11char_traitsIcEE13stl_allocatorIcL18MemLabelIdentifier1ELi16EEE9push_backEc
U8d:__ZN9Rigidbody14SetIsKinematicEb
KKj:_DefaultComparer_GetHashCode_m320514092_gshared
cih:_PKCS1_Verify_v15_m478274703
RVj:_ScrollRect_CalculateLayoutInputHorizontal_m2532225422
qI:__ZN12AudioManager39HandlePendingAudioConfigurationCallbackEv
Fla:__ZNK8Material16MarkDependenciesER27GarbageCollectorThreadState
V0a:__Z20RequiredComponentsOfP11Il2CppClass
DFk:_GenericMixerPlayable_InternalCreate_m559491731
Vl:_emscripten_glIsFramebuffer
HCa:__ZNK13TranslateGLES9GetFormatE13TextureFormat17TextureColorSpace
Ytb:__ZN12_GLOBAL__N_16qAtan2Eff
dge:__Z13RegisterClassI9RigidbodyEvv
Lcm:__ZNSt3__215__num_get_floatIfEET_PKcS3_Rj
Z4f:_Convert_ToInt64_m954367741
Yl:_JS_Sound_SetLoopPoints
BWf:_ArrayList__ctor_m1467563650
DM:__ZN12AudioManager17ShouldSourcePauseEb
X8h:__ZL110TweenSettingsExtensions_t2285462830_CustomAttributesCacheGenerator_TweenSettingsExtensions_OnUpdate_m180692626P21CustomAttributesCache
h3l:__ZN6il2cpp2vm26MetadataAllocGenericMethodEv
fEa:__ZN19ConstantBuffersGLES12RecordRenderEv
ZXc:__ZN18PhysxJobDispatcher10submitTaskERN5physx10PxBaseTaskE
Hcl:_Transform_INTERNAL_set_rotation_m3703763817
tmb:__ZN18AsyncUploadManager22UploadStreamingTextureEP28FileTextureUploadInstruction
Xvc:__ZN9JSONWrite8TransferI10RectOffsetEEvRT_PKc17TransferMetaFlags
lza:__ZN4crnd12symbol_codec11decode_bitsEj
wkm:__ZNSt3__212basic_stringIwNS_11char_traitsIwEENS_9allocatorIwEEE7reserveEj
tVk:_X509Crl_get_Extensions_m1795830276
Szc:__ZN15b2CircleContact8EvaluateEP10b2ManifoldRK11b2TransformS4_
yZe:_Array_Sort_TisRaycastResult_t21186376_TisRaycastResult_t21186376_m38820193_gshared
ouk:_Animator_ResetTriggerString_m1445965342
N3j:_Type_GetGenericTypeDefinition_m2658530753
Z3b:__ZN21FixedBehaviourManagerD0Ev
u0h:__ZL55RaycastHit2D_t4063908774_CustomAttributesCacheGeneratorP21CustomAttributesCache
wJg:_StreamReader__ctor_m3454466728
nvc:__ZL17Transfer_GUIStyleI9JSONWriteLb0EEvRK29SerializationCommandArgumentsR31RuntimeSerializationCommandInfo
owa:__ZNK18GfxFramebufferGLES15GetSamplesCountEv
CUb:__ZNSt3__26vectorIN9ShaderLab20SerializedSubProgram15MatrixParameterENS_9allocatorIS3_EEE26__swap_out_circular_bufferERNS_14__split_bufferIS3_RS5_EE
ydl:_Vector2_get_Item_m2792130561
ula:__Z16MarkDependenciesR27GarbageCollectorThreadStatej
Sdm:__ZNSt3__27num_putIwNS_19ostreambuf_iteratorIwNS_11char_traitsIwEEEEED0Ev
vAh:_X509ChainElementEnumerator_Reset_m3832280427
Tai:__ZL75EventSystem_t3466835263_CustomAttributesCacheGenerator_U3CU3Ef__mgU24cache0P21CustomAttributesCache
HRg:_MulticastDelegate_RemoveImpl_m2024746777
Ong:_CanvasUpdateRegistry_ParentCount_m2367607495
BRg:_MulticastDelegate_Equals_m3064081489
Bfj:__Z54RuntimeInvoker_Void_t1841601450_ColorBlock_t2652774230PK10MethodInfoPvPS2_
Sdh:_Activator_CreateInstance_m1465989661
e$:__ZNK9Transform11GetPositionEv
Agd:__ZN5physx12NpConstraint8requiresERNS_23PxProcessPxBaseCallbackE
DKk:__ZN21InterfaceFuncInvoker1IP8String_tS1_E6InvokeEjP11Il2CppClassPvS1_
_hj:__Z93RuntimeInvoker_Il2CppObject_Il2CppObject_Rect_t3681755626_Single_t2076509932_SByte_t454417549PK10MethodInfoPvPS2_
rFk:_Playable_INTERNAL_CALL_GetDurationInternal_m2061318387
wSa:__ZN23SharedMeshRenderingData18UnloadVertexStreamEi
Xel:_Vector4_set_Item_m3077071044
Isg:__ZN16VirtFuncInvoker0IP19Material_t193706927E6InvokeEjPv
OWc:__ZN5physx3Cct13HandleManager3AddEPv
B4b:__ZN31CanvasBatchIntermediateRenderer11AddSubBatchERK16DrawBuffersRangePK19ShaderPropertySheet
sci:__ZL104PointerEventData_t1599784723_CustomAttributesCacheGenerator_PointerEventData_set_scrollDelta_m4002219844P21CustomAttributesCache
b3b:__ZN19RenderEventsContextC2Ei
$P:__Z6simd4fRKf
F2k:_InvokableCall_3_Find_m3470456112_gshared
tVe:_Array_InternalArray__ICollection_CopyTo_TisColor32_t874517518_m379086718_gshared
CXj:_Slider_ClampValue_m2851810895
zm:_emscripten_glEnable
Zrj:_GUISkin_set_font_m4009958323
Vfl:_UnityEvent_1_FindMethod_Impl_m3813546_gshared
jUl:__ZN6il2cpp2gc16GarbageCollector29RegisterFinalizerForNewObjectEP12Il2CppObject
Ydb:__ZN10TagManager23VirtualRedirectTransferER14SafeBinaryRead
M2d:__ZNK5physx2Sc15ClothFabricCore9getNbSetsEv
NIk:_MarshalAsAttribute__ctor_m1892084128
qme:_UNITY_FT_Init_Class_ft_grays_raster
m6i:__Z53RuntimeInvoker_Void_t1841601450_Vector3U26_t425862308PK10MethodInfoPvPS2_
QYa:__Z15InitLightMeshesv
OSh:__ZL97WaitHandle_t677569169_CustomAttributesCacheGenerator_WaitHandle_t677569169____Handle_PropertyInfoP21CustomAttributesCache
RCd:__ZNK5physx7NpScene26getNbContactDataBlocksUsedEv
ail:_KeyValuePair_2_ToString_m1391611625_AdjustorThunk
Rp:FUNCTION_TABLE_iifiii
PTl:__ZNK10KeyWrapperIP12Il2CppObjectEeqERKS2_
ySc:__ZN5physx2Gu29computeCapsule_HeightFieldMTDERKNS_21PxHeightFieldGeometryERKNS_11PxTransformERNS0_8CapsuleVEffbjRNS_10PxSweepHitE
oyd:__ZNK5physx2Cm12DelegateTaskINS_7NpSceneEXadL_ZNS2_14executeCollideEPNS_10PxBaseTaskEEEE7getNameEv
d4d:__ZN5physx2Gu11HeightField15exportExtraDataERNS_22PxSerializationContextE
Pqb:__ZN15QualitySettings8TransferI19StreamedBinaryWriteILb0EEEEvRT_
Vjf:_List_1_System_Collections_Generic_IEnumerableU3CTU3E_GetEnumerator_m1503548298_gshared
$Mb:__Z18Transfer_BlittableI19StreamedBinaryWriteILb0EELb1E8Vector2fEvRK29SerializationCommandArgumentsR31RuntimeSerializationCommandInfo
lre:_cf2_arrstack_init
Vql:__ZN30dense_hashtable_const_iteratorINSt3__24pairIK10KeyWrapperIPK22Il2CppGenericParameterEP11Il2CppClassEES6_N6il2cpp5utils11PointerHashIS4_EEN14dense_hash_mapIS6_S9_SE_NS0_8equal_toIS6_EENS0_9allocatorISA_EEE9SelectKeyESH_SJ_EppEv
EMh:__ZL65ClassInterfaceAttribute_t910653559_CustomAttributesCacheGeneratorP21CustomAttributesCache
zgk:__ZN16VirtFuncInvoker2Ii19Vector2_t2243707579S0_E6InvokeEjPvS0_S0_
uVg:_Sequence__ctor_m3160015202
SV:__Z15CleanLogHandler7LogTypePKcz
QWb:__ZN9ShaderLab19SerializedSubShader8TransferI19StreamedBinaryWriteILb0EEEEvRT_
Wid:__ZN5physx10NpMaterialC2ERKNS_2Sc12MaterialCoreE
nvf:_Collection_1_GetEnumerator_m2335365998_gshared
BN:__ZN14AudioBehaviour15ThreadedCleanupEv
wWd:__ZN5physx9PxTaskMgr10resolveRowEjb
xE:__ZN10HumanTrait12CleanupClassEv
SEb:__ZN6Camera17RemoveImageFilterERK11ImageFilter
cBa:__ZNSt3__218__insertion_sort_3IR25ValueParameterArraySorterPN20GpuProgramParameters14ValueParameterEEEvT0_S6_T_
uZf:_CaseInsensitiveHashCodeProvider_AreEqual_m2456617355
awh:_WebHeaderCollection__ctor_m4088938710
zQj:_LayoutUtility_GetLayoutProperty_m4052007472
y2k:_InvokableCall_1_Invoke_m3239892614_gshared
ZNj:_EqualityComparer_1_get_Default_m1806515335_gshared
Mml:__ZL24UnresolvedVirtualCall_97P12Il2CppObjectS0_iS0_iPK10MethodInfo
igm:__ZNKSt3__210moneypunctIwLb1EE14do_curr_symbolEv
Gmh:_Context_set_WriteSequenceNumber_m3356252710
g2d:__ZNK5physx13NpClothFabric13getRestvaluesEPfj
PPc:__ZN5physx2Gu16_gjkLocalRayCastINS0_9TriangleVENS0_11ConvexHullVEEEbRT_RT0_RKNS_6shdfnd3aos6FloatVERKNS9_5Vec3VESF_RSA_RSD_SH_f
Kv:__ZNK8Playable11GetDurationEv
lof:_List_1_Find_m928286154_gshared
aw:__ZN17AnimationPlayable28ComputeNeedsBindingRebuildedEv
ggm:__ZNKSt3__210moneypunctIwLb1EE16do_thousands_sepEv
f2c:__ZN5physx6shdfnd8PoolBaseINS_2Cm5BlockIPvLj32EEENS0_19ReflectionAllocatorIS5_EEE17releaseEmptySlabsEv
Bek:_DefaultComparer__ctor_m2859550749_gshared
Wtk:_AnimationEvent_get_functionName_m4178006856
JPd:__ZN5physx23PxsBroadPhaseContextSap21batchUpdateFewUpdatesEjRPNS_17PxcBroadPhasePairERjS4_
dTc:__ZN5physx3Cct17getSceneTimestampEPKNS0_30InternalCBData_FindTouchedGeomE
NSa:__ZNSt3__227__insertion_sort_incompleteIRPFbP10GUIElementS2_EPS2_EEbT0_S7_T_
cyh:_X509ExtensionCollection__ctor_m1324282194
pAj:_Physics_Raycast_m2874007225
oFe:__ZN18UnityConnectClient33OnPlayerSessionStateChangedStaticEPS_jyy
JIh:__ZL74CaseInsensitiveHashCodeProvider_t2307530285_CustomAttributesCacheGeneratorP21CustomAttributesCache
T6j:_UIntPtr__ctor_m3900568171_AdjustorThunk
nCi:_InternalEnumerator_1_get_Current_m1943362081_gshared
Rwa:__ZN7ApiGLES4LoadE16GfxDeviceLevelGL
Qnb:__ZN18StreamedBinaryReadILb0EE21TransferSTLStyleArrayI13dynamic_arrayI31EnlightenSystemAtlasInformationLj8EEEEvRT_17TransferMetaFlags
did:__ZN5physx9NpPhysics15createAggregateEjb
eza:__ZN4crnd12crn_unpacker22decode_color_endpointsEv
lIf:_ReadOnlyCollection_1_System_Collections_IList_Clear_m3006875897_gshared
$9d:__ZN9Rigidbody5ResetEv
Tff:_Enumerator_System_Collections_IEnumerator_get_Current_m3866069145_gshared
yAj:_Physics_Raycast_m2994111303
c5g:_PreviousInfo_t581002487_marshal_pinvoke_cleanup
xlm:__ZNK10__cxxabiv121__vmi_class_type_info16search_below_dstEPNS_19__dynamic_cast_infoEPKvib
fdm:__ZNKSt3__27num_getIwNS_19istreambuf_iteratorIwNS_11char_traitsIwEEEEE6do_getES4_S4_RNS_8ios_baseERjS8_
saa:__ZN8Material11SetPassFastEPN9ShaderLab4PassER17ShaderPassContextP6Shaderib
lmg:_AspectRatioFitter_UpdateRect_m3782072749
A3a:__ZNK13ScreenManager13GetLockCursorEv
wFe:__ZN11UnityEngine7Connect20BasePersistentValues10SaveValuesER9JSONWrite
Ffc:__Z31Renderer_Set_Custom_PropEnabledP12Il2CppObjecth
NCj:_Rect_get_max_m96665935_AdjustorThunk
Jig:_ExecuteEvents_get_pointerDownHandler_m1172742772
nWd:__ZN5physx9PxTaskMgr12addReferenceEj
iGc:__ZNSt3__27__sort4IR24RayHitsByDepthComparitorP12RaycastHit2DEEjT0_S5_S5_S5_T_
Szh:_X509CertificateEnumerator_System_Collections_IEnumerator_MoveNext_m3708362145
oUa:__Z12SetupLODFadeR9GfxDeviceR17ShaderPassContextf
NCc:__ZN26b2PolygonAndCapsuleContact6CreateEP9b2FixtureiS1_iP16b2BlockAllocator
tJc:__Z44Physics2D_CUSTOM_INTERNAL_CALL_CircleCastAllRK13Vector2fIcallfS1_fiff
hUk:_X501_ToString_m3328169518
DYa:__ZL24CollectForwardObjectsJobP27CollectForwardObjectsHeader
Sgk:_Enumerator_System_Collections_IDictionaryEnumerator_get_Entry_m345330700_gshared
dQh:__ZL53HMACSHA256_t2622794722_CustomAttributesCacheGeneratorP21CustomAttributesCache
B7h:__ZL68U3CU3Ec__DisplayClass28_0_t1881678433_CustomAttributesCacheGeneratorP21CustomAttributesCache
OPa:__Z13IsNodeVisibleRK9SceneNodeRK4AABBRK22SceneCullingParameters
Fim:__ZNSt3__27codecvtIDic11__mbstate_tED0Ev
dR:__ZN11UnityEngine15CloudWebService16SessionContainer7RestoreERK8UnityStrPvy
uOi:_EventInfo__ctor_m1190141300
cDi:_InternalEnumerator_1_MoveNext_m3585886944_gshared
rvi:_DOSetter_1_BeginInvoke_m3580342655_gshared
IAe:__Z57RectTransformUtility_CUSTOM_INTERNAL_CALL_PixelAdjustRectP12Il2CppObjectS0_R5RectTIfE
xge:__Z52Register_UnityEngine_Rigidbody_INTERNAL_get_positionv
_mi:_DelayedFixupRecord_FixupImpl_m4249966635
izm:_emscripten_glStencilMask__wrapper
vke:__ZZ29InitializeTextRenderingModulevEN40CleanUpTextRenderingGarbageCollectstruct7ForwardEv
O5g:_BigInteger_op_Implicit_m4032862257
l3:__ZN11TypeManager19ClassNameToTypeInfoEPKcb
A5g:_BigInteger_ToString_m3837784224
MRa:__ZN15RenderNodeQueue7CleanupEv
qmm:dynCall_iiiddfi
_Ja:__ZNK17ArchiveFileSystem8PositionERK13FileEntryData
eYc:__ZN16NovodexAllocator8allocateEjPKcS1_i
Pbg:_DllNotFoundException__ctor_m267198482
Nbm:__ZNSt3__215basic_streambufIcNS_11char_traitsIcEEEC2Ev
kfi:__ZL81U3CMouseDragOutsideRectU3Ec__Iterator1_t2599668326_CustomAttributesCacheGeneratorP21CustomAttributesCache
j$j:_NativeEventCalls_CreateEvent_internal_m1605829321
Ijj:__Z56RuntimeInvoker_Int32_t2071877448_ControlPoint_t168081159PK10MethodInfoPvPS2_
MZe:_Array_Sort_TisUIVertex_t1204258818_TisUIVertex_t1204258818_m1327748421_gshared
Q2h:__ZL73RuntimePlatform_t1869584967_CustomAttributesCacheGenerator_MetroPlayerX64P21CustomAttributesCache
ill:__ZL24UnresolvedVirtualCall_13P12Il2CppObjectaPK10MethodInfo
xVi:__Z65RuntimeInvoker_Int32_t2071877448_Il2CppObject_Int32U26_t455636984PK10MethodInfoPvPS2_
zYa:__ZN9ShaderLab10GrabPassesD2Ev
Rtj:_GUIStyle_set_font_m312124587
etb:__ZN14Texture2DArray13UploadTextureEv
Nfj:__Z69RuntimeInvoker_TextGenerationSettings_t2543476768_Vector2_t2243707579PK10MethodInfoPvPS2_
o7e:_SecurityFrame_t1002202659_marshal_pinvoke
Eoe:_tt_cmap14_done
jma:__ZN18AwakeFromLoadQueue25RegisterObjectInstanceIDsEv
J8d:__ZN5physx21PxProfileNameProviderD2Ev
RTf:_Buffer_BlockCopy_m1586717258
$ul:__ZN15dense_hashtableI10KeyWrapperIPK17Il2CppGenericInstES4_N6il2cpp8metadata21Il2CppGenericInstHashEN14dense_hash_setIS4_S7_NS6_24Il2CppGenericInstCompareENSt3__29allocatorIS4_EEE8IdentityES9_SC_E12maybe_shrinkEv
DPh:__ZL93X509Certificate_t283079845_CustomAttributesCacheGenerator_X509Certificate_GetName_m2354987368P21CustomAttributesCache
v$g:_UlongPlugin_GetSpeedBasedDuration_m721011258
wGh:__ZL65Il2CppArray_CustomAttributesCacheGenerator_Array_Copy_m1969461849P21CustomAttributesCache
oie:__ZN20TextRenderingPrivate19NativeTextGenerator15InsertCharacterEiPj
CDd:__ZN5physx2Sc5Scene22removeBroadPhaseRegionEj
QEi:_InternalEnumerator_1__ctor_m3589241961_AdjustorThunk
eXc:__ZN5physx2Cm12RenderBuffer5clearEv
kfg:_CompareInfo_GetSortKey_m3691382873
opd:__ZNK5physx2Sc9ClothCore21getStiffnessFrequencyEv
KBc:__ZN11b2RopeJoint24SolveVelocityConstraintsERK12b2SolverData
b9f:_DBNull_ToString_m3228904745
ZGa:__ZN14GfxDeviceStats15SetScreenParamsEiiiiii
C4h:__ZL92TweenExtensions_t405253783_CustomAttributesCacheGenerator_TweenExtensions_Rewind_m3286148139P21CustomAttributesCache
gwh:_WebHeaderCollection_AddWithoutValidate_m1479880592
c2e:_SHA1Managed_HashCore_m2658295635
$2i:__Z80RuntimeInvoker_Void_t1841601450_Int32_t2071877448_Int32_t2071877448_Il2CppObjectPK10MethodInfoPvPS2_
ULd:__ZN5physx13PxsCCDContext14postCCDAdvanceEPNS_10PxBaseTaskE
pUl:__ZNK15dense_hashtableINSt3__24pairIK10KeyWrapperIP12Il2CppObjectEN6il2cpp2gc9CachedCCWEEES5_NS7_5utils11PointerHashIS3_EEN14dense_hash_mapIS5_S9_SD_NS0_8equal_toIS5_EENS0_9allocatorISA_EEE9SelectKeyESG_SI_E13find_positionERS6_
tih:_RC4_get_IV_m506011366
qVk:_X509Crl__ctor_m2469408229
JMb:__Z18Transfer_BlittableI19StreamedBinaryWriteILb0EELb0EyEvRK29SerializationCommandArgumentsR31RuntimeSerializationCommandInfo
SMh:__ZL82SafeHandle_t2733794115_CustomAttributesCacheGenerator_SafeHandle_Close_m1146946803P21CustomAttributesCache
dhk:_Enumerator_get_CurrentValue_m3562053380_AdjustorThunk
_Ah:_X509SubjectKeyIdentifierExtension_CopyFrom_m136762226
W_:__Z12MurmurHash2APKvij
tjl:_Enumerator_System_Collections_IEnumerator_Reset_m610822832_AdjustorThunk
L5k:_U3CU3Ec__DisplayClass52_0_U3CDOLocalRotateQuaternionU3Eb__1_m703125688
cQl:__ZN6il2cpp6icalls8mscorlib6System2IO6MonoIO20GetFileSystemEntriesEP12Il2CppStringS6_iiPi
Sbk:_InternalEnumerator_1_System_Collections_IEnumerator_get_Current_m2061144652_gshared
uic:__Z41MonoBehaviour_Set_Custom_PropUseGUILayoutP12Il2CppObjecth
jje:_UNITY_FT_Open_Face
uum:_glGenRenderbuffers__wrapper
Bwk:_Bounds_ToString_m1966597703
fVg:_U3CU3Ec_U3CToEaseFunctionU3Eb__4_25_m3913216325
w6g:_BigInteger_op_Division_m1581119694
GSb:__ZN16ScriptingManagerD0Ev
$Yj:_Text_get_layoutPriority_m1088242691
vTe:_Tweener_DOStartupDurationBased_TisVector2_t2243707579_TisVector2_t2243707579_TisVectorOptions_t293385261_m2342619029_gshared
hXl:__ZNK15dense_hashtableINSt3__24pairIK10KeyWrapperIP14Il2CppIUnknownEjEES5_N6il2cpp5utils11PointerHashIS3_EEN14dense_hash_mapIS5_jSB_NS0_8equal_toIS5_EENS0_9allocatorIS7_EEE9SelectKeyESE_SG_E12test_deletedERK24dense_hashtable_iteratorIS7_S5_SB_SI_SE_SG_E
$sk:_UnityAnalyticsHandler_CustomEvent_m2884790978
Boi:_CallbackHandler_Invoke_m1498072969
Asi:_DSACryptoServiceProvider__ctor_m701823690
iSd:__ZNK5physx10BPWorkTask7getNameEv
_qj:_Mathf_Clamp_m2354025655
aIi:_CustomAttributeData_GetCustomAttributes_m2421330738
oed:__ZN5physx2Sc8ShapeSim16onResetFilteringEv
M2j:_Type_get_IsEnum_m313908919
Mdc:__Z44Register_UnityEngine_Component_get_transformv
rrf:_List_1_Reverse_m3395936565_gshared
Xec:__Z39GameObject_CUSTOM_FindGameObjectWithTagP12Il2CppString
qzf:_Collection_1_System_Collections_ICollection_CopyTo_m1335644572_gshared
jt:__ZN4PPtrI9TransformE8TransferI18StreamedBinaryReadILb1EEEEvRT_
kpf:_List_1_CheckMatch_m2830747427_gshared
R1c:__ZN5physx2Sc16ActorInteractionD2Ev
gHa:__ZN17ArchiveFileSystem12MountArchiveEPKcS1_
wbg:_StackFrame_GetMethod_m72881026
PSl:__ZN15dense_hashtableI10KeyWrapperIP18Il2CppGenericClassES3_N6il2cpp8metadata22Il2CppGenericClassHashEN14dense_hash_setIS3_S6_NS5_25Il2CppGenericClassCompareENSt3__29allocatorIS3_EEE8IdentityES8_SB_E15set_deleted_keyERKS3_
Iwc:__Z18Transfer_BlittableI9JSONWriteLb1E8Vector4fEvRK29SerializationCommandArgumentsR31RuntimeSerializationCommandInfo
p2g:_ShortcutExtensions_DOPlayBackwards_m3986309180
F0:__Z11RequireTypePKcS0_S0_
Abm:__ZThn8_NSt3__214basic_iostreamIcNS_11char_traitsIcEEED0Ev
phk:_Enumerator_System_Collections_IEnumerator_Reset_m70453843_gshared
Wed:__ZN5physx2Sc16ArticulationCore26setExternalDriveIterationsEj
hel:_Vector3_get_Item_m3616014016
Ggi:__ZL59Slider_t297367283_CustomAttributesCacheGenerator_m_MinValueP21CustomAttributesCache
nua:__ZN9GfxDevice15ImmediateVertexEfff
WZb:__Z13RegisterClassI8MaterialEvv
VQh:__ZL51Evidence_t1407710183_CustomAttributesCacheGeneratorP21CustomAttributesCache
nvd:__ZN5physx14NpRigidDynamic10clearForceENS_11PxForceMode4EnumE
Igb:__ZN16GraphicsSettings13AwakeFromLoadE17AwakeFromLoadMode
peg:_FieldAccessException__ctor_m3893881490
jaj:__Z82RuntimeInvoker_Int32_t2071877448_Rect_t3681755626_Il2CppObject_Vector2_t2243707579PK10MethodInfoPvPS2_
xDl:__ZN15dense_hashtableINSt3__24pairIK10KeyWrapperINS1_IPK14Il2CppAssemblyP11Il2CppClassEEEjEES9_17ReflectionMapHashIS8_EN14dense_hash_mapIS9_jSD_19ReflectionMapEqualsIS8_ENS0_9allocatorISB_EEE9SelectKeyESG_SI_EC2ERKSL_j
Vs:__ZN6Object13AwakeFromLoadE17AwakeFromLoadMode
bsa:__ZN13GfxDeviceGLES15SetStencilStateEPK18DeviceStencilStatei
Zwe:__ZN2UI11CanvasGroup8TransferI18StreamedBinaryReadILb1EEEEvRT_
ezf:_Collection_1_RemoveItem_m3431976150_gshared
C8l:_cycle
KZg:_PathOptions_t2659884781_marshal_pinvoke
OWh:__ZL72PKCS12_t1362584795_CustomAttributesCacheGenerator_U3CU3Ef__switchU24map5P21CustomAttributesCache
qf:_emscripten_glUniform1iv
ZYj:_Text_get_preferredHeight_m452532789
DFc:__ZN15b2DistanceProxy3SetEPK7b2Shapei
G8e:_String_System_IConvertible_ToDouble_m3860911722
n6a:__ZN16MemoryFileSystemD2Ev
ilj:__Z71RuntimeInvoker_Void_t1841601450_Int32_t2071877448_LabelData_t3712112744PK10MethodInfoPvPS2_
Mgh:_ARC4Managed__ctor_m2922048522
Aie:__Z17dynamic_pptr_castIP9Texture2D7TextureET_RK4PPtrIT0_E
Cw:__ZN7mecanim14ValueArrayLoopERKNS_10ValueArrayES2_RS0_fRKNS_14ValueArrayMaskE
CJf:_ReadOnlyCollection_1_System_Collections_IList_set_Item_m1272038804_gshared
oCi:_InternalEnumerator_1_System_Collections_IEnumerator_get_Current_m1931522460_AdjustorThunk
fDa:__ZN14DrawBufferGLESI12VertexBuffer27VertexBufferUsageMapperGLESE12EnsureBufferEj
J4e:_SecurityPermission_IsEmpty_m1869313067
Lzh:_X509CertificateCollection__ctor_m3709509050
j6:__ZN13RuntimeStaticI23MeshVertexFormatManagerE13StaticDestroyEPv
GCa:__ZN7ApiGLES15TextureSubImageEj16TextureDimensionN2gl9TexFormatEiiiiiiiiPKv
idc:__Z37Register_UnityEngine_Camera_get_depthv
N9g:_EncryptedPrivateKeyInfo_get_Salt_m2734354394
wrb:__ZN12ImmediatePtrI9TransformE8TransferI18StreamedBinaryReadILb1EEEEvRT_
xwk:_Bounds_SetMinMax_m1523110422
aMf:_ReadOnlyCollection_1_System_Collections_Generic_IListU3CTU3E_set_Item_m1918537449_gshared
Sxf:_Collection_1_System_Collections_ICollection_CopyTo_m3896480607_gshared
mjg:_PointerEventData_set_position_m794507622
S3k:_U3CU3Ec__DisplayClass20_0_U3CDOFadeU3Eb__0_m1123010412
pRd:__ZNK5physx16PxsBroadPhaseMBP18getNumDeletedPairsEv
ube:__ZN5physx7profile8ZoneImplINS_28PxProfileNameProviderForwardEE10startEventEty
m8:__ZN15dense_hashtableINSt3__24pairIKPKcPK4RTTIEES3_N11TypeManager23ConstCharPtrHashFunctorEN14dense_hash_mapIS3_S7_SA_NS9_19ConstCharPtrEqualToE13stl_allocatorIS8_L18MemLabelIdentifier6ELi16EEE9SelectKeyESC_SF_E12resize_deltaEjj
mMd:__ZN5physx10PxsCCDPair17sweepAdvanceToToiEfb
pZb:__ZN15ApplicationInfo16GetInstallerNameEv
S5a:__Z23ConvertIntegerToTypePtrItEbPvR14SafeBinaryRead
TC:__ZN7mecanim5human29HumanGetGoalOrientationOffsetENS0_4GoalE
Hf:_emscripten_glStencilFunc
y_i:__Z101RuntimeInvoker_Void_t1841601450_Il2CppObject_Il2CppObject_Il2CppObject_Il2CppObject_Int32_t2071877448PK10MethodInfoPvPS2_
qdd:__ZN5physx6shdfnd8PoolBaseINS_2Cm5BlockIhLj384EEENS0_19ReflectionAllocatorIS4_EEE17releaseEmptySlabsEv
n0d:__ZN5physx16PxsIslandManager11freeBuffersEv
bll:__ZL23UnresolvedVirtualCall_6P12Il2CppObjectiPK10MethodInfo
u1:__ZN18AwakeFromLoadQueueD2Ev
lRi:_MonoMethod_MakeGenericMethod_impl_m2063853616
$5c:__ZN5physx2Cm12DelegateTaskINS_2Sc17ParticleSystemSimEXadL_ZNS3_21prepareCollisionInputEPNS_10PxBaseTaskEEEE11runInternalEv
p7e:__Z46il2cpp_codegen_get_marshal_directive_exceptionPKc
TXb:__ZN9ShaderLab20SerializedSubProgram14AddMatrixParamEPKcii15ShaderParamTypei
Nf:_glGetActiveUniformBlockName
Dil:_KeyValuePair_2_ToString_m2613351884_gshared
ooi:__ZN16VirtFuncInvoker0I18Decimal_t724701077E6InvokeEjPv
Rzm:b183
$rg:_FontData_set_verticalOverflow_m4211463083
QGh:__ZL65Il2CppArray_CustomAttributesCacheGenerator_Array_Sort_m2090966156P21CustomAttributesCache
ODg:_Guid_AppendByte_m2890893073
Abb:__ZNK17FileSystemHandler8IsHiddenERK13FileEntryData
Ozm:b180
bVf:_Char_System_IConvertible_ToType_m3106771703_AdjustorThunk
gDh:_Interval_Intersects_m3480157390_AdjustorThunk
$gc:__Z39Quaternion_CUSTOM_INTERNAL_CALL_InverseRK11QuaternionfRS_
PNi:_OpCodeNames__cctor_m2437275178
xIk:_GCHandle_Alloc_m1063472408
nJ:__ZN4FMOD7Channel20set3DConeOrientationEP11FMOD_VECTOR
Hci:__ZL86StandaloneInputModule_t70867863_CustomAttributesCacheGenerator_m_InputActionsPerSecondP21CustomAttributesCache
Bp:FUNCTION_TABLE_iiifii
Fgk:_Comparer_1__ctor_m4052560291_gshared
DIh:__ZL52ArrayList_t4252133567_CustomAttributesCacheGeneratorP21CustomAttributesCache
$0h:__ZL54SkeletonBone_t345082847_CustomAttributesCacheGeneratorP21CustomAttributesCache
Iri:_CryptoConfig_CreateFromName_m391442950
Szm:b184
xSl:__ZN6il2cpp2vm12GenericClass11SetupEventsEP11Il2CppClass
Mue:_tt_delta_interpolate
xoe:_tt_cmap12_get_info
f0f:_SortedList__ctor_m3698381356
enj:__Z31RuntimeInvoker_Slot_t2022531261PK10MethodInfoPvPS2_
H0k:_Predicate_1_EndInvoke_m3656575065_gshared
eNg:_StreamWriter_LowLevelWrite_m4205372900
qQf:_SimpleEnumerator__ctor_m2272112645
Gkl:__ZN6il2cpp6icalls8mscorlib6System7Decimal14decimalCompareEP19il2cpp_decimal_reprS5_
y8c:__ZN5physx26PxcFsComputeJointLoadsSimdERKNS_9PxcFsDataEPKNS_12PxcFsInertiaEPNS_6shdfnd3aos6Mat33VEPKfjjNS_21PxcFsScratchAllocatorE
vPi:_Module__ctor_m3853650010
MZf:_CollectionBase_System_Collections_IList_get_Item_m2370387510
Odm:__ZNSt3__29__num_putIcE23__widen_and_group_floatEPcS2_S2_S2_RS2_S3_RKNS_6localeE
fyd:__ZN5physx6shdfnd8SyncImpl7getSizeEv
SOh:__ZL59RemotingException_t109604560_CustomAttributesCacheGeneratorP21CustomAttributesCache
OX:__Z15CreateDirectoryRKNSt3__212basic_stringIcNS_11char_traitsIcEENS_9allocatorIcEEEE
Dha:__ZNSt3__26__treeINS_12__value_typeIN9ShaderLab16FastPropertyNameE10ColorRGBAfEENS_19__map_value_compareIS3_S5_NS_4lessIS3_EELb1EEENS_9allocatorIS5_EEE12__find_equalIS3_EERPNS_16__tree_node_baseIPvEENS_21__tree_const_iteratorIS5_PNS_11__tree_nodeIS5_SF_EEiEESI_RKT_
Wvm:_glCopyTexImage2D__wrapper
_Rh:__ZL88UTF7Encoding_t741406939_CustomAttributesCacheGenerator_UTF7Encoding_GetBytes_m3015176946P21CustomAttributesCache
Pyg:_LayoutElement__ctor_m789941073
hbi:__ZL77ExecuteEvents_t1693084770_CustomAttributesCacheGenerator_U3CU3Ef__mgU24cache9P21CustomAttributesCache
lxk:_Camera_FireOnPreCull_m1679634170
hMh:__ZL68TargetInvocationException_t4098620458_CustomAttributesCacheGeneratorP21CustomAttributesCache
VVh:__ZL56RankException_t1539875949_CustomAttributesCacheGeneratorP21CustomAttributesCache
PUc:__ZN5physx11PxHitBufferINS_12PxRaycastHitEED0Ev
iBg:_NumberFormatter_CountTrailingZeros_m2398864634
Blf:_List_1_RemoveAll_m1135879711_gshared
Tym:_emscripten_glValidateProgram__wrapper
Xch:___Il2CppComDelegate_t3311706788_create_ccw
Fja:__ZN6prcoreL17RemapGenericFloatI14TexFormatRHalf15TexFormatRFloatEEvPKNS_9InnerInfoE
BYa:__Z16ShouldUseShadowsb
Nok:_Regex_GroupNumberFromName_m3228736983
ksh:_TlsStream_SetLength_m1460039587
All:__ZL24UnresolvedVirtualCall_31P12Il2CppObjectiS0_S0_PK10MethodInfo
cOc:__ZN5physx2Gu24contactSphereHeightFieldERKNS0_13GeometryUnionES3_RKNS_11PxTransformES6_RKfRNS0_5CacheERNS0_13ContactBufferE
lkj:__Z55RuntimeInvoker_Int32_t2071877448_UICharInfo_t3056636800PK10MethodInfoPvPS2_
Zza:__ZN7ApiGLES10DrawArraysE16GfxPrimitiveTypejjj
uCk:_Event_PopEvent_m1952528237
mKc:__ZN5physx3Cct13BoxController15getPxControllerEv
ZG:__ZN10SampleClip13LoadBaseSoundEv
xQc:__ZN5physx2Gu22gjkRelativePenetrationINS0_17ShrunkConvexHullVES2_EEjRKT_RKT0_RKNS_6shdfnd3aos15PsMatTransformVERKNSA_6FloatVERNSA_5Vec3VESI_SI_RSE_PhSK_Rh
yXd:__ZN5physx26PxcFrictionPatchStreamPair5resetEv
CTh:__ZL80Convert_t2607082565_CustomAttributesCacheGenerator_Convert_ToDecimal_m2736745817P21CustomAttributesCache
lvj:_GUIStyleState__ctor_m2708667747
XYi:__Z62RuntimeInvoker_Il2CppObject_Int32_t2071877448_SByte_t454417549PK10MethodInfoPvPS2_
oDf:_Collection_1_Contains_m643401393_gshared
l1d:__ZN5physx2Sc19ParticlePacketShapeC2ERNS0_17ParticleSystemSimEjPNS_16PxvParticleShapeE
ebl:_TextGenerator_Populate_m4139823822
Lha:__ZN22DeviceMVPMatricesStateC2ER9GfxDevice
Rok:_Regex_IsMatch_m1286520424
fid:__ZN5physx9NpPhysics18createTriangleMeshERNS_13PxInputStreamE
Tp:FUNCTION_TABLE_iiiiifiiiif
t1i:__Z48RuntimeInvoker_Int64_t909078037_Int64_t909078037PK10MethodInfoPvPS2_
y8e:_String__ctor_m372528291
f8:__ZN6Object16StaticInitializeEv
gZd:__ZN5physx2Cm12DelegateTaskINS_2Sc5SceneEXadL_ZNS3_14updateDynamicsEPNS_10PxBaseTaskEEEED0Ev
eJl:__ZN6il2cpp2vm10Reflection12HasAttributeEP9FieldInfoP11Il2CppClass
Sla:__ZNSt3__26__treeIiNS_4lessIiEE13stl_allocatorIiL18MemLabelIdentifier1ELi16EEE7destroyEPNS_11__tree_nodeIiPvEE
Nd:invoke_viiifi
Vbi:__ZL104PointerEventData_t1599784723_CustomAttributesCacheGenerator_PointerEventData_get_pointerDrag_m2740415629P21CustomAttributesCache
g0h:__ZL79Physics_t634932869_CustomAttributesCacheGenerator_Physics_RaycastAll_m233036521P21CustomAttributesCache
pQg:_LongComparer_Compare_m3981323622
RWi:__Z64RuntimeInvoker_UInt64_t2909196914_Il2CppObject_Int32_t2071877448PK10MethodInfoPvPS2_
z5d:__ZN5physx6shdfnd5ArrayIPNS_7PxActorENS0_19ReflectionAllocatorIS3_EEE8recreateEj
uii:__ZL109LayoutUtility_t4076838048_CustomAttributesCacheGenerator_LayoutUtility_U3CGetFlexibleHeightU3Em__7_m947156537P21CustomAttributesCache
JFc:__ZNSt3__27__sort4IRN15Cast2DQueryBase14FixtureContactEPS2_EEjT0_S5_S5_S5_T_
OXj:_Slider_FindSelectableOnUp_m15474611
Wpa:__ZNK11AssetBundle14GetPreloadDataEiR13dynamic_arrayIiLj4EE
Wah:_EncryptedData_get_EncryptedContent_m2732115576
Gcm:__ZNSt3__215__num_get_floatIeEET_PKcS3_Rj
G9l:_strstr
Wg:_JS_Sound_SetPosition
cok:_Assertion_set_FalseExpression_m1781616372
WAh:_X509SubjectKeyIdentifierExtension_FromHexChars_m2515150420
Mna:__ZNK9Texture3D26CanReuploadDataToGfxDeviceEv
fxl:__ZL13GetSharedInstPK17Il2CppGenericInst
xHh:__ZL51IReflect_t3412036974_CustomAttributesCacheGeneratorP21CustomAttributesCache
qlg:_StandaloneInputModule_SendSubmitEventToSelectedObject_m3421155293
j_g:_VectorOptions_t293385261_marshal_pinvoke
Yzk:_Component_GetComponentsInChildren_m908027537
UYg:_DoublePlugin_ConvertToStartValue_m2828371137
IDe:__ZN22BaseUnityConnectClient17SaveSessionValuesEv
WMk:_CallContextRemotingData_Clone_m2226242476
AUf:_Byte_System_IConvertible_ToUInt32_m3950610247
Dld:__ZNK5physx7NpCloth14getNbParticlesEv
a_c:__ZN5physx2Sc10NPhaseCore24releaseShapeInstancePairEPNS0_19ShapeInstancePairLLEjj
p4h:__ZL67U3CU3Ec__DisplayClass2_0_t2066423765_CustomAttributesCacheGeneratorP21CustomAttributesCache
GYa:__Z24SetupActiveLightsContextR21ActiveLightingContextRK12ActiveLightsRK11CullResultsP14ShadowMapCacheRK10MinMaxAABB
VHj:_Dictionary_2_System_Collections_Generic_ICollectionU3CSystem_Collections_Generic_KeyValuePairU3CTKeyU2CTValueU3EU3E_Contains_m3400497673_gshared
Dkc:__Z38Sprite_CUSTOM_INTERNAL_get_textureRectP12Il2CppObjectP5RectTIfE
Z8f:_DBNull_System_IConvertible_ToUInt32_m2681284284
NYg:_Path_Draw_m3671593897
Gvj:_HumanBone_set_boneName_m2410239828_AdjustorThunk
Efb:__ZN6Camera8TransferI24GenerateTypeTreeTransferEEvRT_
x$k:_Nullable_1_GetHashCode_m572762171_gshared
LMj:_EqualityComparer_1__cctor_m416314417_gshared
eb:invoke_iiiiiiif
Xa:invoke_iiiiiiii
nDb:__ZN24RingBufferMemoryFileData16ConsumeReadBytesEy
MPd:__ZN5physx21SapPostUpdateWorkTaskD0Ev
nIa:__ZN15dense_hashtableINSt3__24pairIKNS0_12basic_stringIcNS0_11char_traitsIcEE13stl_allocatorIcL18MemLabelIdentifier54ELi16EEEEP20ArchiveStorageReaderEES8_11djb2_hash_tIS8_EN14dense_hash_mapIS8_SB_SE_NS0_8equal_toIS8_EES5_ISC_LS6_54ELi16EEE9SelectKeyESH_SI_E12maybe_shrinkEv
Syj:_Mesh_GetUVChannel_m364477864
nzh:_X509ChainElementCollection_Contains_m3599995067
wvm:b120
Zdd:__ZN5physx7NpActor18releaseConstraintsERNS_12PxRigidActorE
kXc:__ZN5physx6shdfnd5ArrayINS_11PxDebugLineENS0_19ReflectionAllocatorIS2_EEE8recreateEj
Evm:b125
Avm:b124
Gvm:b127
Fvm:b126
Ivm:b129
Jjc:__Z52Register_UnityEngine_RectTransform_INTERNAL_get_rectv
wTi:__Z53RuntimeInvoker_Il2CppObject_Il2CppObject_Il2CppObjectPK10MethodInfoPvPS2_
_td:__ZNK5physx22NpParticleBaseTemplateINS_16PxParticleSystemENS_16NpParticleSystemEE20getMaxMotionDistanceEv
Vtg:_GridLayoutGroup_set_spacing_m118889422
wqf:_List_1_ToArray_m2390522926_gshared
$Mh:__ZL70TypeLibImportClassAttribute_t2390314680_CustomAttributesCacheGeneratorP21CustomAttributesCache
Taa:__ZN19RenderBufferManager13GetTempBufferEii17DepthBufferFormat19RenderTextureFormatj22RenderTextureReadWrite14VRTextureUsagei
nAb:__ZN18StreamedBinaryReadILb0EE21TransferSTLStyleArrayI13dynamic_arrayI16SplashScreenLogoLj4EEEEvRT_17TransferMetaFlags
uEl:__ZNK15dense_hashtableINSt3__24pairIK10KeyWrapperINS1_IPK9FieldInfoP11Il2CppClassEEEjEES9_17ReflectionMapHashIS8_EN14dense_hash_mapIS9_jSD_19ReflectionMapEqualsIS8_ENS0_9allocatorISB_EEE9SelectKeyESG_SI_E12test_deletedERK24dense_hashtable_iteratorISB_S9_SD_SK_SG_SI_E
Svd:__ZNK5physx14NpRigidDynamic25getContactReportThresholdEv
a8e:_Single_CompareTo_m2081476257
PNe:_Array_InternalArray__ICollection_Remove_TisX509ChainStatus_t4278378721_m4127982424_gshared
mdj:__Z60RuntimeInvoker_Il2CppObject_Il2CppObject_Vector3_t2243707580PK10MethodInfoPvPS2_
zdc:__Z47Register_UnityEngine_Camera_get_allCamerasCountv
jqd:__ZN5physx22NpParticleBaseTemplateINS_15PxParticleFluidENS_15NpParticleFluidEE16releaseParticlesEv
azc:__ZN14b2CapsuleShapeD2Ev
LDe:__ZN22BaseUnityConnectClient20StartEventDispatcherEv
b7b:__ZNSt3__26vectorIj13stl_allocatorIjL18MemLabelIdentifier1ELi16EEE6assignIPKtEENS_9enable_ifIXaasr21__is_forward_iteratorIT_EE5valuesr16is_constructibleIjNS_15iterator_traitsIS9_E9referenceEEE5valueEvE4typeES9_S9_
iB:__ZN7mecanim9animation16EvaluateAvatarIKEPKNS0_14AvatarConstantEPKNS0_11AvatarInputEPNS0_12AvatarOutputEPNS0_12AvatarMemoryEPNS0_15AvatarWorkspaceEb
IAa:__ZL25ProgramUniformMatrix4x3fvPK7ApiGLESjiihPKv
j5a:__Z29StdTemplateConversionFunctionIsiEbPvR14SafeBinaryRead
PYd:__Z22updateIslandsToProcessRKN5physx2Cm10BitMapBaseINS_6shdfnd9AllocatorEEEPKjRKNS_11NodeManagerERS4_
PLj:_EqualityComparer_1_System_Collections_IEqualityComparer_Equals_m3376587337_gshared
rHh:__ZL68Type_t_CustomAttributesCacheGenerator_Type_GetConstructor_m835344477P21CustomAttributesCache
FMa:__ZN12InputManager13InputEndFrameEv
M$f:_SyncHashtable__ctor_m2029869827
Zzl:__ZNSt3__26__treeIP11Il2CppClassNS_4lessIS2_EENS_9allocatorIS2_EEE25__emplace_unique_key_argsIS2_JRKS2_EEENS_4pairINS_15__tree_iteratorIS2_PNS_11__tree_nodeIS2_PvEEiEEbEERKT_DpOT0_
VIl:__ZN15dense_hashtableINSt3__24pairIK10KeyWrapperINS1_IPK9FieldInfoP11Il2CppClassEEEjEES9_17ReflectionMapHashIS8_EN14dense_hash_mapIS9_jSD_19ReflectionMapEqualsIS8_ENS0_9allocatorISB_EEE9SelectKeyESG_SI_EC2EjRKSD_RKSG_RKSK_
LJl:__ZN6il2cpp2vm6Thread5SetupEP12Il2CppThread
jFk:_Playables_SetPlayStateValidated_m770460097
sMd:__ZN5physx35PxcSweepEstimateAnyShapeHeightfieldERKNS_11PxsCCDShapeES2_PKNS_12PxsRigidBodyES5_RKNS_11PxTransformES8_f
pNf:_ReadOnlyCollection_1_System_Collections_IList_Remove_m2200089035_gshared
FXc:__ZN5physx3Cct13BoxControllerC2ERKNS_16PxControllerDescERNS_9PxPhysicsEPNS_7PxSceneE
uKi:_EnumBuilder_get_ReflectedType_m2679108928
Nxf:_Collection_1_CheckWritable_m2756357359_gshared
R9l:___munmap
iwg:_InputField_get_characterLimit_m2386380888
rdi:__ZL68ColorBlock_t2652774230_CustomAttributesCacheGenerator_m_PressedColorP21CustomAttributesCache
L4f:_Convert_ToInt64_m1722087499
jXa:__ZN22RenderingCommandBuffer24PostExecuteCommandBufferER17ShaderPassContextP13RenderTexture
Oh:_localtime_r
z9e:__ZN16VirtFuncInvoker3IbP8String_tS1_iE6InvokeEjPvS1_S1_i
N5i:__Z80RuntimeInvoker_Il2CppObject_Ray_t2469606224_Single_t2076509932_Int32_t2071877448PK10MethodInfoPvPS2_
WSh:__ZL81AppDomain_t2719102437_CustomAttributesCacheGenerator_assembly_resolve_in_progressP21CustomAttributesCache
NMh:__ZL65InterfaceTypeAttribute_t4113096249_CustomAttributesCacheGeneratorP21CustomAttributesCache
Rh:_strftime
cba:__ZN7Texture33SetStoredColorSpaceNoDirtyNoApplyE17TextureColorSpace
mY:__ZN12FileAccessorD2Ev
Gga:__ZN10ColorRGBAf8TransferI18StreamedBinaryReadILb0EEEEvRT_
Bub:__ZN14VertexDataInfoC2Ev
keg:_Exception_GetObjectData_m2653827630
pel:_Vector3_Equals_m2692262876_AdjustorThunk
EXk:_rotate_get_Speed_m2731851336
vFi:_InternalEnumerator_1_get_Current_m2415979394_gshared
Mnh:_TlsClientHello_Update_m1723542631
GQb:__ZL17Transfer_GUIStyleI18StreamedBinaryReadILb1EELb1EEvRK29SerializationCommandArgumentsR31RuntimeSerializationCommandInfo
MUj:_ScrollRect_SetDirtyCaching_m1491302821
sAl:__ZN6il2cpp6icalls8mscorlib6SystemL9IsPrivateEPK12PropertyInfo
yMd:__ZNK5physx18PxcConvexTriangles16getPolygonNormalEj
cIi:_CustomAttributeData_GetCustomAttributes_m3258419955
o9k:_TweenSettingsExtensions_SetOptions_m937094726
t6k:_U3CU3Ec__DisplayClass63_0_U3CDOShakePositionU3Eb__1_m1559676587
y$:__ZN9shadertag10InitializeEv
Lce:__ZN5physx24NpPtrTableStorageManager8canReuseEjj
fcf:_EncoderFallback__ctor_m1639180960
qek:_InternalEnumerator_1_MoveNext_m1441038493_gshared
Mqb:__ZN15QualitySettings14QualitySetting8TransferI24GenerateTypeTreeTransferEEvRT_
gVe:_Array_InternalArray__ICollection_CopyTo_TisParameterModifier_t1820634920_m4127516211_gshared
$6e:_DecoderReplacementFallback__ctor_m2344783488
uik:_Enumerator_System_Collections_IDictionaryEnumerator_get_Key_m467957770_AdjustorThunk
IAd:__ZN5physx2Sc27ConstraintProjectionManager33processConstraintForGroupBuildingEPNS0_13ConstraintSimERNS0_20ScratchAllocatorListIS3_Lj64EEE
ysg:_GraphicRegistry_UnregisterGraphicForCanvas_m820096873
Pmc:__Z44Register_UnityEngine_Object_DestroyImmediatev
i3l:__ZN6il2cpp6icalls8mscorlib6System9Threading16NativeEventCalls19ResetEvent_internalE12Il2CppIntPtr
Zai:__ZL65EventTrigger_t1967201810_CustomAttributesCacheGenerator_delegatesP21CustomAttributesCache
Qzf:_Collection_1_Remove_m4136193368_gshared
M4f:_Decimal__ctor_m1770144563
big:_EventTrigger_OnPointerUp_m2791622548
VWj:_Shadow_set_useGraphicAlpha_m141905402
m6b:__ZN22BlockMemoryCacheWriter14LockCacheBlockEjPPhS1_
BYl:__ZN6il2cpp2os6Thread10RunWrapperEPv
loc:__ZNSt3__218__insertion_sort_3IRPFbPKN5IMGUI9GUIWindowES4_EPPS2_EEvT0_SA_T_
DPj:_GenericEqualityComparer_1_Equals_m1109000020_gshared
Ysd:__ZN5physx22NpParticleBaseTemplateINS_15PxParticleFluidENS_15NpParticleFluidEED2Ev
yli:_RealProxy_InternalGetTransparentProxy_m3415358600
Nyd:__ZN5physx2Cm29ConstraintImmediateVisualizer19visualizeDoubleConeERKNS_11PxTransformEfb
xtc:__Z22TransferField_NonArrayI8JSONRead27Converter_SimpleNativeClassI8GUIStyleEEvRK23StaticTransferFieldInfoR31RuntimeSerializationCommandInfoRT0_
BEl:__ZN15dense_hashtableINSt3__24pairIK10KeyWrapperIPK10Il2CppTypeEjEES6_N6il2cpp8metadata14Il2CppTypeHashEN14dense_hash_mapIS6_jSB_NSA_17Il2CppTypeCompareENS0_9allocatorIS8_EEE9SelectKeyESD_SF_E12resize_deltaEjj
ZKc:__ZN5physx6shdfnd5ArrayINS_13PxExtendedBoxENS0_19ReflectionAllocatorIS2_EEE8recreateEj
aSd:__ZN5physx20ProcessBPResultsTask11runInternalEv
k2c:__ZN5physx6shdfnd5ArrayIPvNS0_19ReflectionAllocatorINS_2Cm5BlockIS2_Lj16EEEEEE4copyINS0_15InlineAllocatorILj256ES7_EEEEvRKNS1_IS2_T_EE
wi:_llvm_eh_typeid_for
d4b:__Z13RegisterClassI10GameObjectEvv
ZIh:__ZL53HashValues_t2390200547_CustomAttributesCacheGeneratorP21CustomAttributesCache
Yxh:_X509BasicConstraintsExtension_get_PathLengthConstraint_m3004531343
AKh:__ZL125GenericTypeParameterBuilder_t1370236603_CustomAttributesCacheGenerator_GenericTypeParameterBuilder_GetConstructors_m103067670P21CustomAttributesCache
oBd:__ZN5physx7NpScene19getActiveTransformsERjh
wui:_DOGetter_1_Invoke_m3486946741_gshared
P_d:__ZN5physx6shdfnd5ArrayIPKNS_24PxsIndexedContactManagerENS0_19ReflectionAllocatorIS4_EEE8recreateEj
Mam:_calloc
wPg:_MissingMemberException__ctor_m4277447068
DSi:_StrongNameKeyPair_System_Runtime_Serialization_ISerializable_GetObjectData_m1693082120
WUg:_U3CU3Ec_U3CToEaseFunctionU3Eb__4_14_m3345003455
iXa:__ZNK19RenderEventsContext25PostExecuteCommandBuffersEiR17ShaderPassContextP13RenderTextureP19ProfilerInformationi
FFa:__ZN9GfxDevice14EndBufferWriteEP9GfxBufferj
HOj:_EqualityComparer_1__ctor_m3155445483_gshared
pXl:__ZN6il2cpp2vm6Method8GetParamEPK10MethodInfoj
HGg:_Int64_CompareTo_m1953686218
_Oj:_GenericComparer_1__ctor_m221205314_gshared
zPk:_BaseInvokableCall_ThrowOnInvalidArg_TisSingle_t2076509932_m3470174535_gshared
ZPl:__ZN6il2cpp6icalls8mscorlib6System2IO6MonoIO4ReadE12Il2CppIntPtrP11Il2CppArrayiiPi
Kym:_glBindVertexArray__wrapper
X7d:__ZN5physx6shdfnd5ArrayINS_11RTreeNodeNQENS0_19ReflectionAllocatorIS2_EEE19resizeUninitializedEj
Y_c:__ZNK5physx2Sc16InteractionScene18getLLIslandManagerEv
Lbm:__ZNSt3__28ios_base4initEPv
wsi:_DSA_Create_m3450041777
Ffa:__ZN8Material8TransferI14SafeBinaryReadEEvRT_
XLd:__ZN5physx17PxcNpMemBlockPool34acquireExceptionalConstraintMemoryEj
clb:__ZN12CubemapArray17UploadToGfxDeviceEv
Sja:__ZN6prcoreL17RemapGenericFloatI15TexFormatRGHalf17TexFormatRGBAHalfEEvPKNS_9InnerInfoE
Pef:_Enumerator_System_Collections_IEnumerator_Reset_m2200349770_gshared
kEf:_Collection_1_get_Item_m3791221403_gshared
nQh:__ZL54PaddingMode_t3032142640_CustomAttributesCacheGeneratorP21CustomAttributesCache
phj:__Z75RuntimeInvoker_Void_t1841601450_ConstraintU26_t2775779428_Int32_t2071877448PK10MethodInfoPvPS2_
hNd:__ZN5physxL23PxcSweepConvexTrianglesERKNS_11PxsCCDShapeES2_RKNS_11PxTransformES5_S5_S5_fRNS_6PxVec3ES7_RNS_10PxcNpCacheERNS_18PxcNpThreadContextERKNS_2Cm23FastVertex2ShapeScalingERNS_2Gu9TriangleVEf
Hjd:__ZNK5physx7NpShape16getPlaneGeometryERNS_15PxPlaneGeometryE
Lyh:_X509Chain_CheckRevocationOnChain_m2441901351
m3e:_SymmetricAlgorithm_CreateDecryptor_m4240570785
f8d:__ZN5physx27InternalTriangleMeshBuilder14fillRemapTableEv
oH:__ZN11AudioSource4StopEb
x6c:__ZN5physx6shdfnd8PoolBaseINS_13NpRigidStaticENS0_19ReflectionAllocatorIS2_EEE17releaseEmptySlabsEv
qIb:__ZN14SafeBinaryRead21TransferSTLStyleArrayI13dynamic_arrayI10Matrix4x4fLj4EEEEvRT_17TransferMetaFlags
pEf:_Collection_1_CheckWritable_m732350052_gshared
cUf:_Byte_System_IConvertible_ToDecimal_m1036493607
MSh:__ZL47Timer_t791717973_CustomAttributesCacheGeneratorP21CustomAttributesCache
Z9:__Z25GetSplashScreenBackgroundRK5RectTIfE
CDi:_InternalEnumerator_1_System_Collections_IEnumerator_get_Current_m1679297177_gshared
yei:__ZL65Image_t2042527209_CustomAttributesCacheGenerator_m_PreserveAspectP21CustomAttributesCache
Pek:_DefaultComparer_Compare_m1247109616_gshared
SSi:_ResourceManager__ctor_m498829021
QEa:__ZN18GlslGpuProgramGLESD2Ev
Fbe:__ZThn116_NK5physx7profile8ZoneImplINS_28PxProfileNameProviderForwardEE10hasClientsEv
qVd:__ZN5physx2Gu20pcmContactCapsuleBoxERKNS0_13GeometryUnionES3_RKNS_11PxTransformES6_RKfRNS0_5CacheERNS0_13ContactBufferE
V2g:_U3CU3Ec__DisplayClass18_0_U3CDOColorU3Eb__0_m367089396
t$g:_UlongPlugin_SetRelativeEndValue_m3409537757
qtc:__ZN10Matrix4x4f8TransferI8JSONReadEEvRT_
T1b:__ZN22GenericPropertyBinding8RegisterEPKc11ClassIDTypePFfPvEPFvS3_fE
n3:__ZN14dense_hash_mapIPKcPK4RTTIN11TypeManager23ConstCharPtrHashFunctorENS5_19ConstCharPtrEqualToE13stl_allocatorINSt3__24pairIKS1_S4_EEL18MemLabelIdentifier6ELi16EEE5beginEv
NOf:_Comparison_1_Invoke_m2255009434_gshared
Ebg:_StackTrace__ctor_m772333217
Xoj:__Z93RuntimeInvoker_Il2CppObject_Vector2_t2243707579_Vector2_t2243707579_Il2CppObject_Il2CppObjectPK10MethodInfoPvPS2_
j1:__ZN17PersistentManager18ReadObjectThreadedEi
Xva:__ZN25TransformFeedbackSkinning31CleanupTransformFeedbackShadersEv
h2l:__ZN6il2cpp6icalls8mscorlib6System7Runtime16CompilerServices14RuntimeHelpers15InitializeArrayEP11Il2CppArray12Il2CppIntPtr
ZZi:__Z92RuntimeInvoker_Void_t1841601450_Il2CppObject_SByte_t454417549_Il2CppObject_Int32_t2071877448PK10MethodInfoPvPS2_
c9j:_InternalEnumerator_1_System_Collections_IEnumerator_get_Current_m2851415307_gshared
qie:__ZNK20TextRenderingPrivate8FontImpl19GetCharacterAdvanceEjijfPj
l5l:__ZN6il2cpp6icalls8mscorlib4Mono8Security12Cryptography18KeyPairPersistence16_IsUserProtectedEP12Il2CppString
fph:__ZN16VirtFuncInvoker1IP28HandshakeMessage_t3938752374hE6InvokeEjPvh
lLf:_ReadOnlyCollection_1_Contains_m3936562733_gshared
wfc:__Z32Gizmos_CUSTOM_INTERNAL_set_colorRK10ColorRGBAf
DJi:_DerivedType_GetField_m3960169619
A9f:_Decimal_System_IConvertible_ToInt16_m3159038792_AdjustorThunk
Yvb:__ZN10VertexData8TransferI18StreamedBinaryReadILb0EEEEvRT_
l6c:__ZN5physx2Sc5Scene9addStaticERNS0_10StaticCoreEPKPvjj
sbc:__Z39DeleteLastPathNameComponentWithAnySlashRKNSt3__212basic_stringIcNS_11char_traitsIcEENS_9allocatorIcEEEE
zbh:_PKCS12_GetExistingParameters_m2413397265
ILe:_Tweener_DOStartupSpecials_TisVector3_t2243707580_TisIl2CppObject_TisVector3ArrayOptions_t2672570171_m3468374241_gshared
g3a:__ZN14PreloadManager16UpdatePreloadingEv
Oeb:__ZN12BaseRendererD2Ev
eTk:_X509CertificateCollection__ctor_m858704242
ae:invoke_iiififf
Pff:_Enumerator__ctor_m425576865_AdjustorThunk
XHd:__ZN5physx2Sc5Scene9addShapesEPKPvjjRNS0_8RigidSimEPNS_12PxsRigidBodyERPNS0_8ShapeSimEPNS_9PxBounds3E
aYi:__Z148RuntimeInvoker_Int32_t2071877448_Il2CppObject_Int32_t2071877448_Int32_t2071877448_Il2CppObject_Int32_t2071877448_Int32_t2071877448_Int32_t2071877448PK10MethodInfoPvPS2_
Yd:invoke_iiififi
mNf:_ReadOnlyCollection_1_System_Collections_IList_Contains_m1545447998_gshared
gUd:__ZN5physx23PxcPCMContactConvexMeshERKNS_2Gu13GeometryUnionES3_RKNS_11PxTransformES6_RKfRNS_10PxcNpCacheERNS0_13ContactBufferE
$7a:__ZNK21UnityDefaultAllocatorI17LowLevelAllocatorE8ContainsEPKv
oyl:__ZNSt3__213__vector_baseI6pollfdNS_9allocatorIS1_EEED2Ev
bmh:_ClientSessionInfo_get_Id_m3046630969
Fj:_emscripten_get_main_loop_timing
bJg:_DirectoryInfo__ctor_m3750996792
Lmg:_BaseMeshEffect_ModifyMesh_m2134816219
oYe:_Array_qsort_TisVector2_t2243707579_m3527759534_gshared
Lqb:__ZN24GenerateTypeTreeTransfer21TransferSTLStyleArrayINSt3__26vectorIN15QualitySettings14QualitySettingENS1_9allocatorIS4_EEEEEEvRT_17TransferMetaFlags
LEj:_ResourceRequest_t2560315377_marshal_pinvoke_cleanup
I6k:_U3CU3Ec__DisplayClass68_0_U3CDOJumpU3Eb__1_m3979792155
Hqf:_List_1_System_Collections_Generic_IEnumerableU3CTU3E_GetEnumerator_m166627113_gshared
zyb:__ZNSt3__26vectorI9InputAxisNS_9allocatorIS1_EEE6resizeEj
R4e:_SecurityElement_IsValidAttributeValue_m483287146
Gbf:_Decoder_set_Fallback_m1780632169
Es:getTempRet0
evi:_DOSetter_1_Invoke_m4121538054_gshared
qUd:__ZN5physx2Gu33MultiplePersistentContactManifold24addManifoldContactPointsEPNS0_21MeshPersistentContactEjPPNS0_15PCMContactPatchEjRKNS_6shdfnd3aos6FloatVESB_h
MVg:_TweenManager_SmoothRewind_m1990583008
M_i:__Z114RuntimeInvoker_Void_t1841601450_Il2CppObject_Il2CppObject_Int32_t2071877448_Il2CppObject_Il2CppObject_Il2CppObjectPK10MethodInfoPvPS2_
tHi:_AssemblyTitleAttribute__ctor_m1696431446
B2g:_U3CU3Ec__DisplayClass0_0_U3CDOFadeU3Eb__0_m4106317219
uvg:_Image_AddQuad_m1603575622
oih:_PrivateKeyInfo_RemoveLeadingZero_m3396807048
zGf:_ReadOnlyCollection_1_System_Collections_Generic_ICollectionU3CTU3E_get_IsReadOnly_m1251192075_gshared
ldh:__ZThn4_N6il2cpp2vm13ComObjectBaseI34__Il2CppComDelegate_t3311706788CCW18Il2CppIInspectableNS0_7details6ComNilES5_S5_S5_S5_S5_S5_E7ReleaseEv
oif:_List_1_GrowIfNeeded_m185971996_gshared
sNl:__ZN6il2cpp6icalls8mscorlib6System9ThreadingL21lookup_cached_cultureEP12Il2CppThreadi
r2j:__ZN16VirtFuncInvoker1IP24DaylightTime_t3800227331iE6InvokeEjPvi
rcj:__Z142RuntimeInvoker_Boolean_t3825574718_Single_t2076509932_Int32_t2071877448_Int32_t2071877448_SByte_t454417549_Int32_t2071877448_Int32_t2071877448PK10MethodInfoPvPS2_
CZa:__ZN18DeferredRenderLoopD2Ev
MLi:_GenericTypeParameterBuilder_GetMethods_m1243855818
c4:__ZNK16TypeTreeIterator4NameEv
LX:__ZN15FileSystemEntry3SetEPKc
j$d:__ZN5physx6shdfnd5ArrayIPNS_13PxcNpMemBlockENS0_19ReflectionAllocatorIS3_EEE6resizeEjRKS3_
Rdk:_InternalEnumerator_1__ctor_m2808001655_gshared
B_e:_MACTripleDES__ctor_m884945242
Wvd:__ZN5physx14NpRigidDynamic8requiresERNS_23PxProcessPxBaseCallbackE
YI:__ZN20SoundChannelInstance15ParameterBuffer5ApplyEPN4FMOD7ChannelE
Vll:__ZL24UnresolvedVirtualCall_52P12Il2CppObjectPK10MethodInfo
Mwb:__ZN23SharedMeshRenderingDataD0Ev
nie:__ZN20TextRenderingPrivate19NativeTextGenerator9InsertTabEv
LFh:__ZL73Enum_t2459695545_CustomAttributesCacheGenerator_Enum_ToObject_m1688724857P21CustomAttributesCache
jqj:_Rect_set_y_m4294916608
Cvl:__ZN15dense_hashtableINSt3__24pairIK10KeyWrapperI13dynamic_arrayIPK10Il2CppTypeLj4EEEPFvvEEES8_N6il2cpp8metadata19Il2CppSignatureHashEN14dense_hash_mapIS8_SB_SF_NSE_22Il2CppSignatureCompareENS0_9allocatorISC_EEE9SelectKeyESH_SJ_E16reset_thresholdsEv
lbe:__ZN5physx7profile8ZoneImplINS_28PxProfileNameProviderForwardEE21setProfileZoneManagerEPNS_20PxProfileZoneManagerE
YDe:__ZN11UnityEngine15PlatformWrapper24GetRuntimePlatformStringEv
nk:_glIsEnabled
QSb:__ZN15CacheWriterBaseD2Ev
fVc:__ZN5physx3Cct17CapsuleController15setFootPositionERKNS_14PxExtendedVec3E
DSc:__ZN5physx2Gu33PCMCapsuleVsMeshContactGeneration13generateEEMTDERKNS_6shdfnd3aos5Vec3VES6_RKNS3_6FloatVES6_jS6_S6_PNS0_21MeshPersistentContactERj
Ufd:__ZN18MultiQueryCallbackIN5physx10PxSweepHitEED0Ev
h3f:_Convert_ToDateTime_m1251728572
T4k:_U3CU3Ec__DisplayClass39_0_U3CDOResizeU3Eb__0_m1665877588
rk:_emscripten_glDrawElementsInstanced
wzf:_Collection_1_System_Collections_IList_IndexOf_m51140022_gshared
Pgh:_ARC4Managed_Dispose_m4102232694
hhh:_HMAC_Initialize_m3052649104
j2a:__ZN18JobBatchDispatcherD2Ev
Zqb:__ZN9Transform17MainThreadCleanupEv
Z0l:_GC_clear_hdr_marks
Zsm:_glScissor__wrapper
Izm:_emscripten_glCreateShader__wrapper
Yvg:_InputField_get_caretSelectPositionInternal_m3523572533
Pqe:_cff_fd_select_get
sMh:__ZL73CompilationRelaxationsAttribute_t238494011_CustomAttributesCacheGeneratorP21CustomAttributesCache
$kj:__Z74RuntimeInvoker_Void_t1841601450_Int32_t2071877448_KeyValuePair_2_t38854645PK10MethodInfoPvPS2_
jpi:_CallbackHandler_EndInvoke_m2406225629
VLe:_Tweener_Setup_TisQuaternion_t4030073918_TisQuaternion_t4030073918_TisNoOptions_t2508431845_m1830481535_gshared
DPa:__ZL54CombineLocalShadowCasterCullignIndexListsAndDestroyJobP25LocalShadowCullingJobData
YYj:_Text_get_minHeight_m1562513104
M2e:_SHA512Managed_processBlock_m3220567420
wth:_NameObjectCollectionBase_get_Keys_m446053925
Bk:_emscripten_glGetShaderiv
Fjk:_Transform_1__ctor_m353209818_gshared
CLa:__ZZ23InitPlayerLoopCallbacksvEN41EarlyUpdateUpdateAllUnityWebStreamsstruct7ForwardEv
_J:__ZN4FMOD6System10getVersionEPj
e0d:__ZN5physx2Sc7BodySim10sleepCheckEffb
eIl:__ZN15dense_hashtableINSt3__24pairIK10KeyWrapperIPK10Il2CppTypeEjEES6_N6il2cpp8metadata14Il2CppTypeHashEN14dense_hash_mapIS6_jSB_NSA_17Il2CppTypeCompareENS0_9allocatorIS8_EEE9SelectKeyESD_SF_E15set_deleted_keyERKS8_
s_b:__ZN5Unity9Component7PRODUCEE18MemLabelIdentifier18ObjectCreationMode
y2h:__ZL96RemoteSettings_t392466225_CustomAttributesCacheGenerator_RemoteSettings_CallOnUpdate_m1624968574P21CustomAttributesCache
bSe:_Array_InternalArray__IndexOf_TisSByte_t454417549_m1427585061_gshared
zUi:__Z75RuntimeInvoker_Byte_t3683104436_Il2CppObject_Int32_t2071877448_Il2CppObjectPK10MethodInfoPvPS2_
ewe:__ZN2UI6Canvas23VirtualRedirectTransferER24GenerateTypeTreeTransfer
S1f:_Decimal_u64_m3991988111
zfl:_YieldInstruction_t3462875981_marshal_pinvoke
W0k:_Predicate_1_BeginInvoke_m2959352225_gshared
XIj:_Dictionary_2_CopyToCheck_m2147716750_gshared
yTk:_X509Certificate_Parse_m1764345628
jMk:_SynchronizationAttribute_GetClientContextSink_m1264319894
Lge:__ZN13TextRendering4Font13AwakeFromLoadE17AwakeFromLoadMode
m$j:__ZN16VirtFuncInvoker0I8IntPtr_tE6InvokeEjPv
kFe:__ZThn564_N18UnityConnectClient18OnAdsIdRequestDoneERK8UnityStrbS2_
r$g:_UlongPlugin_SetFrom_m175352084
ata:__ZN9GfxDevice21ReleaseSharedMeshDataEP14SharedMeshData
Qch:_SmallXmlParser_Peek_m2814840810
szb:__ZNSt3__27__sort5IRNS_6__lessINS_4pairIPKN5Unity4TypeE7Hash128EES8_EEPS8_EEjT0_SC_SC_SC_SC_T_
HAf:_Collection_1_ConvertItem_m3168406667_gshared
uam:_vprintf
U2k:_UnityAction_1_EndInvoke_m2822290096_gshared
_Tl:__ZNK15dense_hashtableINSt3__24pairIK10KeyWrapperIP12Il2CppObjectEN6il2cpp2gc9CachedCCWEEES5_NS7_5utils11PointerHashIS3_EEN14dense_hash_mapIS5_S9_SD_NS0_8equal_toIS5_EENS0_9allocatorISA_EEE9SelectKeyESG_SI_E10test_emptyEj
e0l:_GC_unreachable_finalize_mark_proc
Npk:_BalancingGroup_set_Balance_m3452171919
CE:__ZZN8Animator15InitializeClassEvEN31FunctorImpl_389kDidDeleteMotion4CallEPviR11MessageData
Mh:___syscall192
Mjg:_PointerEventData_set_worldNormal_m2025727441
C1l:_maybe_finalize
uel:_Vector3_Normalize_m3679112426_AdjustorThunk
QGe:__ZN20HardwareInfoReporter18ReportHardwareInfoEv
Bjc:__Z43RectTransform_CUSTOM_INTERNAL_get_anchorMaxP12Il2CppObjectP13Vector2fIcall
Usa:__ZN9GfxDevice38ScheduleDynamicVBOGeometryJobsInternalEPFvP25DynamicVBOGeometryJobDatajEPFvS1_ES1_j16GfxPrimitiveTypeP21DynamicVBOChunkHandle
cSf:__ZN16VirtFuncInvoker2IbP6Type_tbE6InvokeEjPvS1_b
rfa:__ZN8Material28UpdateHashesOnPropertyChangeEN9ShaderLab16FastPropertyNameE
xkc:__Z53Register_UnityEngine_SortingLayer_GetLayerValueFromIDv
Oef:_Enumerator__ctor_m3512622280_AdjustorThunk
ENj:_EqualityComparer_1_System_Collections_IEqualityComparer_Equals_m349194518_gshared
rZf:_CaseInsensitiveComparer_Compare_m1192858479
YGb:__Z18Transfer_BlittableI14SafeBinaryReadLb1E8Vector4fEvRK29SerializationCommandArgumentsR31RuntimeSerializationCommandInfo
pMg:_StreamAsyncResult_set_Done_m4272090534
Mzg:_LayoutRebuilder_Clear_m2390054824
GBf:_Collection_1_System_Collections_IList_Insert_m2968289909_gshared
OHi:_Default_SelectMethod_m622251293
hM:__ZN11AudioSource12AddToManagerEv
_u:__ZN8Animator23VirtualRedirectTransferER19StreamedBinaryWriteILb0EE
LMk:_AsyncResult_get_NextSink_m1172723924
XQl:__ZN6il2cpp2vm5Image13ClassFromNameEPK11Il2CppImagePKcS6_
mnm:dynCall_vdddddd
ZVb:__ZN24GenerateTypeTreeTransfer21TransferSTLStyleArrayINSt3__26vectorIN9ShaderLab14SerializedPassENS1_9allocatorIS4_EEEEEEvRT_17TransferMetaFlags
D2c:__ZN5physx6shdfnd8internal8HashBaseIPNS_2Sc13ConstraintSimES5_NS0_4HashIS5_EENS1_11HashSetBaseIS5_S7_NS0_9AllocatorELb1EE6GetKeyES9_Lb1EE6createERKS5_Rb
g0:__ZL32MarkLevelGameManagerDependenciesR27GarbageCollectorThreadState
G9h:__ZL113TweenSettingsExtensions_t2285462830_CustomAttributesCacheGenerator_TweenSettingsExtensions_SetOptions_m3069323763P21CustomAttributesCache
L4i:__Z49RuntimeInvoker_Void_t1841601450_UInt16_t986882611PK10MethodInfoPvPS2_
gva:__ZNK13GfxDeviceGLES26HasActiveRandomWriteTargetEv
inj:__Z37RuntimeInvoker_ILTokenInfo_t149559338PK10MethodInfoPvPS2_
sad:__ZNK5physx15NpActorTemplateINS_18PxArticulationLinkEE7getNameEv
nzf:_Collection_1_IsFixedSize_m920288628_gshared
Rtm:_glGetActiveUniformsiv__wrapper
spj:__Z50RuntimeInvoker_Il2CppObject_ColorTween_t3438117476PK10MethodInfoPvPS2_
BKc:__ZNK5physx3Cct10Controller16getInternalStateERNS_17PxControllerStateE
_2i:__Z59RuntimeInvoker_Il2CppObject_Double_t4078015681_Il2CppObjectPK10MethodInfoPvPS2_
du:__Z20AnimationEventToMonoRK14AnimationEventR18MonoAnimationEvent
S3i:__Z83RuntimeInvoker_Void_t1841601450_Il2CppObject_Il2CppObject_Il2CppObject_Il2CppObjectPK10MethodInfoPvPS2_
X0:__ZNK15dense_hashtableINSt3__24pairIKiiEEi21InstanceIDHashFunctorN14dense_hash_mapIiiS4_NS0_8equal_toIiEE13stl_allocatorIS3_L18MemLabelIdentifier1ELi16EEE9SelectKeyES7_SA_E13find_positionERS2_
TRj:_Navigation_get_selectOnLeft_m3980387574_AdjustorThunk
jBk:_CustomYieldInstruction_get_Current_m1743233962
aTl:__ZN30dense_hashtable_const_iteratorI10KeyWrapperIP18Il2CppGenericClassES3_N6il2cpp8metadata22Il2CppGenericClassHashEN14dense_hash_setIS3_S6_NS5_25Il2CppGenericClassCompareENSt3__29allocatorIS3_EEE8IdentityES8_SB_E30advance_past_empty_and_deletedEv
XGd:__ZN5physx10PxsContext15setScratchBlockEPvj
H3h:__ZL74UnityEventBase_t828812576_CustomAttributesCacheGenerator_m_PersistentCallsP21CustomAttributesCache
DJj:_DefaultComparer__ctor_m2265472997_gshared
NEk:_CustomAnimationPlayable_op_Implicit_m3677069457
uxb:__ZN4PPtrI6SpriteE8TransferI14SafeBinaryReadEEvRT_
j5k:_U3CU3Ec__DisplayClass44_0_U3CDOMoveZU3Eb__0_m1883737374
Dvk:_PCMReaderCallback_Invoke_m3610389815
AZc:__ZN5physx2Cm27getDynamicGlobalPoseAlignedERKNS_11PxTransformES3_S3_RS1_
w_i:__Z45RuntimeInvoker_Il2CppObject_IntPtr_t_IntPtr_tPK10MethodInfoPvPS2_
bVb:__ZNSt3__26vectorIN9ShaderLab14SerializedPassENS_9allocatorIS2_EEE8__appendEj
O5d:__ZN5physx6shdfnd5ArrayIPvNS0_19ReflectionAllocatorIN17PxcPoolMallocData10PoolData32EEEE15growAndPushBackERKS2_
Dmh:_Context_get_SupportedCiphers_m2172827298
cCc:__ZN12b2WheelJoint24SolveVelocityConstraintsERK12b2SolverData
jYi:__Z170RuntimeInvoker_Int32_t2071877448_Il2CppObject_Int32_t2071877448_Int32_t2071877448_Il2CppObject_Int16_t4041245914_Int32_t2071877448_SByte_t454417549_ContextU26_t3131521781PK10MethodInfoPvPS2_
zmb:__ZN9Texture2D23VirtualRedirectTransferER18StreamedBinaryReadILb0EE
mEc:__ZN10Collider2D8TransferI24GenerateTypeTreeTransferEEvRT_
O6e:__ZN16VirtFuncInvoker0IP23CompareInfo_t2310920157E6InvokeEjPv
ncg:_Double_System_IConvertible_ToUInt16_m286326038_AdjustorThunk
gTg:_Debugger_SetLogPriority_m1610107306
umi:_TypeInfo__ctor_m1475908211
LTk:_PKCS12__ctor_m997996062
veb:__ZNSt3__26__treeINS_12__value_typeIN4core12basic_stringIcNS2_20StringStorageDefaultIcEEEEjEENS_19__map_value_compareIS6_S7_NS_4lessIS6_EELb1EEE13stl_allocatorIS7_L18MemLabelIdentifier6ELi16EEE7destroyEPNS_11__tree_nodeIS7_PvEE
Myh:_X509Chain_WrapUp_m1072032285
UUk:_X509CertificateEnumerator_System_Collections_IEnumerator_MoveNext_m1448966539
Rne:_get_sfnt_table
vlf:_List_1_IndexOf_m441311894_gshared
XRk:_Object_FindObjectOfType_TisIl2CppObject_m2967490724_gshared
Ayf:_Collection_1_IsSynchronized_m3261594010_gshared
INa:_unity_z_tr_stored_block
HTi:__Z46RuntimeInvoker_Single_t2076509932_Il2CppObjectPK10MethodInfoPvPS2_
Svl:__ZN13dynamic_arrayIPK10Il2CppTypeLj4EE10reallocateEPS2_j
TZb:__Z13RegisterClassI5LightEvv
tQe:_Array_compare_TisIl2CppObject_m1481822507_gshared
Cde:__ZN5physx2Gu20registerHeightFieldsEv
I8:__ZN15dense_hashtableINSt3__24pairIKNS0_12basic_stringIcNS0_11char_traitsIcEE13stl_allocatorIcL18MemLabelIdentifier54ELi16EEEEP11AssetBundleEES8_11djb2_hash_tIS8_EN14dense_hash_mapIS8_SB_SE_NS0_8equal_toIS8_EENS0_9allocatorISC_EEE9SelectKeyESH_SJ_E13set_empty_keyERKSC_
esi:_DES_get_Key_m2584608215
mQa:__ZL22ScheduleSceneNodesJobsP25ScheduleSceneNodesJobDataj
MSl:__ZN15dense_hashtableI10KeyWrapperIP18Il2CppGenericClassES3_N6il2cpp8metadata22Il2CppGenericClassHashEN14dense_hash_setIS3_S6_NS5_25Il2CppGenericClassCompareENSt3__29allocatorIS3_EEE8IdentityES8_SB_ED2Ev
APd:__ZN5physx22concludeContactCoulombERKNS_23PxcSolverConstraintDescERNS_16PxcSolverContextE
rm:_emscripten_set_canvas_size
JGh:__ZL65Il2CppArray_CustomAttributesCacheGenerator_Array_Sort_m3645766612P21CustomAttributesCache
Uqd:__ZNK5physx15NpParticleFluid12getStiffnessEv
Wwi:__ZN18VirtActionInvoker2IP25TweenerCore_3_t2082658550bE6InvokeEjPvS1_b
J_f:_Hashtable__ctor_m741952536
xgk:_Comparer_1__cctor_m2253684996_gshared
LUb:__ZNSt3__26vectorIN9ShaderLab20SerializedSubProgramENS_9allocatorIS2_EEE8__appendEj
eV:__ZN20DynamicHeapAllocatorI17LowLevelAllocatorE8AllocateEji
VBe:__ZN11UnityEngine9Analytics15UserCustomEvent12ToJsonStringER9JSONWrite
H2b:__ZN12LineRenderer10LinePointsD0Ev
OUa:__ZN20DynamicPropertySheet15SetVectorQueuedERKN9ShaderLab16FastPropertyNameERK8Vector4fN19ShaderPropertySheet8SetFlagsE
eaf:_String_Format_m1263743648
jol:__ZL25UnresolvedVirtualCall_176P12Il2CppObjectfPK10MethodInfo
Avk:_DefaultExecutionOrder_get_order_m1561221759
ZKf:_ReadOnlyCollection_1_System_Collections_IEnumerable_GetEnumerator_m4248982967_gshared
hB:__ZN7mecanim9animation22EvaluateAvatarRetargetEPKNS0_14AvatarConstantEPKNS0_11AvatarInputEPNS0_12AvatarOutputEPNS0_12AvatarMemoryEPNS0_15AvatarWorkspaceEb
Wzg:_LayoutRebuilder_GetHashCode_m2745108660
ctl:__ZN15dense_hashtableINSt3__24pairIK10KeyWrapperIPK19Il2CppGenericMethodEPK26Il2CppGenericMethodIndicesEES6_N6il2cpp8metadata23Il2CppGenericMethodHashEN14dense_hash_mapIS6_SA_SE_NSD_26Il2CppGenericMethodCompareENS0_9allocatorISB_EEE9SelectKeyESG_SI_E14squash_deletedEv
Bvc:__ZL26Transfer_SimpleNativeClassI9JSONWrite10RectOffsetLb0EEvRK29SerializationCommandArgumentsR31RuntimeSerializationCommandInfo
y0l:_GC_push_conditional
iCe:__ZN21UnityAnalyticsManager23VirtualRedirectTransferER24GenerateTypeTreeTransfer
tya:__ZN17GenericDynamicVBO10AllocateVBEjR21DynamicVBOChunkHandle
Pjf:_List_1_get_Item_m1547593893_gshared
Bkj:__Z70RuntimeInvoker_Void_t1841601450_CustomAttributeNamedArgument_t94157543PK10MethodInfoPvPS2_
OIg:_Path_GetPathRoot_m1269357080
GTd:__ZL27PxcTestFacesSepAxesBackfaceRKN5physx2Gu13PolygonalDataES3_RKNS_2Cm8Matrix34ES7_RKNS4_23FastVertex2ShapeScalingESA_S7_RKNS_6PxVec3ERfRSB_RjPjSG_fSD_
TRk:_GameObject_AddComponent_TisIl2CppObject_m2049635786_gshared
Ehg:_EventSystem_SetSelectedGameObject_m2211816110
Rjk:_Transform_1__ctor_m4161450529_gshared
Qm:_glMapBufferRange
nmb:__ZN9Texture2D8TransferI18StreamedBinaryReadILb0EEEEvRT_
jgc:__Z31Input_CUSTOM_GetMouseButtonDowni
OGh:__ZL65Il2CppArray_CustomAttributesCacheGenerator_Array_Sort_m1730553742P21CustomAttributesCache
fmd:__ZNK5physx7NpCloth23getExternalAccelerationEv
OSa:__ZNK9Transform16GetLocalPositionEv
Qpl:__ZL25UnresolvedVirtualCall_263P12Il2CppObjectPK10MethodInfo
PGb:__Z19scripting_array_newP11Il2CppClassjj
cqa:__ZN13LoadOperation19IntegrateTimeSlicedEi
qqb:__ZNK15QualitySettings26GetTypeInfoVirtualInternalEv
ICh:_InterpreterFactory__ctor_m3331468903
_Qd:__ZN5physx16PxsBroadPhaseMBP9updatePPUEPNS_10PxBaseTaskE
gch:_X501__cctor_m3795360380
tva:__ZN13GfxDeviceGLES22DispatchComputeProgramE12ObjectHandleI18ComputeProgram_TagPvE15ComputeBufferIDj
bui:_DOGetter_1__ctor_m3368190962_gshared
X5l:__ZN6il2cpp8metadata25Il2CppGenericClassCompare7CompareERK10KeyWrapperIP18Il2CppGenericClassES7_
Tuj:_GUIStyle_set_contentOffset_m2138084868
mUl:__ZN24dense_hashtable_iteratorINSt3__24pairIK10KeyWrapperIP12Il2CppObjectEN6il2cpp2gc9CachedCCWEEES5_NS7_5utils11PointerHashIS3_EEN14dense_hash_mapIS5_S9_SD_NS0_8equal_toIS5_EENS0_9allocatorISA_EEE9SelectKeyESG_SI_E30advance_past_empty_and_deletedEv
E4f:_Convert_ToInt32_m2297793940
Roa:__Z17TransformAABBSlowRK4AABBRK10Matrix4x4fRS_
lnb:__ZN15SerializeTraitsI13dynamic_arrayI7Hash128Lj8EEE19ResizeSTLStyleArrayERS2_i18MemLabelIdentifier
Zlj:__Z96RuntimeInvoker_Void_t1841601450_Vector2U5BU5DU26_t1595685398_Int32_t2071877448_Int32_t2071877448PK10MethodInfoPvPS2_
zYl:__ZN6il2cpp2os6Thread11SetPriorityENS0_14ThreadPriorityE
SWk:_beMyNpc__ctor_m2641029153
ETb:__ZN9ShaderLab21SerializedShaderState8TransferI14SafeBinaryReadEEvRT_
ER:__ZTv0_n12_NSt3__219basic_ostringstreamIcNS_11char_traitsIcEENS_9allocatorIcEEED1Ev
Gam:_ftruncate
K1e:_RSAPKCS1SignatureFormatter_SetKey_m2365816458
tke:__ZN13RuntimeStaticINSt3__26vectorIPN20TextRenderingPrivate17TextMeshGeneratorENS0_9allocatorIS4_EEEEE13StaticDestroyEPv
FEg:_Int16_GetHashCode_m304503362_AdjustorThunk
uJe:__ZN18VirtActionInvoker1IP25TweenerCore_3_t1705766462E6InvokeEjPvS1_
Mre:_cf2_stack_pushInt
SD:__ZN7mecanim9animation20DestroyLayerConstantEPNS0_13LayerConstantERNS_6memory9AllocatorE
A8k:_TweenExtensions_IsActive_m918693289
btd:__ZN5physx6shdfnd8PoolBaseINS_16NpParticleSystemENS0_19ReflectionAllocatorIS2_EEE12allocateSlabEv
vWd:__ZN5physx9PxTaskMgr12dispatchTaskEjb
qRj:_MaskableGraphic_SetClipRect_m3871029457
Vig:_ExecuteEvents_get_cancelHandler_m1964324668
wsm:b89
tsm:b88
z7h:__ZL68U3CU3Ec__DisplayClass26_0_t3293303443_CustomAttributesCacheGeneratorP21CustomAttributesCache
F1h:__ZL70GUISettings_t622856320_CustomAttributesCacheGenerator_m_SelectionColorP21CustomAttributesCache
msm:b81
lsm:b80
osm:b83
M3:__ZN18ResourceImageGroup7CleanupEv
qsm:b85
o0c:__ZN5physx2Gu36closestPtPointTetrahedronTesselationEPNS_6shdfnd3aos5Vec3VES4_S4_RjRS3_S6_
ssm:b87
rsm:b86
Hu:__ZN11Quaternionf8TransferI24GenerateTypeTreeTransferEEvRT_
VTd:__ZN5physx25PxcPCMContactSphereConvexERKNS_2Gu13GeometryUnionES3_RKNS_11PxTransformES6_RKfRNS_10PxcNpCacheERNS0_13ContactBufferE
gyi:_TweenerCore_3_UpdateDelay_m116258440_gshared
jZj:_ToggleGroup_RegisterToggle_m3118973598
mih:_PrivateKeyInfo_Decode_m1053025782
qAh:_X509ChainElementCollection_System_Collections_ICollection_CopyTo_m1467895312
w1d:__ZN5physx2Cm18DelegateFanoutTaskINS_2Sc5SceneEXadL_ZNS3_20particlePostShapeGenEPNS_10PxBaseTaskEEEED0Ev
hbh:_PKCS12_Decrypt_m2457743414
skb:__ZN8Playable19SetOutputConnectionEPS_i
En:_glDeleteShader
deg:_Exception_GetType_m3898489832
LVg:_TweenManager_Rewind_m2873713783
Nja:__ZN6prcoreL17RemapGenericFloatI15TexFormatRGHalf16TexFormatRGFloatEEvPKNS_9InnerInfoE
Zgd:__ZN5physx6shdfnd8PoolBaseINS_10NpMaterialENS0_19ReflectionAllocatorIS2_EEE15disposeElementsEv
Muf:_Stack_1_Peek_m1548778538_gshared
rFf:_Collection_1_System_Collections_IList_get_Item_m1995028750_gshared
xLa:__ZZ23InitPlayerLoopCallbacksvEN38EarlyUpdateExecuteMainThreadJobsstruct7ForwardEv
bfl:_Vector4_Dot_m2285943745
Fka:__ZN19RuntimeSceneManager9LoadSceneERK8UnityStrS2_S2_RK9UnityGUIDiNS_11LoadingModeE
V9b:__Z27scripting_add_internal_callPKcPKv
rJk:_AppDomainLevelActivator__ctor_m230071814
vWe:_Array_InternalArray__Insert_TisUriScheme_t1876590943_m2728325409_gshared
ITl:__GLOBAL__sub_I_GarbageCollector_cpp
T_:__Z17GetPlayerSettingsv
ULc:__ZL21ContactReductionAllInRN5physx2Gu13ContactBufferEjjRKNS_7PxMat33EPKNS_6PxVec3EPKh
Xuj:_GUIStyle_get_fontSize_m3568562864
JB:__ZN34BlobWriteTransferSTLStyleArrayImplI22OffsetPtrArrayTransferIiEEclERS1_17TransferMetaFlagsR9BlobWrite
fVk:_X509Store_CheckStore_m1027496478
pjj:__Z87RuntimeInvoker_Int32_t2071877448_UIVertex_t1204258818_UIVertex_t1204258818_Il2CppObjectPK10MethodInfoPvPS2_
OLh:__ZL82MethodBase_t904190842_CustomAttributesCacheGenerator_MethodBase_Invoke_m1075809207P21CustomAttributesCache
z9i:__Z93RuntimeInvoker_TextGenerationError_t780770201_Il2CppObject_TextGenerationSettings_t2543476768PK10MethodInfoPvPS2_
R8i:__Z133RuntimeInvoker_Boolean_t3825574718_Vector3U26_t425862308_Vector3U26_t425862308_Single_t2076509932_Int32_t2071877448_Int32_t2071877448PK10MethodInfoPvPS2_
Fdi:__ZL62DropdownItem_t4139978805_CustomAttributesCacheGenerator_m_TextP21CustomAttributesCache
jsc:__Z33EmitSerializationCommandsForFieldI8JSONReadEvR18TransferField_InfoR32SerializationCommandQueueBuilderRP20AllowNameConversions
Tc:invoke_vffff
Lef:_Enumerator_MoveNext_m1706162224_gshared
Vjm:__ZNSt3__212basic_stringIcNS_11char_traitsIcEENS_9allocatorIcEEEC2ERKS5_jjRKS4_
rIa:__ZN15dense_hashtableINSt3__24pairIKNS0_12basic_stringIcNS0_11char_traitsIcEE13stl_allocatorIcL18MemLabelIdentifier54ELi16EEEEP20ArchiveStorageReaderEES8_11djb2_hash_tIS8_EN14dense_hash_mapIS8_SB_SE_NS0_8equal_toIS8_EES5_ISC_LS6_54ELi16EEE9SelectKeyESH_SI_E5clearEv
S9e:_String_Contains_m4017059963
wek:_DefaultComparer_Compare_m1606207039_gshared
uye:__ZN2UI14CanvasRenderer12SyncMaterialENS0_8SyncFlagE
Rim:__ZNSt3__26locale5__imp7installINS_7codecvtIDsc11__mbstate_tEEEEvPT_
Cjh:_CipherSuite_get_ExchangeAlgorithmType_m3219223789
H0g:_U3CU3Ec__DisplayClass12_0__ctor_m1029248587
Z4l:__ZN6il2cpp2vm9Parameter30GetDefaultParameterValueObjectEPK10MethodInfoPK13ParameterInfoPb
cZk:_npcTransport_Update_m1306265650
kXe:_Array_InternalArray__set_Item_TisLabelData_t3712112744_m2253365137_gshared
PPi:_MonoCMethod_get_Attributes_m3914742834
e2:__Z26scripting_object_get_classP12Il2CppObject
zzi:_TweenerCore_3_Validate_m2965636509_gshared
jzj:_MonoBehaviour_Invoke_m666563676
fJi:_ConstructorBuilder_get_DeclaringType_m4264602248
uu:__ZNSt3__26vectorIhNS_9allocatorIhEEE8__appendEj
eag:_Decimal_decimalDiv_m900036616
lNg:_StringReader__ctor_m643998729
OJa:__ZN14dense_hash_mapINSt3__212basic_stringIcNS0_11char_traitsIcEE13stl_allocatorIcL18MemLabelIdentifier54ELi16EEEEP20ArchiveStorageReader11djb2_hash_tIS7_ENS0_8equal_toIS7_EES4_INS0_4pairIKS7_S9_EELS5_54ELi16EEE13set_empty_keyERSF_
k0g:_Sequence_DoStartup_m1514469211
dbd:__ZN5physx19NpRigidBodyTemplateINS_18PxArticulationLinkEE16setRigidBodyFlagENS_15PxRigidBodyFlag4EnumEb
p2i:__Z75RuntimeInvoker_DateTime_t693205669_DateTime_t693205669_TimeSpan_t3430258949PK10MethodInfoPvPS2_
yUa:__ZN14qsort_internal31_FindAndMovePivotToLastPositionIP17RODataReplacementi19ROSorterReplacementEEvT_S4_T0_T1_
Ine:_UNITY_tt_face_done_kern
gbm:__ZNSt3__215basic_streambufIcNS_11char_traitsIcEEE4syncEv
ZKk:_Context_get_DefaultContext_m2211922324
PIk:_MarshalDirectiveException__ctor_m1606841389
Jqc:__Z59GUIStyle_CUSTOM_Internal_GetNumCharactersThatFitWithinWidth13Il2Cpp_IntPtrP12Il2CppStringf
GEa:__Z4TrimRKNSt3__212basic_stringIcNS_11char_traitsIcEENS_9allocatorIcEEEES7_
Dih:_RSAManaged_GetPaddedValue_m2972141669
BVj:_ScrollRect_OnDrag_m1424848249
_nh:_TlsServerCertificate_ProcessAsSsl3_m277089231
yPe:_Array_InternalArray__IEnumerable_GetEnumerator_TisUInt16_t986882611_m3665860884_gshared
n9:__Z19scripting_gc_enablev
Eom:dynCall_diiid
ppk:_AnchorInfo__ctor_m617409099
uce:__ZN5physx7profile11EventBufferINS_24PxDefaultContextProviderENS_6shdfnd6MutexTINS0_26WrapperReflectionAllocatorIhEEEENS0_14ScopedLockImplIS7_EENS_24PxProfileNullEventFilterEE9stopEventEty
O4a:__Z29StdTemplateConversionFunctionIihEbPvR14SafeBinaryRead
NLi:_GenericTypeParameterBuilder_GetMethodImpl_m528545634
oAe:__Z55Register_UnityEngine_CanvasRenderer_DisableRectClippingv
kDh:_Interval_CompareTo_m2909556284_AdjustorThunk
wub:__ZN14SafeBinaryRead21TransferSTLStyleArrayI13dynamic_arrayI11ColorRGBA32Lj4EEEEvRT_17TransferMetaFlags
Sfm:__ZNKSt3__210moneypunctIcLb1EE13do_pos_formatEv
Rlj:__Z97RuntimeInvoker_Void_t1841601450_PlayableU5BU5DU26_t2309105347_Int32_t2071877448_Int32_t2071877448PK10MethodInfoPvPS2_
aSj:_Navigation_t1571958496_marshal_pinvoke
H1g:_ShortcutExtensions_DOPunchPosition_m4022188990
eCh:_Interpreter_GetLastDefined_m2450713313
Ufm:__ZNSt3__210moneypunctIwLb0EED2Ev
bZj:_Toggle__ctor_m272261215
mok:_Parser_ParseAssertionType_m3316669790
tWj:_Selectable_get_isPointerDown_m774209881
PFh:__ZL73Enum_t2459695545_CustomAttributesCacheGenerator_Enum_ToObject_m2460371738P21CustomAttributesCache
aom:dynCall_viiiifii
oBj:_Plane_get_distance_m1834776091_AdjustorThunk
g1:__Z20GetPersistentManagerv
Zue:_UNITY_TT_Set_Var_Design
YKk:_Context_Finalize_m1386439645
S8:__ZN21SystemInfoStringCache16StaticInitializeEPv
_jh:_TlsStream__ctor_m4117943603
Ryd:__ZN5physx2Cm20visualizeLinearLimitERNS0_12RenderOutputEfRKNS_11PxTransformES5_fb
Dvf:_Collection_1_IsSynchronized_m1770501505_gshared
V_c:__ZN5physx2Sc7BodySim18internalWakeUpBaseEf
KXl:__ZN6il2cpp2gc16GarbageCollector23MakeDescriptorForObjectEPji
u3:__ZNSt3__212basic_stringIcNS_11char_traitsIcEE13stl_allocatorIcL18MemLabelIdentifier1ELi16EEE21__grow_by_and_replaceEjjjjjjPKc
rSi:_ParameterModifier_t1820634920_marshal_pinvoke
yEb:__ZNK13MonoBehaviour7GetNameEv
Cjj:__Z104RuntimeInvoker_Int32_t2071877448_Il2CppObject_UICharInfo_t3056636800_Int32_t2071877448_Int32_t2071877448PK10MethodInfoPvPS2_
gPl:__ZN13dynamic_arrayIP12Il2CppObjectLj4EE9push_backEv
zla:__ZN19ScriptingInvocation28AdjustArgumentsToMatchMethodEv
dgg:_AbstractEventData_Use_m1797212290
_Sh:__ZL56AppDomainSetup_t611332832_CustomAttributesCacheGeneratorP21CustomAttributesCache
G8i:__Z76RuntimeInvoker_Boolean_t3825574718_Ray_t2469606224_RaycastHitU26_t1969197280PK10MethodInfoPvPS2_
dLl:__ZN6il2cpp2vm4Type19GetGenericParameterEPK10Il2CppType
y_k:_Nullable_1_get_HasValue_m2864081451_gshared
UDi:_InternalEnumerator_1__ctor_m439810834_AdjustorThunk
Qze:__Z51Register_UnityEngine_CanvasGroup_get_blocksRaycastsv
Zck:_InternalEnumerator_1_get_Current_m2826780083_gshared
qxd:__ZN5physx20NpRigidActorTemplateINS_13PxRigidStaticEE15exportExtraDataERNS_22PxSerializationContextE
vvm:b119
XWl:__ZNK15dense_hashtableINSt3__24pairIK10KeyWrapperIP14Il2CppIUnknownEjEES5_N6il2cpp5utils11PointerHashIS3_EEN14dense_hash_mapIS5_jSB_NS0_8equal_toIS5_EENS0_9allocatorIS7_EEE9SelectKeyESE_SG_E12test_deletedEj
A8:__ZN14dense_hash_mapINSt3__212basic_stringIcNS0_11char_traitsIcEE13stl_allocatorIcL18MemLabelIdentifier54ELi16EEEEP11AssetBundle11djb2_hash_tIS7_ENS0_8equal_toIS7_EENS0_9allocatorINS0_4pairIKS7_S9_EEEEE13set_empty_keyERSG_
rii:__ZL105LayoutUtility_t4076838048_CustomAttributesCacheGenerator_LayoutUtility_U3CGetMinHeightU3Em__4_m1769295917P21CustomAttributesCache
d3d:__ZN5physx13BigConvexData5VLoadERNS_13PxInputStreamE
uCj:_RaycastHit2D_get_collider_m2568504212
aek:_InternalEnumerator_1__ctor_m2782443954_AdjustorThunk
df:_glBeginQuery
yGi:_Assembly_GetCustomAttributes_m95309865
rrj:_GUILayoutUtility_INTERNAL_CALL_Internal_GetWindowRect_m3236664463
Moj:__Z89RuntimeInvoker_Il2CppObject_Int16_t4041245914_Int16_t4041245914_Il2CppObject_Il2CppObjectPK10MethodInfoPvPS2_
Fdj:__Z94RuntimeInvoker_Single_t2076509932_UintOptions_t2267095136_Single_t2076509932_Int32_t2071877448PK10MethodInfoPvPS2_
M_l:__ZN6il2cpp2vmL9ends_withEPKcS2_
fJd:__ZN5physx11NodeManager6resizeEj
S$l:_GC_finish_collection
GIc:__ZN10Effector2D25CheckEffectorColliderMaskEP10Collider2DS1_
Ngh:_RC4__ctor_m1585026462
VW:__ZN20LocalFileSystemPosix10ToAbsoluteEPKc
Mtg:_GridLayoutGroup__ctor_m1099847132
M9j:_InternalEnumerator_1_get_Current_m2286118957_AdjustorThunk
x7k:_U3CU3Ec__DisplayClass78_0_U3CDOBlendableMoveByU3Eb__1_m2190492601
vHd:__ZN5physx2Sc5Scene24setContactModifyCallbackEPNS_23PxContactModifyCallbackE
H1f:_Convert_ToBoolean_m48997236
ECd:__ZNK5physx7NpScene28getSceneQueryStaticTimestampEv
Fs:__ZN6Object17MainThreadCleanupEv
wXf:_ArrayListWrapper_set_Capacity_m2792463350
i9l:_getcwd
Kdf:_StringBuilder_Append_m1128243247
JCc:__ZN16b2CapsuleContact6CreateEP9b2FixtureiS1_iP16b2BlockAllocator
qpk:_AnchorInfo_get_Offset_m142119297
K7a:__ZN25ThreadsafeLinearAllocatorD2Ev
IKg:_FileStream_Seek_m950719389
GKd:__ZN5physx2Sq10AABBPruner11preallocateEj
Ssj:_GUISkin_get_settings_m626844463
w6:__ZN21BillboardBatchManager16StaticInitializeEPv
Wsj:_Object_get_name_m2079638459
tvm:b117
qll:__ZL24UnresolvedVirtualCall_21P12Il2CppObjectiS0_S0_S0_PK10MethodInfo
xZ:__ZN12_GLOBAL__N_138ArchiveRedirectFileSystemStaticDestroyEPv
U1k:_InvokableCall_1_add_Delegate_m3048312905_gshared
Wdg:_EventHandler_Invoke_m1137722757
_xm:_emscripten_glLoadIdentity__wrapper
dAd:__ZN5physx2Sc19ShapeInstancePairLLC2ERNS0_8ShapeSimES3_RNS0_9ActorPairENS_7PxFlagsINS_10PxPairFlag4EnumEtEE
YQg:_MonoType_IsSubclassOf_m2211166238
iOl:__ZN6il2cpp6icalls8mscorlib6System5Array9GetLengthEP11Il2CppArrayi
LSi:_TypeFilter_EndInvoke_m997625354
cAf:_Collection_1_System_Collections_ICollection_CopyTo_m2859266050_gshared
f0:__ZN19RuntimeSceneManagerC2Ev
jw:__ZN7mecanim14ValueArrayCopyEPKNS_10ValueArrayEPS0_PKNS_14ValueArrayMaskE
rfk:_Comparer_1__ctor_m2876014041_gshared
h1l:_GC_continue_reclaim
uXf:_ArrayListWrapper_get_Count_m2207944952
rAh:_X509ChainElementCollection_System_Collections_IEnumerable_GetEnumerator_m2559704689
IWh:__ZL86BigInteger_t925946153_CustomAttributesCacheGenerator_BigInteger_op_Implicit_m622924526P21CustomAttributesCache
Bdi:__ZL59Dropdown_t1985816271_CustomAttributesCacheGenerator_m_ValueP21CustomAttributesCache
MCh:_InterpreterFactory_set_Gap_m2761943153
Gxh:_PublicKey_get_Key_m126090744
Jfa:__ZNSt3__26vectorINS_4pairIiiEENS_9allocatorIS2_EEE6insertENS_11__wrap_iterIPKS2_EERS7_
hje:__ZNSt3__23mapIN20TextRenderingPrivate7FontRefEP11FT_FaceRec_NS_4lessIS2_EENS_9allocatorINS_4pairIKS2_S4_EEEEEixERS9_
Sc:invoke_iiiidfii
$Ha:__ZN17ArchiveFileSystem10AddStorageEP20ArchiveStorageReader
jbd:__ZN5physx19NpRigidBodyTemplateINS_18PxArticulationLinkEE27setMaxDepenetrationVelocityEf
Tml:__ZL25UnresolvedVirtualCall_104P12Il2CppObjectS0_S0_S0_iPK10MethodInfo
Qod:__ZN5physx2Sc9ClothCore16setStretchConfigENS_22PxClothFabricPhaseType4EnumERKNS_20PxClothStretchConfigE
pzk:_Color_Equals_m661618137
qCf:__ZN21InterfaceFuncInvoker1Ib22UILineInfo_t3621277874E6InvokeEjP11Il2CppClassPvS0_
hDd:__ZN5physx15PxsParticleData13onOriginShiftERKNS_6PxVec3E
KAc:__ZNK12b2MotorJoint16GetReactionForceEf
QCa:__ZN12_GLOBAL__N_112UploadFormatE13TextureFormat
ELj:_EqualityComparer_1_System_Collections_IEqualityComparer_GetHashCode_m1203798961_gshared
vrl:__ZN6il2cpp2vm5Class15GetEnumBaseTypeEP11Il2CppClass
_Ig:_DirectoryNotFoundException__ctor_m3713860966
zqh:_SslStreamBase_Finalize_m2530628835
egk:_Comparer_1_get_Default_m4282764954_gshared
ZXk:_inherit__ctor_m4132014490
HAj:_Physics_Raycast_m2009151399
XMl:__ZN15dense_hashtableINSt3__24pairIK10KeyWrapperINS1_IP11Il2CppClassjEEES4_EES6_N6il2cpp8metadata14ArrayClassHashEN14dense_hash_mapIS6_S4_SB_NSA_17ArrayClassCompareENS0_9allocatorIS8_EEE9SelectKeyESD_SF_E12resize_deltaEjj
Flb:__ZNK9Texture2D16GetNpotTexelSizeEv
vEi:_InternalEnumerator_1__ctor_m245588437_gshared
lBh:_MatchAppendEvaluator_EndInvoke_m269118460
qBh:_Capture_get_Text_m3472127896
yTg:_DOTweenComponent_WaitForCompletion_m1897980136
QQj:_Mask_get_rectTransform_m3304369086
Kbl:_TooltipAttribute__ctor_m2640804852
aul:__ZNK10KeyWrapperINSt3__212basic_stringIcNS0_11char_traitsIcEENS0_9allocatorIcEEEEEeqERKS7_
Kee:__ZN13dynamic_arrayItLj2EE6insertEPtPKtS3_
j5i:__Z35RuntimeInvoker_Category_t1984577050PK10MethodInfoPvPS2_
BJj:_DefaultComparer_GetHashCode_m4073394827_gshared
yya:__ZN9GfxDevice22GetDefaultVertexBufferE26GfxDefaultVertexBufferTypej
SJf:_ReadOnlyCollection_1_System_Collections_ICollection_CopyTo_m1129689124_gshared
F9l:___fseeko_unlocked
_fj:__Z162RuntimeInvoker_Void_t1841601450_Il2CppObject_Int32_t2071877448_SByte_t454417549_SByte_t454417549_SingleU26_t4173844468_SingleU26_t4173844468_SingleU26_t4173844468PK10MethodInfoPvPS2_
VSl:__ZN15dense_hashtableI10KeyWrapperIP18Il2CppGenericClassES3_N6il2cpp8metadata22Il2CppGenericClassHashEN14dense_hash_setIS3_S6_NS5_25Il2CppGenericClassCompareENSt3__29allocatorIS3_EEE8IdentityES8_SB_E5clearEv
dAb:__ZN18StreamedBinaryReadILb1EE21TransferSTLStyleArrayI13dynamic_arrayI16SplashScreenLogoLj4EEEEvRT_17TransferMetaFlags
$Df:_Collection_1_Contains_m1999290510_gshared
oXc:__ZN5physx3Cct17CapsuleControllerC2ERKNS_16PxControllerDescERNS_9PxPhysicsEPNS_7PxSceneE
Zub:__ZN14SafeBinaryRead21TransferSTLStyleArrayINSt3__26vectorI17BlendShapeChannelNS1_9allocatorIS3_EEEEEEvRT_17TransferMetaFlags
T9:__Z17BeginSplashScreenv
KAk:_ControllerColliderHit_get_moveDirection_m3053186297
Dgm:__ZNSt3__212basic_stringIwNS_11char_traitsIwEENS_9allocatorIwEEE6appendIPwEENS_9enable_ifIXaasr21__is_forward_iteratorIT_EE5valuesr38__libcpp_string_gets_noexcept_iteratorIS9_EE5valueERS5_E4typeES9_S9_
OWb:__ZN9ShaderLab16SerializedShader8TransferI19StreamedBinaryWriteILb0EEEEvRT_
rmj:__Z55RuntimeInvoker_LabelFixup_t4090909514_Int32_t2071877448PK10MethodInfoPvPS2_
fD:__ZN7mecanim9animation18CreateAvatarMemoryEPKNS0_14AvatarConstantERNS_6memory9AllocatorE
d1f:_Stack_Pop_m3788808882
ghk:_Enumerator_VerifyCurrent_m4246196125_AdjustorThunk
hIj:_Dictionary_2_pick_value_m3484897877_gshared
Q_g:_RectPlugin_SetRelativeEndValue_m1255493911
f8f:_DateTime_op_Equality_m1867073872
$B:__ZN7mecanim8skeleton16SkeletonPoseCopyIN4math4trsXENS2_7affineXEEEvPKNS0_13SkeletonPoseTIT_EEPNS5_IT0_EE
CMb:__Z18Transfer_BlittableI19StreamedBinaryWriteILb0EELb0EaEvRK29SerializationCommandArgumentsR31RuntimeSerializationCommandInfo
fya:__ZN18GfxFramebufferGLES18GetFramebufferNameERK20GfxRenderTargetSetup
S0l:_GC_print_block_list
yKl:__ZN6il2cpp2vm14TypeNameParser12ParseVersionERKNSt3__212basic_stringIcNS2_11char_traitsIcEENS2_9allocatorIcEEEERtSB_SB_SB_
QEk:_CustomAnimationPlayable_OnSetPlayState_m1903832042
Gig:__ZN23InterfaceActionInvoker1IP25AxisEventData_t1524870173E6InvokeEjP11Il2CppClassPvS1_
VPl:__ZN6il2cpp6icalls8mscorlib6System2IO6MonoIO11GetFileTypeE12Il2CppIntPtrPi
jpc:__Z30Event_Get_Custom_PropCharacterP12Il2CppObject
zTc:__ZN5physx6shdfnd5ArrayINS_12PxDebugPointENS0_19ReflectionAllocatorIS2_EEE15growAndPushBackERKS2_
Tsm:_glGetFramebufferAttachmentParameteriv__wrapper
M4e:_SecurityElement_GetAttribute_m4288291176
gdk:_InternalEnumerator_1_System_Collections_IEnumerator_get_Current_m2389982234_gshared
b2g:_ShortcutExtensions_DOBlendableLocalRotateBy_m3944746952
msk:_UriParser_get_DefaultPort_m1377931533
odc:__Z56Register_UnityEngine_Camera_INTERNAL_set_backgroundColorv
yoa:__ZN14SafeBinaryRead20TransferTypelessDataEjPvi
vMh:__ZL66StringFreezingAttribute_t2691375565_CustomAttributesCacheGeneratorP21CustomAttributesCache
ayc:__ZN9rapidjson13GenericReaderINS_4UTF8IcEES2_13JSONAllocatorE10ParseFalseILj1ENS_25GenericInsituStringStreamIS2_EENS_15GenericDocumentIS2_S3_S3_EEEEvRT0_RT1_
_pf:_List_1_AddCollection_m3284813601_gshared
B9a:__ZN33AssetBundleLoadFromAsyncOperation7PerformEv
_gi:__ZL102ToggleGroup_t1030026315_CustomAttributesCacheGenerator_ToggleGroup_U3CActiveTogglesU3Em__1_m4052653494P21CustomAttributesCache
U6i:__Z69RuntimeInvoker_Single_t2076509932_Int32_t2071877448_Int32_t2071877448PK10MethodInfoPvPS2_
R_:__Z19GetActiveColorSpacev
SLj:_EqualityComparer_1__cctor_m1672307556_gshared
uki:_SoapTypeAttribute_get_IsInteropXmlElement_m2941294827
$me:_UNITY_tt_face_load_kern
xff:_Enumerator_System_Collections_IEnumerator_get_Current_m3542273247_gshared
HVf:_Char_System_IConvertible_ToUInt32_m1557991717_AdjustorThunk
xaf:_Encoding_get_UTF8Unmarked_m628720656
eBg:_NumberFormatter_RoundBits_m1545255255
B$:__Z6StrCmpPKcS0_
Wbk:_InternalEnumerator_1_MoveNext_m2906956792_gshared
Aeb:__ZN18StreamedBinaryReadILb1EE21TransferSTLStyleArrayINSt3__26vectorI17SortingLayerEntryNS2_9allocatorIS4_EEEEEEvRT_17TransferMetaFlags
n$k:_Nullable_1_ToString_m678068069_AdjustorThunk
hYb:__Z21CheckGpuProgramUsable20ShaderGpuProgramType
krl:__ZNK15dense_hashtableINSt3__24pairIK10KeyWrapperIPK22Il2CppGenericParameterEP11Il2CppClassEES6_N6il2cpp5utils11PointerHashIS4_EEN14dense_hash_mapIS6_S9_SE_NS0_8equal_toIS6_EENS0_9allocatorISA_EEE9SelectKeyESH_SJ_E13find_positionERS7_
_ij:__Z55RuntimeInvoker_Boolean_t3825574718_Keyframe_t1449471340PK10MethodInfoPvPS2_
wHi:_Binder__cctor_m3736115807
IUa:__ZN13BatchRenderer5FlushEv
ulm:__ZNKSt8bad_cast4whatEv
xdd:__ZN5physx6shdfnd5ArrayIPvNS0_19ReflectionAllocatorINS_2Cm5BlockIhLj128EEEEEE4copyINS0_15InlineAllocatorILj256ES7_EEEEvRKNS1_IS2_T_EE
$Rf:_Attribute_GetHashCode_m2653962112
eie:__ZN20TextRenderingPrivate19NativeTextGenerator5SetupEv
NMk:_AsyncResult_GetReplyMessage_m262842621
RXa:__ZNK15SharedLightData24GetFinalShadowResolutionEv
qjl:_Enumerator__ctor_m3021143890_AdjustorThunk
dhd:__ZN5physx6shdfnd8PoolBaseINS_16NpConnectorArrayENS0_19ReflectionAllocatorIS2_EEE15disposeElementsEv
mAb:__ZN12AspectRatios8TransferI18StreamedBinaryReadILb0EEEEvRT_
Yee:__ZN14PhysicsManager19CreatePvdConnectionEv
qIh:__ZL66X509ExtensionCollection_t1640144839_CustomAttributesCacheGeneratorP21CustomAttributesCache
n4b:__ZN10GameObject14CopyPropertiesERS_
mrc:__Z44Register_UnityEngine_GUIStyle_get_fixedWidthv
$0e:_RSACryptoServiceProvider_Common_m2581564813
GTk:_X509CertificateEnumerator_MoveNext_m4060814498
Q1:__ZN14SafeBinaryRead4InitERK16TypeTreeIteratorii24TransferInstructionFlags18MemLabelIdentifier
lBi:_ArrayReadOnlyList_1_GetEnumerator_m634288642_gshared
D3a:__ZNK13ScreenManager12IsFullScreenEv
dam:_rand
oFl:__ZN15dense_hashtableINSt3__24pairIK10KeyWrapperINS1_IPK10MethodInfoP11Il2CppClassEEEjEES9_17ReflectionMapHashIS8_EN14dense_hash_mapIS9_jSD_19ReflectionMapEqualsIS8_ENS0_9allocatorISB_EEE9SelectKeyESG_SI_E12maybe_shrinkEv
mgd:__ZNK5physx12NpConstraint9getActorsERPNS_12PxRigidActorES3_
UA:__ZN11UnityEngine9Animation33SetGenericTransformPropertyValuesERKNS0_30AnimatorGenericBindingConstantERKN7mecanim10ValueArrayEP9Transform
kim:__ZNKSt3__28numpunctIwE16do_decimal_pointEv
zNf:_ReadOnlyCollection_1_GetEnumerator_m2481390116_gshared
bIb:__ZN14SafeBinaryRead21TransferSTLStyleArrayINSt3__26vectorI17AnimationCurveTplIfE13stl_allocatorIS4_L18MemLabelIdentifier1ELi16EEEEEEvRT_17TransferMetaFlags
hcc:__Z60Register_UnityEngine_AsyncOperation_set_allowSceneActivationv
I5d:__ZN5physx6shdfnd8PoolBaseIN17PxcPoolMallocData10PoolData16ENS0_19ReflectionAllocatorIS3_EEE15disposeElementsEv
hRj:_CullStateChangedEvent__ctor_m4025397477
gfk:_Comparer_1_System_Collections_IComparer_Compare_m3622294293_gshared
X8d:__ZN9Rigidbody23UpdateInterpolationNodeEv
ycm:__ZNSt3__26locale2id5__getEv
Kni:_ObjectManager_RegisterObject_m872610295
TPa:__Z22PrepareOptimizedPlanesPK5PlaneiPKN4math7_float4E
Mmj:__Z47RuntimeInvoker_Vector3_t2243707580_Il2CppObjectPK10MethodInfoPvPS2_
lXk:_cue_showOrNot_dissapear_m3146032692
uDj:_RectOffset_t3387826427_marshal_pinvoke
aFe:__ZN11UnityEngine7Connect13ConfigHandler13ConfigChangedERK8UnityStr
tsg:_Graphic_SetVerticesDirty_m1607014370
u6:__ZN17UniqueIDGenerator15CreatePureIndexEv
Eim:__ZNSt3__27codecvtIDsc11__mbstate_tED0Ev
khh:_MD2__ctor_m3133818738
dE:__ZN11UnityEngine9Animation28GenericAnimationBindingCache15DidReloadDomainEv
eeh:_AppDomain_InternalGetProcessGuid_m1278588156
Mxg:_InputField_MoveRight_m386206014
DOb:__ZN6HelperI18StreamedBinaryReadILb0EE23TransferArrayField_InfoE24SerializationFunctionForERKS2_R23StaticTransferFieldInfoPb
fBd:__ZN5physx7NpScene8addActorERNS_7PxActorE
ENe:_Array_InternalArray__ICollection_Remove_TisIl2CppObject_m2425110446_gshared
FUj:_ScrollRect_set_inertia_m2575649134
eIg:_BinaryReader_ReadBoolean_m2892291883
UAc:__ZNK12b2MouseJoint17GetReactionTorqueEf
ZPh:__ZL66DSASignatureDeformatter_t2187578719_CustomAttributesCacheGeneratorP21CustomAttributesCache
h7b:__ZN4Mesh24UpdateSubMeshVertexRangeEi
f4i:__Z91RuntimeInvoker_Boolean_t3825574718_Il2CppObject_Il2CppObject_Il2CppObject_Int32_t2071877448PK10MethodInfoPvPS2_
xnc:__Z14GUIClipTextureP9Texture2DPhiiii
a8i:__Z67RuntimeInvoker_Void_t1841601450_GenericMixerPlayableU26_t1620735334PK10MethodInfoPvPS2_
bDi:_InternalEnumerator_1_Dispose_m1064404287_AdjustorThunk
OAa:__ZNSt3__26vectorI27ComputeShaderBuiltinSamplerNS_9allocatorIS1_EEE21__push_back_slow_pathIKS1_EEvRT_
rgj:__Z95RuntimeInvoker_Void_t1841601450_ObjectU5BU5DU26_t3223402458_Int32_t2071877448_Int32_t2071877448PK10MethodInfoPvPS2_
boh:_TlsServerCertificate_validateCertificates_m1988583701
$0i:__Z52RuntimeInvoker_DateTime_t693205669_Int16_t4041245914PK10MethodInfoPvPS2_
hrk:_Uri__ctor_m3927533881
IHh:__ZL61DllImportAttribute_t3000813225_CustomAttributesCacheGeneratorP21CustomAttributesCache
f$:__ZNK9Transform18TransformDirectionERK8Vector3f
B1d:__ZN5physx21PxsBodyTransformVault6updateEv
yKa:__ZNK17ArchiveFileSystem12GetAssetGUIDERK13FileEntryData
$Xb:__ZNSt3__26vectorIN9ShaderLab20SerializedSubProgram15MatrixParameterENS_9allocatorIS3_EEE21__push_back_slow_pathIKS3_EEvRT_
fqj:_GUILayoutEntry_SetHorizontal_m1828181654
P5:__ZN13RuntimeStaticINSt3__23setIPFvP11Il2CppClassR23CachedSerializationDataRbENS0_4lessIS8_EENS0_9allocatorIS8_EEEEE16StaticInitializeEPv
tLc:__ZL29GeomMTDCallback_CapsuleConvexRN5physx6PxVec3ERfRKNS_10PxGeometryERKNS_11PxTransformES5_S8_
wfm:__ZNKSt3__210__time_put8__do_putEPwRS1_PK2tmcc
sMj:_EqualityComparer_1_get_Default_m1852501307_gshared
KIe:_DOTween_ApplyTo_TisVector3_t2243707580_TisVector3_t2243707580_TisVectorOptions_t293385261_m4094452420_gshared
eS:__ZNKSt3__23mapINS_12basic_stringIcNS_11char_traitsIcEENS_9allocatorIcEEEES6_NS_4lessIS6_EENS4_INS_4pairIKS6_S6_EEEEE16__find_equal_keyERPNS_16__tree_node_baseIPvEERSA_
I3i:__Z94RuntimeInvoker_Void_t1841601450_Il2CppObject_ByteU5BU5DU26_t790777611_ByteU5BU5DU26_t790777611PK10MethodInfoPvPS2_
QDb:__ZN10MonoScript23VirtualRedirectTransferER17RemapPPtrTransfer
_km:__ZNK10__cxxabiv120__si_class_type_info27has_unambiguous_public_baseEPNS_19__dynamic_cast_infoEPvi
QCg:_NumberFormatInfo_get_PercentNegativePattern_m1162448153
Mvi:__ZN18VirtActionInvoker2IP25TweenerCore_3_t3925803634bE6InvokeEjPvS1_b
_Ih:__ZL56SyncHashtable_t1343674558_CustomAttributesCacheGeneratorP21CustomAttributesCache
BDb:__ZN24RingBufferMemoryFileData9SetLengthEy
Dqm:_glTexSubImage3D__wrapper
CBh:_FactoryCache_Add_m2602974721
WMa:__Z21WriteImageAsyncThreadPv
N5:__ZL16GetInterfaceImpl18UnityInterfaceGUID
Orl:__ZN6il2cpp2vmL17SetupFieldOffsetsENS0_15FieldLayoutKindEP11Il2CppClassjRKNSt3__26vectorIjNS4_9allocatorIjEEEE
lif:_List_1_System_Collections_IList_get_Item_m936612973_gshared
TE:__ZNSt3__26vectorI8UnityStrNS_9allocatorIS1_EEE26__swap_out_circular_bufferERNS_14__split_bufferIS1_RS3_EE
qU:__ZN13EmscriptenWWW7GetSizeEv
d_l:__ZN6il2cpp6icalls8mscorlib6System15MonoCustomAttrs27GetCustomAttributesInternalEP12Il2CppObjectP20Il2CppReflectionTypeb
$uc:__ZN8JSONRead21TransferSTLStyleArrayI13dynamic_arrayI8Vector3fLj4EEEEvRT_18MemLabelIdentifier17TransferMetaFlags
Uni:_ObjectReader_ReadAssembly_m869834280
JJc:__ZNK5physx3Cct13BoxController11getPositionEv
oib:__ZN22RenderingCommandBufferD0Ev
xud:__ZN5physx14NpRigidDynamicC2ERKNS_11PxTransformE
TMf:_ReadOnlyCollection_1_System_Collections_IList_get_Item_m1831743662_gshared
cFf:_Collection_1_IsSynchronized_m971497175_gshared
gPc:__Z27sweepCCTBox_HeightFieldGeomRKN5physx10PxGeometryERKNS_11PxTransformERKNS_2Gu3BoxERKNS_6PxVec3EfRNS_10PxSweepHitENS_7PxFlagsINS_9PxHitFlag4EnumEtEEf
nOe:_ExecuteEvents_Execute_TisIl2CppObject_m4168308247_gshared
hYj:_Text_get_cachedTextGeneratorForLayout_m1357670532
tI:__ZL31InitializeAudioScriptingClassesv
JSa:__Z14SortGUIByDepthP10GUIElementS0_
cFg:_NumberFormatter_NumberToString_m126384393
P$k:_Nullable_1_GetValueOrDefault_m1253254751_gshared
Dj:_glBindSampler
DNk:_LogicalCallContext__ctor_m3173272863
bLc:__ZN5physx3Cct9SweepTest18updateTouchedGeomsEPKNS0_30InternalCBData_FindTouchedGeomERKNS0_13UserObstaclesERKNS_17PxExtendedBounds3ERKNS_19PxControllerFiltersERKNS_6PxVec3E
FPg:_MonoCustomAttrs__cctor_m2608447972
REg:_Int32_FindSign_m3803672540
rhk:_Enumerator_System_Collections_IEnumerator_Reset_m70453843_AdjustorThunk
Apm:dynCall_ii
Osj:_GUISkin_get_scrollView_m2941173958
Bce:_PxCloseExtensions
DX:__ZNK20LocalFileSystemPosix21GetAvailableDiskSpaceEPKcRy
Qt:__ZNSt3__26__treeIiNS_4lessIiEENS_9allocatorIiEEE7destroyEPNS_11__tree_nodeIiPvEE
y1k:_Predicate_1__ctor_m2995226103_gshared
Qjh:_CipherSuite_InitializeCipher_m229247572
vJe:_Tweener_DoChangeEndValue_TisIl2CppObject_TisIl2CppObject_TisStringOptions_t2885323933_m2790691854_gshared
$xh:_X509Certificate2__ctor_m1095336775
psa:__ZNK9GfxDevice14GetWorldMatrixEv
HRi:_MonoProperty_GetGetMethod_m1100580870
JHj:_Dictionary_2__ctor_m1950568359_gshared
whk:_Enumerator_System_Collections_IDictionaryEnumerator_get_Key_m1214978221_AdjustorThunk
AM:__ZN11SoundHandle13CreateChannelEb
_mb:__ZN14SafeBinaryRead21TransferSTLStyleArrayI13dynamic_arrayI12LightmapDataLj4EEEEvRT_17TransferMetaFlags
yeh:_ArgumentException__ctor_m3312963299
Gbb:__ZN21AssetBundleFileSystem11CreateAsDirER13FileEntryData
RUb:__ZNSt3__26vectorIN9ShaderLab20SerializedSubProgram16TextureParameterENS_9allocatorIS3_EEE6assignIPS3_EENS_9enable_ifIXaasr21__is_forward_iteratorIT_EE5valuesr16is_constructibleIS3_NS_15iterator_traitsISA_E9referenceEEE5valueEvE4typeESA_SA_
h5b:__Z16CreateGameObjectRKNSt3__212basic_stringIcNS_11char_traitsIcEENS_9allocatorIcEEEEPKcz
gWl:__ZNSt3__26vectorIN6il2cpp2os10ThreadImpl10APCRequestENS_9allocatorIS4_EEE26__swap_out_circular_bufferERNS_14__split_bufferIS4_RS6_EE
ahc:__Z51Quaternion_CUSTOM_INTERNAL_CALL_Internal_ToEulerRadRK11QuaternionfR8Vector3f
uql:__ZL25UnresolvedVirtualCall_295P12Il2CppObjectiPK10MethodInfo
jFi:_InternalEnumerator_1_System_Collections_IEnumerator_Reset_m2726857860_AdjustorThunk
RIb:__ZN9Scripting36IsSystemCollectionsGenericDictionaryEP11Il2CppClass
D5h:__ZL100ShortcutExtensions_t3524050470_CustomAttributesCacheGenerator_ShortcutExtensions_DOMoveX_m3420231689P21CustomAttributesCache
YAh:_X509SubjectKeyIdentifierExtension__ctor_m3887138480
hjl:_Enumerator_System_Collections_IEnumerator_get_Current_m2853089017_AdjustorThunk
dCc:__ZN12b2WheelJoint24SolvePositionConstraintsERK12b2SolverData
Cod:__ZNK5physx2Sc9ClothCore20getNbCollisionPlanesEv
ti:_emscripten_exit_fullscreen
YHd:__ZN5physx6shdfnd5ArrayINS_9PxBounds3ENS0_15InlineAllocatorILj192ENS0_19ReflectionAllocatorIS2_EEEEE8recreateEj
rQd:__ZNK5physx23PxsBroadPhaseContextSap7getTypeEv
H3d:__ZNK5physx13GuMeshFactory17getNbHeightFieldsEv
Nvg:_InputField_get_mesh_m3276583786
AIk:_GCHandle_Free_m1639542352_AdjustorThunk
gob:__ZNK29LineParametersPropertyBinding38SerializedPropertyPathToCurveAttributeER6ObjectPKc
Kmh:_Context_set_ClientRandom_m631392719
RIk:_OutAttribute__ctor_m1447235100
bYl:__ZN6il2cpp6icalls8mscorlib6System6String19InternalAllocateStrEi
Suc:__Z29Transfer_Blittable_ArrayFieldI8JSONRead11QuaternionfEvRT_R9ArrayInfoRK23StaticTransferFieldInfo
xOh:__ZL65SoapParameterAttribute_t2780084514_CustomAttributesCacheGeneratorP21CustomAttributesCache
UKd:__ZNK5physx2Gu12OBBAABBTestsILb1EEclENS_6shdfnd3aos5Vec3VES5_
n7i:__Z47RuntimeInvoker_Vector4_t2243707581_Il2CppObjectPK10MethodInfoPvPS2_
wKc:__ZN5physx3Cct9SweepTestD2Ev
Kfb:__ZN9Behaviour8TransferI18StreamedBinaryReadILb0EEEEvRT_
mmk:_Enumerator_System_Collections_IEnumerator_get_Current_m1429268283
$bk:_InternalEnumerator_1_System_Collections_IEnumerator_Reset_m2046302786_AdjustorThunk
KTc:__ZN26IntersectAnyVsMeshCallbackILi0ELb0EED2Ev
Iil:_Enumerator_VerifyState_m32458666_gshared
QOk:_Array_swap_TisVector3_t2243707580_TisVector3_t2243707580_m1858120806_gshared
wT:__ZN19CloudServiceHandler10QueueEventEPN11UnityEngine15CloudWebService14CloudEventInfoE
GWg:_DOTween_To_m1374977403
i$k:_Nullable_1_GetHashCode_m1645245653_gshared
Qvg:_InputField_get_shouldHideMobileInput_m3694613599
QBa:__ZN4gles20DestroyRenderSurfaceEP7ApiGLESP17RenderSurfaceGLES
gjl:_Enumerator_System_Collections_IEnumerator_get_Current_m2853089017_gshared
nRl:__ZN15dense_hashtableINSt3__24pairIK10KeyWrapperINS1_IPKcS4_EEEiEES6_24NamespaceAndNamePairHashN14dense_hash_mapIS6_iS9_26NamespaceAndNamePairEqualsNS0_9allocatorIS8_EEE9SelectKeyESB_SD_E8min_sizeEjj
Y7:__ZN17MessageIdentifier13StaticDestroyEPv
Zim:__ZNSt3__26locale5__imp7installINS_7num_putIcNS_19ostreambuf_iteratorIcNS_11char_traitsIcEEEEEEEEvPT_
Slc:__Z34Transform_CUSTOM_SetAsFirstSiblingP12Il2CppObject
oOc:__ZN12_GLOBAL__N_141SphereMeshContactGenerationCallback_ScaleD0Ev
nVc:__ZN5physx3Cct17CapsuleController16setContactOffsetEf
Off:_Enumerator_get_Current_m827571811_AdjustorThunk
a5h:__ZL99ShortcutExtensions_t3524050470_CustomAttributesCacheGenerator_ShortcutExtensions_DOFade_m3908825903P21CustomAttributesCache
mha:__ZN17PersistentManager40GlobalToLocalSerializedFileIndexInternalERK26SerializedObjectIdentifier
dml:__ZL24UnresolvedVirtualCall_62P12Il2CppObjectiS0_S0_S0_S0_S0_S0_PK10MethodInfo
ngg:_BaseEventData_get_selectedObject_m3551206992
s4g:_SimpleCollator_CompareOrdinal_m2176988387
h3h:__ZL47Rect_t3681755626_CustomAttributesCacheGeneratorP21CustomAttributesCache
Meg:_CCGregorianCalendar_GetYear_m1289900195
Ofd:__ZN12GeomQueryAnyIN5physx10PxSweepHitEE7geomHitERKNS0_2Sq17SceneQueryManagerERKNS0_15MultiQueryInputERKNS3_9ShapeDataERKNS0_10PxGeometryERKNS0_11PxTransformENS0_7PxFlagsINS0_9PxHitFlag4EnumEtEEjPS1_fbPNS0_9PxBounds3E
aFg:_Int16_ToString_m2592645088
Twa:__ZN13TranslateGLES4InitERK12GraphicsCaps16GfxDeviceLevelGL
DPb:__Z29Transfer_Blittable_ArrayFieldI18StreamedBinaryReadILb0EE10ColorRGBAfEvRT_R9ArrayInfoRK23StaticTransferFieldInfo
yNc:__ZN43CapsuleHeightfieldContactGenerationCallback7onEventEjPj
vae:__ZThn4_N12MemoryStream4readEPvj
Ipi:_SerializationInfoEnumerator_Reset_m2206466680
zkj:__Z48RuntimeInvoker_Void_t1841601450_Slot_t2267560602PK10MethodInfoPvPS2_
hXb:__ZNSt3__26__treeINS_12__value_typeI8UnityStriEENS_19__map_value_compareIS2_S3_NS_4lessIS2_EELb1EEENS_9allocatorIS3_EEE4findIS2_EENS_15__tree_iteratorIS3_PNS_11__tree_nodeIS3_PvEEiEERKT_
cNl:__ZNK15dense_hashtableINSt3__24pairIK10KeyWrapperIP11Il2CppClassES4_EES5_N6il2cpp8metadata16SZArrayClassHashEN14dense_hash_mapIS5_S4_SA_NS9_19SZArrayClassCompareENS0_9allocatorIS7_EEE9SelectKeyESC_SE_E10test_emptyERK24dense_hashtable_iteratorIS7_S5_SA_SG_SC_SE_E
ZLa:__ZZ23InitPlayerLoopCallbacksvEN33PostLateUpdateInputEndFramestruct7ForwardEv
RCe:__Z32CustomEventData_CUSTOM_AddUInt32P12Il2CppObjectP12Il2CppStringj
JPj:_GenericEqualityComparer_1_Equals_m1934771410_gshared
jJh:__ZL57DebuggingModes_t2073970606_CustomAttributesCacheGeneratorP21CustomAttributesCache
QPg:__ZN16VirtFuncInvoker0IP12MethodInfo_tE6InvokeEjPv
wDb:__ZN24RingBufferMemoryFileDataD0Ev
KBf:_Collection_1_System_Collections_IList_get_IsFixedSize_m993584401_gshared
IBb:__ZNSt3__26vectorIN30RuntimeInitializeOnLoadManager15ClassMethodInfoE13stl_allocatorIS2_L18MemLabelIdentifier12ELi16EEE8__appendEj
eyd:__ZN5physx6shdfnd8internal8HashBaseIPNS_13NpVolumeCacheES4_NS0_4HashIS4_EENS1_11HashSetBaseIS4_S6_NS0_9AllocatorELb0EE6GetKeyES8_Lb0EE15reserveInternalEj
K3i:__Z84RuntimeInvoker_Il2CppObject_Il2CppObject_Il2CppObject_Il2CppObject_Int32_t2071877448PK10MethodInfoPvPS2_
O5l:__ZN6il2cpp2os6Memory12AlignedAllocEjj
Qid:__ZN5physx6shdfnd8internal8HashBaseIPKNS_6PxBaseES5_NS0_4HashIS5_EENS1_11HashSetBaseIS5_S7_NS0_9AllocatorELb0EE6GetKeyES9_Lb0EE6createERKS5_Rb
AMg:_StreamReader_get_EndOfStream_m997398933
YOd:__ZN5physx28solveFrictionCoulombPreBlockEPKNS_23PxcSolverConstraintDescEjRNS_16PxcSolverContextE
nJb:__Z18Transfer_BlittableI17RemapPPtrTransferLb0E11ColorRGBA32EvRK29SerializationCommandArgumentsR31RuntimeSerializationCommandInfo
ZIi:_TypeBuilder_get_is_created_m736553860
CGk:_GameObject_set_layer_m2712461877
vKe:_Tweener_DoChangeValues_TisInt32_t2071877448_TisInt32_t2071877448_TisNoOptions_t2508431845_m236656855_gshared
vih:_RSAManaged__ctor_m1370411656
QOb:__Z18Transfer_BlittableI18StreamedBinaryReadILb0EELb1E10ColorRGBAfEvRK29SerializationCommandArgumentsR31RuntimeSerializationCommandInfo
Y5d:__ZN5physx7Cooking19computeHullPolygonsERKNS_20PxSimpleTriangleMeshERNS_19PxAllocatorCallbackERjRPNS_6PxVec3ES6_RPjS6_RPNS_13PxHullPolygonE
nac:__ZL27GetComponentsImplementationILb0ELi0EEbR10GameObjectbRK17CompareParametersRK39GetComponentsImplementation_ReturnValue
$yf:_Collection_1_Insert_m3223100600_gshared
Rgj:__Z103RuntimeInvoker_Il2CppObject_Il2CppObject_Il2CppObject_Int32_t2071877448_Single_t2076509932_Il2CppObjectPK10MethodInfoPvPS2_
Gwm:_emscripten_glGetActiveAttrib__wrapper
$Sj:_Raycast3DCallback_EndInvoke_m3234280377
K2:__Z18BuildScriptClassIdP11Il2CppClass
Mpk:_BalancingGroup__ctor_m2474435406
$$k:_Nullable_1_Equals_m1377231269_AdjustorThunk
xed:__ZN5physx12NpConstraint12actorDeletedEPNS_12PxRigidActorE
dpg:_ColorTweenCallback__ctor_m3619686788
h4:__ZL16ReadTypeTreeImplILb0EEbR8TypeTreeRK16TypeTreeIteratorRPKhS6_i
sXj:__ZN18VirtActionInvoker1IfE6InvokeEjPvf
nUf:_Byte_System_IConvertible_ToInt32_m1032609763_AdjustorThunk
kYb:__ZN9ShaderLab7ProgramD0Ev
hZc:__ZN5physx2Sc8ShapeSim18reinsertBroadPhaseEv
nTk:_PKCS12_GetSymmetricAlgorithm_m3196291685
Hec:__Z42Register_UnityEngine_RectOffset_set_bottomv
W8k:_TweenParams_OnPlay_m1710613197
GXf:_ArrayListWrapper_IndexOf_m3574835167
Ocd:__ZN5physx2Sc5Scene11removeShapeERNS0_8ShapeSimEb
g_a:__ZN28LightProbeProxyVolumeContext8CopyFromERKS_
tbl:_Texture_Internal_GetHeight_m2775530157
_mg:_U3COnFinishSubmitU3Ec__Iterator0_System_Collections_Generic_IEnumeratorU3CobjectU3E_get_Current_m1823105495
b7h:__ZL66U3CU3Ec__DisplayClass2_0_t964843029_CustomAttributesCacheGeneratorP21CustomAttributesCache
g5:__ZN23TransformChangeDispatch32QueueTransformChangeIfHasChangedER18TransformHierarchy
c3e:_SymmetricAlgorithm_get_FeedbackSize_m544664262
LGl:__ZNK15dense_hashtableINSt3__24pairIK10KeyWrapperINS1_IPK12PropertyInfoP11Il2CppClassEEEjEES9_17ReflectionMapHashIS8_EN14dense_hash_mapIS9_jSD_19ReflectionMapEqualsIS8_ENS0_9allocatorISB_EEE9SelectKeyESG_SI_E5beginEv
NYa:__ZN18DeferredRenderLoop15RenderFinalPassEP13RenderTextureS1_
Qbm:__ZNSt3__213basic_ostreamIcNS_11char_traitsIcEEE6sentryD2Ev
RBa:__ZN7ApiGLES18DeleteRenderbufferERj
T0c:__ZN5physx6shdfnd5ArrayIPvNS0_15InlineAllocatorILj256ENS0_19ReflectionAllocatorINS_16NpConnectorArrayEEEEEE15growAndPushBackERKS2_
JAa:__ZL23ProgramUniformMatrix4fvPK7ApiGLESjiihPKv
JSh:__ZL67ThreadInterruptedException_t63303933_CustomAttributesCacheGeneratorP21CustomAttributesCache
Db:invoke_iiiiiiifii
FSd:__ZN5physx14SingleAABBTaskC2Ev
sbk:_InternalEnumerator_1_MoveNext_m3629145604_gshared
yUb:__ZN9ShaderLab20SerializedSubProgram15MatrixParameter8TransferI14SafeBinaryReadEEvRT_
oSf:_BitConverter_AmILittleEndian_m2716658112
pac:__ZL27GetComponentsImplementationILb0ELi1EEbR10GameObjectbRK17CompareParametersRK39GetComponentsImplementation_ReturnValue
hue:_Round_Down_To_Grid
Q_j:_UTF8Decoder__ctor_m1460357288
nda:__ZN13RenderTexture7ReleaseEv
jnk:_PatternCompiler_EmitBranchEnd_m3390109636
Y1f:_Convert_ToByte_m1201588964
FMc:__ZNK5physx2Cm23FastVertex2ShapeScaling20transformQueryBoundsERNS_6PxVec3ES3_RNS_7PxMat33E
Xbc:__Z36AsyncOperation_Get_Custom_PropIsDoneP12Il2CppObject
U_g:_RectPlugin__ctor_m403056936
DEa:__ZN22CreateGpuProgramOutput12CreateParamsEv
qUg:_Bounce_EaseIn_m3887019168
jqi:_RuntimeMethodHandle_GetHashCode_m2682236001_AdjustorThunk
XSl:__ZN15dense_hashtableI10KeyWrapperIP18Il2CppGenericClassES3_N6il2cpp8metadata22Il2CppGenericClassHashEN14dense_hash_setIS3_S6_NS5_25Il2CppGenericClassCompareENSt3__29allocatorIS3_EEE8IdentityES8_SB_E12expand_arrayEjN21dense_hash_map_traits17integral_constantIbLb0EEE
obd:__ZNK5physx18NpArticulationLink11getChildrenEPPNS_18PxArticulationLinkEj
wJk:_ActivationServices_AllocateUninitializedClassInstance_m3410698501
zKl:__ZNSt3__26vectorIiNS_9allocatorIiEEE21__push_back_slow_pathIiEEvOT_
r0k:_Nullable_1_GetHashCode_m1916216271_AdjustorThunk
Iwa:__ZNK14GfxContextGLES13GetDefaultFBOEv
f$l:_GC_promote_black_lists
ONe:_Array_InternalArray__ICollection_Remove_TisSByte_t454417549_m2474211570_gshared
rvg:_Image_AddQuad_m1600600902
__d:__Z15atomIntegrationfPKPN5physx11PxsBodyCoreEPKPNS_12PxsRigidBodyEjPKNS_2Cm13SpatialVectorEPNS_13PxcSolverBodyEPNS_17PxcSolverBodyDataEPS9_RjSH_
jxd:__ZN5physx13NpRigidStatic11createShapeERKNS_10PxGeometryEPKPNS_10PxMaterialEtNS_7PxFlagsINS_11PxShapeFlag4EnumEhEE
vsb:__ZN18StreamedBinaryReadILb1EE21TransferSTLStyleArrayI13dynamic_arrayI12SpriteVertexLj4EEEEvRT_17TransferMetaFlags
zBl:_il2cpp_class_is_enum
RJl:__ZN6il2cpp2vm6Thread49CheckCurrentThreadForInterruptAndThrowIfNecessaryEv
nfa:__ZNSt3__23mapIN9ShaderLab16FastPropertyNameEN18UnityPropertySheet11UnityTexEnvENS_4lessIS2_EENS_9allocatorINS_4pairIKS2_S4_EEEEEixERS9_
zHg:_IntPtr_ToString_m428195821_AdjustorThunk
V4c:__ZN5physx11NpAggregate22removeActorAndReinsertERNS_7PxActorEb
K4k:_U3CU3Ec__DisplayClass36_0__ctor_m1361888349
A6d:__ZZL19ExtractHullPolygonsRjRN5physx2Gu9ContainerERKNS0_17ConvexHullBuilderEPS2_S3_EN5Local9FloodFillES3_PKNS0_11AdjTriangleEjPb
pCf:_Collection_1_System_Collections_IList_Contains_m1897568526_gshared
rLi:_FieldBuilder_get_FieldType_m2267463269
IRf:_SimpleEnumerator_Clone_m3032847657
dnk:_PatternCompiler_EmitInfo_m597931026
vwl:__ZN6il2cpp2vm13MetadataCache34GetTypeInfoFromTypeDefinitionIndexEi
Hfh:_ModulusRing_Multiply_m3113924743
alc:__Z47Texture2D_CUSTOM_INTERNAL_CALL_GetPixelBilinearP12Il2CppObjectffR10ColorRGBAf
xmh:_Context_get_ServerSettings_m225713600
sk:_emscripten_glVertexAttrib4f
r2k:_InvokableCall_1_remove_Delegate_m3576859071_gshared
dHf:_ReadOnlyCollection_1_System_Collections_IEnumerable_GetEnumerator_m531171980_gshared
fge:__ZL28RegisterModuleICalls_Physicsv
jwb:__ZN10Matrix4x4f8TransferI19StreamedBinaryWriteILb0EEEEvRT_
LZe:_Array_Sort_TisUILineInfo_t3621277874_m3105833015_gshared
BAb:__ZN15ResourceManager23VirtualRedirectTransferER18StreamedBinaryReadILb1EE
Eq:FUNCTION_TABLE_vf
wRg:_MonoType_GetGenericArguments_m2708198481
RTa:__ZN11HaloManager21ReleaseGeometryJobMemEP25DynamicVBOGeometryJobData
rif:_List_1_AddEnumerable_m2489692396_gshared
D7c:__ZN5physx14NpArticulation26setMaxProjectionIterationsEj
FWc:__ZN5physx3Cct15ObstacleContext14removeObstacleEj
h1h:__ZL93TextGenerator_t647235000_CustomAttributesCacheGenerator_TextGenerator_Dispose_cpp_m1755131202P21CustomAttributesCache
bPj:_GenericEqualityComparer_1_GetHashCode_m3450627064_gshared
i$j:_WaitHandle__ctor_m1256161634
ry:__ZN7mecanim12statemachine24CreateStateMachineMemoryEPKNS0_20StateMachineConstantERNS_6memory9AllocatorE
Iua:__ZN9GfxDevice18SetGlobalDepthBiasEff
sMk:_Identity_get_ChannelSink_m3989446673
szl:__ZN6il2cpp6icalls8mscorlib6System8MonoType12get_AssemblyEP20Il2CppReflectionType
ylg:__ZN16VirtFuncInvoker3IP25AxisEventData_t1524870173fffE6InvokeEjPvfff
Wrg:_FontData_get_richText_m2013560754
F6e:_SecurityException_get_PermissionType_m3543350822
Fk:_emscripten_glGetPointerv
EFk:_GenericMixerPlayable_Destroy_m3608330239_AdjustorThunk
Kud:__ZNK5physx15NpActorTemplateINS_14PxRigidDynamicEE13getActorFlagsEv
CC:__ZN8Animator22ApplyBuiltinRootMotionEv
gbe:__ZN5physx7profile8ZoneImplINS_28PxProfileNameProviderForwardEE17handleBufferFlushEPKhj
jem:__ZNKSt3__28time_getIcNS_19istreambuf_iteratorIcNS_11char_traitsIcEEEEE11do_get_yearES4_S4_RNS_8ios_baseERjP2tm
S4c:__ZN5physx2Sc5ActorC2ERNS0_16InteractionSceneEhNS0_14IslandNodeInfo4TypeE
q7i:__Z80RuntimeInvoker_Void_t1841601450_Il2CppObject_Il2CppObject_Vector2U26_t3911752445PK10MethodInfoPvPS2_
w8c:__ZN5physx21PxcArticulationHelper16prepareDataBlockERNS_9PxcFsDataEPKNS_19PxsArticulationLinkEtPNS_11PxTransformEPNS_12PxcFsInertiaEPNS_30PxcArticulationJointTransformsEj
Bpd:__ZN5physx15NpActorTemplateINS_7PxClothEED2Ev
lKh:__ZL55StreamReader_t2360341767_CustomAttributesCacheGeneratorP21CustomAttributesCache
cKi:_DerivedType_get_UnderlyingSystemType_m3904230233
xjg:_PointerEventData_get_rawPointerPress_m448871540
SZi:__Z135RuntimeInvoker_IntPtr_t_Il2CppObject_Int32_t2071877448_Int32_t2071877448_Int32_t2071877448_Int32_t2071877448_MonoIOErrorU26_t1029615899PK10MethodInfoPvPS2_
eod:__ZN5physx2Sc9ClothCore16setRestPositionsEPKNS_6PxVec4E
soc:__ZN5IMGUI14GUIWindowStateD2Ev
n8a:__ZL13MotionHandleriPK27EmscriptenDeviceMotionEventPv
Azh:_X509Certificate2Collection__ctor_m819526826
q8k:_TweenExtensions_WaitForCompletion_m3746720476
Dpb:__ZN8Renderer10SetVisibleEb
UH:__ZN12AudioManager5ResetEv
mwi:_TweenerCore_3_UpdateDelay_m3455091692_gshared
lrl:__ZNK15dense_hashtableINSt3__24pairIK10KeyWrapperIPK22Il2CppGenericParameterEP11Il2CppClassEES6_N6il2cpp5utils11PointerHashIS4_EEN14dense_hash_mapIS6_S9_SE_NS0_8equal_toIS6_EENS0_9allocatorISA_EEE9SelectKeyESH_SJ_E12test_deletedEj
Ygh:_KeyBuilder_Key_m3814433741
zeh:_ArgumentException__ctor_m158205422
RQe:_Array_compare_TisVector3_t2243707580_m3709184876_gshared
qug:_HorizontalLayoutGroup_SetLayoutHorizontal_m3237355818
P0d:__ZN5physx6shdfnd5ArrayIPNS_10PxsCCDPairENS0_19ReflectionAllocatorIS3_EEE15growAndPushBackERKS3_
gYl:__ZN6il2cpp6icalls8mscorlib6System11Environment20GetWindowsFolderPathEi
$gi:__ZL60AspectRatioFitter_t3114550109_CustomAttributesCacheGeneratorP21CustomAttributesCache
Lx:__ZN7mecanim5human18HumanPoseBlendNodeERNS0_9HumanPoseEPS1_f
Zpe:_UNITY_FT_RoundFix
UXb:__ZN9ShaderLab20SerializedSubProgram15AddTextureParamEPKcii16TextureDimension
Zu:__ZNK8Animator26GetTypeInfoVirtualInternalEv
wQ:__ZN23CloudWebServicesManager23VirtualRedirectTransferER17RemapPPtrTransfer
pPc:__ZNK5physx2Gu15HeightFieldUtil12traceSegmentI24ConvexVsHeightfieldSweepLb0ELb0ELb1EEEvRKNS_6PxVec3ES6_PT_PS5_
_Cb:__Z23AppendPathNameExtensionRKNSt3__212basic_stringIcNS_11char_traitsIcEENS_9allocatorIcEEEES7_
j3d:__ZNK5physx12PxConvexMesh19getConcreteTypeNameEv
QPc:__ZN5physx2Gu19gjkLocalPenetrationINS0_9TriangleVENS0_17ShrunkConvexHullVEEEjRKT_RKT0_RKNS_6shdfnd3aos6FloatVERNSB_5Vec3VESG_SG_RSC_PhSI_Rhb
eml:__ZL24UnresolvedVirtualCall_63P12Il2CppObjectS0_S0_S0_PK10MethodInfo
FK:__ZN4FMOD6System17setSoftwareFormatEi17FMOD_SOUND_FORMATii18FMOD_DSP_RESAMPLER
wRc:__ZN5physx2Gu15GJKLocalRayCastERNS0_9TriangleVERNS0_4BoxVERKNS_6shdfnd3aos6FloatVERKNS6_5Vec3VESC_RS7_RSA_SE_fb
N6d:__ZN5physx18AdjacenciesBuilderC2Ev
HIj:_Dictionary_2_System_Collections_ICollection_get_IsSynchronized_m960517203_gshared
fZc:__ZN5physx2Sc13ShapeIterator4initERKNS0_8ActorSimE
W2b:__ZNK20LightPropertyBinding9BindValueER6ObjectRKN11UnityEngine9Animation14GenericBindingERNS3_10BoundCurveE
V3j:_Type_MakeByRefType_m1323101575
bye:__ZN2UI6Canvas27UpdateEventIndexesRecursiveERi
ow:__ZN7mecanim9animation18EvaluateRootMotionERKNS0_18ClipMuscleConstantERKNS0_15ClipMuscleInputEPKfS8_RNS0_12MotionOutputEb
Dwg:_InputField_set_characterLimit_m4114734597
_le:_UNITY_FT_Outline_New
odj:__Z218RuntimeInvoker_Void_t1841601450_Vector3ArrayOptions_t2672570171_Il2CppObject_SByte_t454417549_Il2CppObject_Il2CppObject_Single_t2076509932_Il2CppObject_Il2CppObject_Single_t2076509932_SByte_t454417549_Int32_t2071877448PK10MethodInfoPvPS2_
nZl:__ZNSt3__218uninitialized_copyIPNS_4pairIK10KeyWrapperIPK19Il2CppGenericMethodEP10MethodInfoEESB_EET0_T_SD_SC_
IMj:_EqualityComparer_1_System_Collections_IEqualityComparer_Equals_m1738053269_gshared
LAf:_Collection_1__ctor_m1566657168_gshared
QNb:__Z19TransferField_ArrayI19StreamedBinaryWriteILb0EE27Converter_SimpleNativeClassI8GUIStyleEEvRK23StaticTransferFieldInfoR31RuntimeSerializationCommandInfoRT0_
b_e:__ZN18VirtActionInvoker1IP22ByteU5BU5D_t3397334013E6InvokeEjPvS1_
lUj:_Scrollbar_SetDirection_m3264558284
ejd:__ZN5physx14NpArticulationC2Ev
_vm:_emscripten_glCopyTexSubImage2D__wrapper
qW:__ZNK13ScreenManager12GetIsFocusedEv
dmi:_RemotingServices_RegisterInternalChannels_m1827304423
rtj:_GUIStyle_get_onNormal_m1675201777
hu:__ZL32CleanupAnimationScriptingClassesv
KCf:__ZN23InterfaceActionInvoker2Ii22UILineInfo_t3621277874E6InvokeEjP11Il2CppClassPviS0_
byl:__ZNSt3__213__vector_baseIN6il2cpp2os19SocketHandleWrapperENS_9allocatorIS3_EEED2Ev
a7g:_ASN1_get_Length_m3359111015
Isj:_GUISkin_get_verticalScrollbarThumb_m649633186
nvj:_GUIStyleState_Cleanup_m705006206
Kzi:_TweenerCore_3_Reset_m1082756004_gshared
Gd:invoke_viiffi
m1g:_ShortcutExtensions_DOLocalPath_m3055576589
$$j:_Thread_GetCachedCurrentUICulture_m5590127
Rkb:__ZNK12CubemapArray20GetRuntimeMemorySizeEv
xel:_Vector3_Dot_m3161182818
_Fa:__ZN9GfxDevice5FlushEv
qVb:__Z14resize_trimmedINSt3__26vectorIN9ShaderLab18SerializedPropertyENS0_9allocatorIS3_EEEEEvRT_j
ctf:_List_1_CheckMatch_m4018158235_gshared
njj:__Z91RuntimeInvoker_Int32_t2071877448_UICharInfo_t3056636800_UICharInfo_t3056636800_Il2CppObjectPK10MethodInfoPvPS2_
sAd:__ZN5physx6shdfnd8PoolBaseINS_2Sc9ActorPairENS0_19ReflectionAllocatorIS3_EEE12allocateSlabEv
J$i:__Z89RuntimeInvoker_Boolean_t3825574718_Il2CppObject_Il2CppObject_StreamingContext_t1417235061PK10MethodInfoPvPS2_
aUf:_Byte_System_IConvertible_ToDateTime_m1583041031
S9:__ZNSt3__26__treeINS_12__value_typeINS_12basic_stringIcNS_11char_traitsIcEENS_9allocatorIcEEEEiEENS_19__map_value_compareIS7_S8_NS_4lessIS7_EELb1EEENS5_IS8_EEE4findIS7_EENS_15__tree_iteratorIS8_PNS_11__tree_nodeIS8_PvEEiEERKT_
Vxj:_Mathf_Min_m4188732864
Lvb:__ZN10VertexData8TransferI24GenerateTypeTreeTransferEEvRT_
UYl:__ZN13Il2CppHashMapIPK19Il2CppGenericMethodP10MethodInfoN6il2cpp8metadata23Il2CppGenericMethodHashENS6_26Il2CppGenericMethodCompareENSt3__29allocatorINS9_4pairIK10KeyWrapperIS2_ES4_EEEEEC2EjRKS7_RKS8_
Vah:_EncryptedData_get_EncryptionAlgorithm_m1301274243
CMj:_EqualityComparer_1_System_Collections_IEqualityComparer_Equals_m1089835085_gshared
mPa:__ZL10CullLightsRK22SceneCullingParametersR11CullResults
rrg:_Dropdown__cctor_m264401557
$Qf:_Array_IndexOf_m2819632474
pgk:_Comparer_1__cctor_m3996541505_gshared
my:__ZN7mecanim12statemachine20GetBlendTreeConstantERKNS0_13StateConstantEi
uAm:b213
tAm:b212
vBd:__ZN5physx7NpScene21setDominanceGroupPairEhhRKNS_20PxDominanceGroupPairE
rAm:b210
yAm:b217
xAm:b216
q5b:__Z40GetTemporaryCachePathApplicationSpecificv
vAm:b214
Xsa:__ZN9GfxDevice16EndAsyncJobFrameEv
FAm:b219
AAm:b218
yvg:_Image_get_minWidth_m1809071077
qhm:__ZNKSt3__27codecvtIcc11__mbstate_tE11do_encodingEv
Ume:_UNITY_tt_face_load_hhea
sDb:__ZN24RingBufferMemoryFileData11SetGrowableEb
_Ck:_PersistentCall__ctor_m2079279187
w1f:_Convert_ToBase64String_m1936815455
Am:___syscall3
ltd:__ZNK5physx15NpActorTemplateINS_16PxParticleSystemEE7getNameEv
Dm:___syscall6
iua:__ZN9GfxDevice15GetNextCPUFenceEv
Fm:___syscall4
R2g:_U3CU3Ec__DisplayClass16_0_U3CDOShadowStrengthU3Eb__0_m95294285
qag:_Decimal_ToString_m759431975
gDf:_Collection_1_System_Collections_IList_get_IsFixedSize_m2204750039_gshared
Eee:__ZN8Collider7PRODUCEE18MemLabelIdentifier18ObjectCreationMode
Zmg:_ColorBlock_get_fadeDuration_m987725262
yOk:_Array_swap_TisCustomAttributeTypedArgument_t1498197914_m1011287885_gshared
mfi:__ZL195U3CMouseDragOutsideRectU3Ec__Iterator1_t2599668326_CustomAttributesCacheGenerator_U3CMouseDragOutsideRectU3Ec__Iterator1_System_Collections_Generic_IEnumeratorU3CobjectU3E_get_Current_m2602955272P21CustomAttributesCache
tUl:__ZN6il2cpp2vm3RCW14QueryInterfaceILb1EEEP14Il2CppIUnknownP15Il2CppComObjectRK10Il2CppGuid
$Fc:__ZNSt3__26__sortIR24RayHitsByDepthComparitorP12RaycastHit2DEEvT0_S5_T_
RUi:__Z59RuntimeInvoker_UnicodeCategory_t682236799_Int16_t4041245914PK10MethodInfoPvPS2_
gmf:_List_1_AddCollection_m3266731889_gshared
DOh:__ZL59ITrackingHandler_t2759960940_CustomAttributesCacheGeneratorP21CustomAttributesCache
Vm:_emscripten_glShaderBinary
y0j:_DelegatePInvokeWrapper_ThreadStart_t3437517264
nYe:_Array_qsort_TisVector2_t2243707579_TisVector2_t2243707579_m3308480721_gshared
cQf:_Array_InternalArray__RemoveAt_m1126483634
tX:__ZNK20LocalFileSystemPosix6ExistsERK13FileEntryData
t8j:_InternalEnumerator_1_Dispose_m4038440306_AdjustorThunk
Rhj:__Z50RuntimeInvoker_Void_t1841601450_Color32_t874517518PK10MethodInfoPvPS2_
Y2c:__ZN5physx35NpArticulationJointGetBodiesFromScbERNS_3Scb17ArticulationJointERPNS0_4BodyES5_
hMk:_SynchronizationAttribute_ReleaseLock_m2873780842
dag:_DivideByZeroException__ctor_m280382972
E2d:__ZNK5physx2Sc15ClothFabricCore16getTetherLengthsEPfj
Xbi:__ZL114PointerEventData_t1599784723_CustomAttributesCacheGenerator_PointerEventData_get_pointerCurrentRaycast_m1374279130P21CustomAttributesCache
_yj:_Mesh_get_colors32_m4153271224
rHc:__ZNK17Physics2DSettings26GetTypeInfoVirtualInternalEv
vBe:__Z58Register_UnityEngine_Canvas_GetETC1SupportedCanvasMaterialv
hBj:_Physics2D_INTERNAL_CALL_GetRayIntersectionAll_m161475998
yu:__ZN17AnimationCurveTplIfE8TransferI18StreamedBinaryReadILb1EEEEvRT_
A8f:_DateTimeOffset_GetHashCode_m3312197462_AdjustorThunk
gFe:__ZN18UnityConnectClientD2Ev
Svh:_ServicePoint_set_UseNagleAlgorithm_m2618011464
owg:_InputField_get_textComponent_m2074509413
SAl:_il2cpp_set_data_dir
e1g:_ShortcutExtensions_DOMoveY_m2397857768
lGd:__ZN5physx2Sc13ConstraintSim8getForceERNS_6PxVec3ES3_
xrk:_Uri_get_IsUnc_m2111738174
$cb:__ZN16LevelGameManager23VirtualRedirectTransferER19StreamedBinaryWriteILb0EE
jvb:__Z32TransferEnumWithNameForceIntSizeI14SafeBinaryRead16GfxPrimitiveTypeEvRT_RT0_PKc17TransferMetaFlags
Hek:_DefaultComparer__ctor_m1961329658_gshared
RNi:_ParameterBuilder_get_Attributes_m2421099277
$bl:_TouchScreenKeyboard_get_done_m406461410
y_h:__ZL100Quaternion_t4030073918_CustomAttributesCacheGenerator_Quaternion_LookRotation_m700700634____upwards1P21CustomAttributesCache
aal:_DataUtility_INTERNAL_CALL_GetPadding_m1621366113
imb:__ZN18StreamedBinaryReadILb1EE21TransferResourceImageE19ActiveResourceImagePKcR13StreamingInfoPvj
msj:_GUISkin_get_toggle_m4153935270
dLc:__ZN5physx15PxGeometryQuery18computePenetrationERNS_6PxVec3ERfRKNS_10PxGeometryERKNS_11PxTransformES6_S9_
tEe:__ZN11UnityEngine15PlatformWrapper30GetGraphicsDriverLibraryStringEv
m1h:__ZL51UIVertex_t1204258818_CustomAttributesCacheGeneratorP21CustomAttributesCache
ofe:__ZN5Unity12PhysicsQueryC2Ev
l7h:__ZL68U3CU3Ec__DisplayClass12_0_t2728653346_CustomAttributesCacheGeneratorP21CustomAttributesCache
Imf:_List_1_get_Count_m1752597149_gshared
fih:_EncryptedPrivateKeyInfo_Decode_m1706190306
YFj:_ValueCollection_GetEnumerator_m401908452_gshared
dOb:__Z18Transfer_BlittableI18StreamedBinaryReadILb0EELb0E4AABBEvRK29SerializationCommandArgumentsR31RuntimeSerializationCommandInfo
fDc:__ZNSt3__227__insertion_sort_incompleteIR26ColliderIdentityComparitorPP10Collider2DEEbT0_S6_T_
IYd:__ZN5physx10PxsContext13updateIslandsEfPNS_10PxBaseTaskE
OAk:_ControllerColliderHit_t4070855101_marshal_pinvoke
E5f:_Convert_ToUInt16_m1665900934
sPf:_Converter_2_BeginInvoke_m898151494_gshared
O1i:__Z52RuntimeInvoker_UInt32_t2149682021_Double_t4078015681PK10MethodInfoPvPS2_
K_a:__Z14DrawGUITextureRK5RectTIfEP7Texture11ColorRGBA32P8Materiali
K5h:__ZL104ShortcutExtensions_t3524050470_CustomAttributesCacheGenerator_ShortcutExtensions_DOLocalPath_m3950589509P21CustomAttributesCache
oYj:_Text_get_supportRichText_m3291105891
bEj:_RectTransform_GetParentSize_m1571597933
FB:__ZN9BlobWrite8TransferI22OffsetPtrArrayTransferIKN4math7_float4EEEEvRT_PKc17TransferMetaFlags
ZMf:_ReadOnlyCollection_1_get_Count_m336636247_gshared
Qyc:__ZNK11b2EdgeShape7RayCastEP15b2RayCastOutputRK14b2RayCastInputRK11b2Transformi
bFk:_Playables_GetInputWeightValidated_m2453142047
uWi:__Z52RuntimeInvoker_Decimal_t724701077_Double_t4078015681PK10MethodInfoPvPS2_
jmk:_MatchCollection_GetEnumerator_m3516985966
hwc:__ZN9JSONWrite8TransferI4AABBEEvRT_PKc17TransferMetaFlags
ZZj:_UTF7Encoding__ctor_m2365939916
kJa:__ZN25MultiBlocksMemoryFileData9SetLengthEy
pN:__Z30GetAudioSpatializerDefinitionsR13dynamic_arrayIP29AudioEffectInternalDefinitionLj4EE
Ial:_TextGenerationSettings_Equals_m3944651893_AdjustorThunk
fRj:_MatEntry__ctor_m3650167335
Uej:__Z143RuntimeInvoker_Void_t1841601450_Il2CppObject_Vector2_t2243707579_Vector2_t2243707579_Color32_t874517518_Vector2_t2243707579_Vector2_t2243707579PK10MethodInfoPvPS2_
L$d:__ZNK18ScBeforeSolverTask7getNameEv
jDc:__ZN10Collider2D13AwakeFromLoadE17AwakeFromLoadMode
ulb:__ZNK9Texture2D20GetRuntimeMemorySizeEv
$3j:_TypeInitializationException__ctor_m2993591639
VOd:__ZN5physx14solve1D4_BlockEPKNS_23PxcSolverConstraintDescEjRNS_16PxcSolverContextE
gMj:_EqualityComparer_1__ctor_m3788663378_gshared
g8k:_TweenExtensions_Flip_m2922754576
co:_emscripten_glUniform2iv
TPh:__ZL46DES_t1353513560_CustomAttributesCacheGeneratorP21CustomAttributesCache
CLc:__ZL33GeomMTDCallback_ConvexHeightFieldRN5physx6PxVec3ERfRKNS_10PxGeometryERKNS_11PxTransformES5_S8_
jUh:__ZL79Convert_t2607082565_CustomAttributesCacheGenerator_Convert_ToSingle_m2156102599P21CustomAttributesCache
Uie:_UNITY_FT_Outline_Transform
PXk:_Gear1_Start_m2167152775
atj:_SkinChangedDelegate_BeginInvoke_m4259161711
Wkc:__Z60Register_UnityEngine_Sprites_DataUtility_Internal_GetMinSizev
csl:__ZN6il2cpp2vm5Class10GetMethodsEP11Il2CppClassPPv
ACj:_Rect_get_x_m1393582490_AdjustorThunk
LGh:__ZL65Il2CppArray_CustomAttributesCacheGenerator_Array_Sort_m3500510484P21CustomAttributesCache
H5e:_Hash_GetObjectData_m315532943
exa:__ZN7ApiGLES17DeleteFramebufferERN2gl6HandleILNS0_10ObjectTypeE9EEES3_
Rrl:__ZN13dynamic_arrayIP11Il2CppClassLj4EE7reserveEj
DDa:__ZN15UniformTFMethod13MapBoneBufferEj
tlh:_RecordProtocol_SendAlert_m2816808523
bxe:__ZN2UI14CanvasRendererD2Ev
ddc:__Z45Register_UnityEngine_Camera_set_nearClipPlanev
V8j:_InternalEnumerator_1_get_Current_m3296972783_gshared
aUd:__ZN5physx26PxcPCMContactCapsuleConvexERKNS_2Gu13GeometryUnionES3_RKNS_11PxTransformES6_RKfRNS_10PxcNpCacheERNS0_13ContactBufferE
gag:_Decimal_CompareTo_m2454501434
ANg:_SynchronizedReader_Read_m1399666181
hQi:_MonoEvent_get_Name_m2796714646
_8:__Z9SetupArgviPPKc
q8h:__ZL68U3CU3Ec__DisplayClass71_0_t1424691497_CustomAttributesCacheGeneratorP21CustomAttributesCache
KPe:_Array_InternalArray__IEnumerable_GetEnumerator_TisHitInfo_t1761367055_m2486283755_gshared
Rxc:__ZN9rapidjson13GenericReaderINS_4UTF8IcEES2_13JSONAllocatorE11ParseObjectILj0ENS_19GenericStringStreamIS2_EENS_15GenericDocumentIS2_S3_S3_EEEEvRT0_RT1_
WTf:_Convert_ToBoolean_m2032547942
MHl:__ZN6il2cpp2vm10Reflection7IsFieldEP12Il2CppObject
H_l:__ZN6il2cpp2vm4Enum21GetEnumValuesAndNamesEP11Il2CppClassPP11Il2CppArrayS6_
Jqg:_OptionData__ctor_m743450704
Bge:__Z57Register_UnityEngine_Rigidbody_INTERNAL_CALL_MoveRotationv
Bmh:_Context_get_SentConnectionEnd_m3114190867
W5c:__ZN5physx10PxsContext17addParticleSystemEPNS_15PxsParticleDataERKNS_26PxvParticleSystemParameterEb
S3c:__ZN5physx3Scb5Scene13addRigidNoSimINS0_4BodyELb1ELb1EEEvRT_RNS0_13ObjectTrackerE
Ndb:__ZN12ImmediatePtrI10GameObjectE8TransferI19StreamedBinaryWriteILb0EEEEvRT_
Vkb:__ZN12CubemapArray23VirtualRedirectTransferER24GenerateTypeTreeTransfer
rll:__ZL24UnresolvedVirtualCall_22P12Il2CppObjectS0_iS0_S0_S0_PK10MethodInfo
L4:__ZN12FileAccessor4OpenER15FileSystemEntry14FilePermission16FileAutoBehavior
i_l:__ZN6il2cpp2os9Directory6CreateERKNSt3__212basic_stringIcNS2_11char_traitsIcEENS2_9allocatorIcEEEEPi
Aga:__ZN4PPtrI6ShaderE8TransferI18StreamedBinaryReadILb0EEEEvRT_
OQc:__ZL19sweepBoxVsTrianglesjPKN5physx10PxTriangleERKNS_2Gu3BoxERKNS_6PxVec3EfRNS_10PxSweepHitENS_7PxFlagsINS_9PxHitFlag4EnumEtEEbPKj
pjg:_PointerEventData_set_clickTime_m3931922487
vpj:_WindowFunction__ctor_m977095815
YAg:_NumberFormatter_AppendNonNegativeNumber_m629862866
qha:__ZNSt3__26vectorINS_4pairIN9ShaderLab16FastPropertyNameEN18UnityPropertySheet11UnityTexEnvEEENS_9allocatorIS6_EEE21__push_back_slow_pathIKS6_EEvRT_
NKa:__ZN15ArchiveReadFile5WriteEyPKvPy
tHk:_ResourceInfo__ctor_m2401359321_AdjustorThunk
_Ie:_PluginsManager_GetDefaultPlugin_TisQuaternion_t4030073918_TisVector3_t2243707580_TisQuaternionOptions_t466049668_m1295222791_gshared
C_f:_Hashtable__ctor_m392789568
K$j:_Mutex_CreateMutex_internal_m2352956576
_Zj:_UTF7Encoding__cctor_m4192443836
f8i:__Z73RuntimeInvoker_Boolean_t3825574718_Playable_t3667545548_Int32_t2071877448PK10MethodInfoPvPS2_
N8:__ZN13RuntimeStaticI15ApplicationInfoE13StaticDestroyEPv
qqc:__Z31GUIStyle_CUSTOM_SetFontInternalP12Il2CppObjectS0_
A:tempValue
B5a:__Z29StdTemplateConversionFunctionIaiEbPvR14SafeBinaryRead
f6l:__ZN6il2cpp8metadata24Il2CppGenericContextHash4HashEPK20Il2CppGenericContext
Iqb:__ZN15QualitySettings8TransferI18StreamedBinaryReadILb1EEEEvRT_
rEg:_Int16_System_IConvertible_ToSingle_m3277935657
M0:__Z29scripting_class_from_fullnamePKcS0_S0_
Rkg:_StandaloneInputModule_get_inputMode_m1415645893
BEc:__ZN10Collider2D23VirtualRedirectTransferER18StreamedBinaryReadILb1EE
zE:__ZZN8Animator15InitializeClassEvEN32FunctorImpl_386kTransformChanged4CallEPviR11MessageData
WZh:__ZL97GameObject_t1756533147_CustomAttributesCacheGenerator_GameObject_GetComponentInParent_m1235194528P21CustomAttributesCache
ZSj:_Raycast3DCallback_Invoke_m2271859924
KLj:_EqualityComparer_1_System_Collections_IEqualityComparer_Equals_m300683774_gshared
TOk:_Array_swap_TisVector4_t2243707581_m3318229453_gshared
LLc:__ZN5physx2Gu29ConvexVsMeshContactGeneration20generateLastContactsEv
E0c:__ZNK5physx2Gu22SupportMapRelativeImplINS0_4BoxVEE14doSupportSweepERKNS_6shdfnd3aos5Vec3VE
Iem:__ZNSt3__220__get_up_to_n_digitsIcNS_19istreambuf_iteratorIcNS_11char_traitsIcEEEEEEiRT0_S5_RjRKNS_5ctypeIT_EEi
tN:__ZN11AudioSource19CreateOpenALRolloffEfff
Hne:_UNITY_FT_Stream_ReadAt
j$h:__ZL111Object_t1021602117_CustomAttributesCacheGenerator_Object_DestroyImmediate_m3563317232____allowDestroyingAssets1P21CustomAttributesCache
gaj:__Z132RuntimeInvoker_Void_t1841601450_Rect_t3681755626_Il2CppObject_Int32_t2071877448_Int32_t2071877448_Int32_t2071877448_SByte_t454417549PK10MethodInfoPvPS2_
frd:__ZN5physx2Sc17ParticleSystemSim16getParticleStateEv
R_d:__ZN5physx6shdfnd5ArrayINS_25PxsCompoundContactManagerENS0_19ReflectionAllocatorIS2_EEE8recreateEj
Ttj:_GUIStyle_get_lineHeight_m2132859383
VNb:__Z46EmitSerializationCommandsForManagedObjectFieldI18StreamedBinaryReadILb0EEEvRK18TransferField_InfoR32SerializationCommandQueueBuilderRP20AllowNameConversions
Ejj:__Z102RuntimeInvoker_Int32_t2071877448_Il2CppObject_UIVertex_t1204258818_Int32_t2071877448_Int32_t2071877448PK10MethodInfoPvPS2_
x0h:__ZL82Physics2D_t2540166467_CustomAttributesCacheGenerator_Physics2D_Raycast_m1220041042P21CustomAttributesCache
kJf:_ReadOnlyCollection_1_System_Collections_Generic_IListU3CTU3E_RemoveAt_m2137782652_gshared
wDk:_UnityEvent_FindMethod_Impl_m3303953986
zk:_glReadBuffer
e4j:_UInt16_System_IConvertible_ToBoolean_m887616848
WDa:__Z26TransformVerticesInnerLoopILb1ELb1ELb1EEvPhRK10Matrix4x4fRK10Matrix3x3fjPKhiiiS8_ii25GfxTransformVerticesFlags
NRd:__ZN5physx14PxsAABBManagerC2ERNS_2Cm13EventProfilerERNS_19PxcScratchAllocatorE
$Yh:__ZL120ScriptableObject_t1975622470_CustomAttributesCacheGenerator_ScriptableObject_Internal_CreateScriptableObject_m1778903390P21CustomAttributesCache
RO:__ZN11AudioModule22CreateAudioClipFromWWWEP10IWWWStreamPKcbbi
nUi:__Z142RuntimeInvoker_Boolean_t3825574718_Il2CppObject_Int32_t2071877448_Il2CppObject_SByte_t454417549_UInt32U26_t2197289955_ExceptionU26_t1467204777PK10MethodInfoPvPS2_
Edf:_StringBuilder_set_Length_m3039225444
aDf:_Collection_1_System_Collections_IList_Contains_m3870109702_gshared
XMe:_Array_InternalArray__ICollection_Contains_TisRaycastResult_t21186376_m3188614988_gshared
jGj:_Dictionary_2_System_Collections_Generic_ICollectionU3CSystem_Collections_Generic_KeyValuePairU3CTKeyU2CTValueU3EU3E_get_IsReadOnly_m1111602362_gshared
p6f:_CultureAwareComparer_GetHashCode_m3681260951
aze:__Z13RegisterClassIN2UI11CanvasGroupEEvv
Wgl:_U3CStartU3Ec__Iterator0__ctor_m951808111_gshared
$g:_emscripten_glClear
gTj:_Selectable__ctor_m1440593935
LWa:__ZN15SHConstantCacheC2ER13BatchRendererR15RenderLoopStats
PJa:__ZN14dense_hash_mapINSt3__212basic_stringIcNS0_11char_traitsIcEE13stl_allocatorIcL18MemLabelIdentifier54ELi16EEEEP20ArchiveStorageReader11djb2_hash_tIS7_ENS0_8equal_toIS7_EES4_INS0_4pairIKS7_S9_EELS5_54ELi16EEE15set_deleted_keyERSF_
uYf:_SynchronizedArrayListWrapper_get_Count_m4104930530
tGh:__ZL65Il2CppArray_CustomAttributesCacheGenerator_Array_Clear_m782967417P21CustomAttributesCache
Flm:___cxa_guard_abort
wIi:_CustomAttributeTypedArgument_t1498197914_marshal_pinvoke_back
_2:__ZN14MessageHandler28MessageIDToMessageIdentifierEi
Huh:_HttpRequestCreator_Create_m3607509610
G1h:__ZL50GUISkin_t1436893342_CustomAttributesCacheGeneratorP21CustomAttributesCache
Nml:__ZL24UnresolvedVirtualCall_98P12Il2CppObject8IntPtr_tPK10MethodInfo
euf:_List_1_Shift_m3824049528_gshared
Smi:_ArrayFixupRecord__ctor_m3659990982
Nmh:_Context_get_RandomCS_m3946020109
pFh:__ZL72IntPtr_t_CustomAttributesCacheGenerator_IntPtr_op_Inequality_m3044532593P21CustomAttributesCache
zqg:_Dropdown_get_onValueChanged_m3334401942
$2l:__ZN6il2cpp2vm10WaitHandle19NewManualResetEventEb
v0k:_Nullable_1_ToString_m769970515_AdjustorThunk
WJf:_ReadOnlyCollection_1_System_Collections_IList_Contains_m3707723158_gshared
VEl:__ZNK15dense_hashtableINSt3__24pairIK10KeyWrapperIPK10Il2CppTypeEjEES6_N6il2cpp8metadata14Il2CppTypeHashEN14dense_hash_mapIS6_jSB_NSA_17Il2CppTypeCompareENS0_9allocatorIS8_EEE9SelectKeyESD_SF_E10test_emptyERK30dense_hashtable_const_iteratorIS8_S6_SB_SH_SD_SF_E
b8j:_Version_GetHashCode_m880841176
ktk:_CustomEventData_Add_m4160204358
S$k:_Nullable_1_ToString_m1238126148_AdjustorThunk
rf:emscriptenWebGLGetUniform
Cr:FUNCTION_TABLE_iiiiiiiiiii
SSc:__ZN5physx2Gu19sweepCapsuleCapsuleERKNS0_7CapsuleES3_RKNS_6PxVec3EfRfRS4_S8_jRt
nNd:__ZN5physx2Gu29EPASupportMapPairRelativeImplINS0_9TriangleVENS0_11ConvexHullVEED0Ev
voa:__Z32TransferEnumWithNameForceIntSizeI14SafeBinaryRead13TextureFormatEvRT_RT0_PKc17TransferMetaFlags
Ofi:__ZL86Scrollbar_t3248359358_CustomAttributesCacheGenerator_Scrollbar_ClickRepeat_m3403943364P21CustomAttributesCache
dEk:_Playables_CheckInputBounds_m2953342617
lRa:__ZL10CleanUpJobP20CullingGroupsJobData
sVf:_Convert_ToInt32_m3683486440
mXk:_dragAndDrop__ctor_m1024813029
laf:_String_Join_m1966872927
xVa:__Z20IsRunningNativeTestsv
uak:_InternalEnumerator_1_System_Collections_IEnumerator_get_Current_m2035754659_AdjustorThunk
c3d:__ZN5physx13BigConvexData4LoadERNS_13PxInputStreamE
D_a:__ZN13RenderManager15BatchModeUpdateEv
bGl:__ZN15dense_hashtableINSt3__24pairIK10KeyWrapperINS1_IPK11Il2CppImageP11Il2CppClassEEEjEES9_17ReflectionMapHashIS8_EN14dense_hash_mapIS9_jSD_19ReflectionMapEqualsIS8_ENS0_9allocatorISB_EEE9SelectKeyESG_SI_E5clearEv
$0k:_Predicate_1_EndInvoke_m973058386_gshared
u_h:__ZL52LayerMask_t3188175821_CustomAttributesCacheGeneratorP21CustomAttributesCache
Otb:__ZN14SafeBinaryRead21TransferSTLStyleArrayI13dynamic_arrayI8Vector2fLj4EEEEvRT_17TransferMetaFlags
YSe:_Tweener_DoUpdateDelay_TisVector2_t2243707579_TisVector2_t2243707579_TisVectorOptions_t293385261_m690649000_gshared
lha:__ZN17PersistentManager51InstanceIDToLocalSerializedObjectIdentifierInternalEiR31LocalSerializedObjectIdentifier
ESi:_StrongNameKeyPair_System_Runtime_Serialization_IDeserializationCallback_OnDeserialization_m2330221363
$cd:__ZN5physx2Sc8ActorSim24postDominanceGroupChangeEv
j2i:__Z116RuntimeInvoker_Boolean_t3825574718_Il2CppObject_Int32_t2071877448_Int32_t2071877448_Il2CppObject_Int32U26_t455636984PK10MethodInfoPvPS2_
Ue:_glVertexAttribIPointer
v7j:_UnhandledExceptionEventHandler_EndInvoke_m2207457167
eEl:__ZN15dense_hashtableINSt3__24pairIK10KeyWrapperINS1_IPK9FieldInfoP11Il2CppClassEEEjEES9_17ReflectionMapHashIS8_EN14dense_hash_mapIS9_jSD_19ReflectionMapEqualsIS8_ENS0_9allocatorISB_EEE9SelectKeyESG_SI_EC2ERKSL_j
hGj:_Dictionary_2_System_Collections_ICollection_get_IsSynchronized_m304009368_gshared
mti:_HMAC_set_HashName_m457235014
Tdd:__ZN5physx2Cm8PtrTable5clearERNS0_22PtrTableStorageManagerE
xR:__ZNSt3__215basic_stringbufIcNS_11char_traitsIcEENS_9allocatorIcEEE7seekoffExNS_8ios_base7seekdirEj
gMe:_Array_InternalArray__ICollection_Contains_TisTableRange_t2011406615_m605506746_gshared
Lif:_List_1_Sort_m785723827_gshared
m5f:_Decimal_op_Explicit_m729046406
CWc:__ZN5physx3Cct15ObstacleContext7releaseEv
Nsg:_Graphic_OnEnable_m2900261811
zOd:__ZN5physx27solveFrictionBlockWriteBackEPKNS_23PxcSolverConstraintDescEjRNS_16PxcSolverContextEPNS_25PxcThresholdStreamElementEjPi
Mri:_CryptographicUnexpectedOperationException__ctor_m3552441227
CXf:_ArrayListWrapper_Clear_m321161741
c8h:__ZL68U3CU3Ec__DisplayClass57_0_t1707016309_CustomAttributesCacheGeneratorP21CustomAttributesCache
Rxg:_InputField_LineDownCharacterPosition_m2690468785
Gne:_UNITY_ft_glyphslot_alloc_bitmap
Gmj:__Z56RuntimeInvoker_ContentType_t1028629049_Int32_t2071877448PK10MethodInfoPvPS2_
PZe:_Array_Sort_TisVector2_t2243707579_TisVector2_t2243707579_m2582252549_gshared
e6j:_UInt64_System_IConvertible_ToDouble_m2828923873
tZi:__Z45RuntimeInvoker_Il2CppObject_Int16_t4041245914PK10MethodInfoPvPS2_
VUj:_ScrollRect_set_verticalScrollbarVisibility_m2424788384
Zof:_List_1_System_Collections_IList_set_Item_m1129584681_gshared
ape:_ft_raster1_render
Njc:__Z57Register_UnityEngine_RectTransform_INTERNAL_set_anchorMaxv
Pif:_List_1_set_Capacity_m491101164_gshared
Qjm:__ZNKSt3__221__basic_string_commonILb1EE20__throw_length_errorEv
Sdf:_StringBuilder_Insert_m1733097906
M3i:__Z88RuntimeInvoker_Void_t1841601450_Il2CppObject_Int32_t2071877448_Il2CppObject_Il2CppObjectPK10MethodInfoPvPS2_
Qk:_JS_SystemInfo_GetMemory
ALl:__ZN14dense_hash_mapI10KeyWrapperINSt3__24pairIP11Il2CppClassjEEES4_N6il2cpp8metadata14ArrayClassHashENS8_17ArrayClassCompareENS1_9allocatorINS2_IKS6_S4_EEEEEC2EjRKS9_RKSA_
sgk:_Comparer_1__ctor_m1157133632_gshared
qrh:_SslStreamBase_get_HashStrength_m480059173
oCa:__ZN18GfxFramebufferGLES13ReadbackImageER14ImageReferenceiiiiii
TEl:__ZN30dense_hashtable_const_iteratorINSt3__24pairIK10KeyWrapperIPK10Il2CppTypeEjEES6_N6il2cpp8metadata14Il2CppTypeHashEN14dense_hash_mapIS6_jSB_NSA_17Il2CppTypeCompareENS0_9allocatorIS8_EEE9SelectKeyESD_SF_EppEv
Wkk:_ValueCollection_System_Collections_Generic_ICollectionU3CTValueU3E_Clear_m3271993638_gshared
H_:__ZN13RuntimeStaticI11WindManagerE13StaticDestroyEPv
Eia:__ZN6prcoreL12RemapGenericI17TexFormatARGB888815TexFormatRGB565EEvPKNS_9InnerInfoE
jJ:__ZN4FMOD7Channel19setReverbPropertiesEPK29FMOD_REVERB_CHANNELPROPERTIES
z2:__ZN13MonoBehaviour22GetScriptFullClassNameEv
eCl:_il2cpp_object_get_class
Y_d:__ZN5physx6shdfnd4sortIPNS_15PxsContactPatchENS_27SortBoundsPredicateManifoldENS0_19ReflectionAllocatorIS3_EEEEvPT_jRKT0_RKT1_j
uKh:__ZL111DerivedType_t1016359113_CustomAttributesCacheGenerator_DerivedType_MakeGenericType_m742223168____typeArguments0P21CustomAttributesCache
wUa:__ZN13BatchRendererC2ER15RenderLoopStatsRK15RenderNodeQueuebb
Ruh:_ServicePointManager_FindServicePoint_m3137356168
Vk:_emscripten_glGetVertexAttribfv
pna:__ZN20SphericalHarmonicsL211AddWeightedERKS_f
ock:_InternalEnumerator_1_MoveNext_m725174512_gshared
xAd:__ZN5physx2Sc24ElementInteractionMarker12onDeactivateEj
ckg:_PointerInputModule_GetPointerData_m1695674453
Zqj:__Z14bankers_roundff
sKb:__Z19TransferField_ArrayI17RemapPPtrTransfer27Converter_SimpleNativeClassI8GUIStyleEEvRK23StaticTransferFieldInfoR31RuntimeSerializationCommandInfoRT0_
Gsa:__ZN19GfxThreadableDevice20SetShadersMainThreadERK11SubProgramsPK19ShaderPropertySheetS5_
i6f:_Convert_ToUInt64_m345450801
bZk:_npcTransport_Start_m3364436233
iXl:__ZN6il2cpp2vm3RCW7CleanupEP15Il2CppComObject
gwc:__ZN9JSONWrite8TransferI10ColorRGBAfEEvRT_PKc17TransferMetaFlags
Okj:__Z52RuntimeInvoker_Void_t1841601450_Keyframe_t1449471340PK10MethodInfoPvPS2_
m9d:__ZN14PhysicsManager23VirtualRedirectTransferER19StreamedBinaryWriteILb0EE
Pjm:__ZNSt13runtime_errorC2EPKc
Wjc:__Z35Register_UnityEngine_Resources_Loadv
HHb:__Z19TransferField_ArrayI14SafeBinaryRead16Converter_StringEvRK23StaticTransferFieldInfoR31RuntimeSerializationCommandInfoRT0_
lZg:_IntPlugin_GetSpeedBasedDuration_m2752808202
tam:_rename
t1l:_GC_exit_check
$cl:_Transform_INTERNAL_CALL_TransformDirection_m2899991790
PRg:_NotSupportedException__ctor_m3232764727
euh:_TypeConverterAttribute_Equals_m2330345916
EMc:__ZNK5physx2Gu15OBBTriangleTest10obbTriTestERKNS_6PxVec3ES4_S4_
p1:__Z20UnlockObjectCreationv
$7f:_DateTime_ToString_m1117481977
g5i:__Z55RuntimeInvoker_Il2CppObject_RegexOptionsU26_t3063574985PK10MethodInfoPvPS2_
TIg:_MonoIO_CreateDirectory_m379525469
OGb:__Z34scripting_class_array_element_sizeP11Il2CppClass
wB:__ZN9BlobWrite8TransferI22OffsetPtrArrayTransferI9OffsetPtrIN7mecanim12statemachine18StateMachineMemoryEEEEEvRT_PKc17TransferMetaFlags
ble:_UNITY_ft_smooth_renderer_class_pic_free
Mrf:_List_1_System_Collections_IList_Remove_m3763718607_gshared
ewk:_Bounds_get_center_m129401026
Sg:_emscripten_glStencilOpSeparate
n6k:_U3CU3Ec__DisplayClass61_0_U3CDOPunchRotationU3Eb__1_m203030274
a9e:_String_Concat_m2000667605
_xl:__ZN6il2cpp2os19SocketHandleWrapperC2ERKS1_
WZl:__ZN6il2cpp2vm6String8NewUtf16EPKDsi
zSl:__ZN6il2cpp2vm12GenericClass8GetClassEP18Il2CppGenericClass
Fjm:__ZNSt3__211__call_onceERVmPvPFvS2_E
jG:__Z32TransferEnumWithNameForceIntSizeI14SafeBinaryReadN10SampleClip17CompressionFormatEEvRT_RT0_PKc17TransferMetaFlags
BDe:__ZN22BaseUnityConnectClient10QueueEventERN11UnityEngine15CloudWebService17CloudServiceEventEPKcjb
DXc:__ZN5physx12PxControllerD2Ev
ITg:_DOTweenComponent_WaitForStart_m3782525310
jZg:_IntPlugin_SetRelativeEndValue_m3715330301
mKe:_Tweener_DoChangeStartValue_TisQuaternion_t4030073918_TisVector3_t2243707580_TisQuaternionOptions_t466049668_m2001538833_gshared
xSc:__ZNK5physx2Gu15HeightFieldUtil12traceSegmentI25CapsuleTraceSegmentReportLb0ELb0ELb1EEEvRKNS_6PxVec3ES6_PT_PS5_
iVc:__ZN5physx3Cct17CapsuleController13setStepOffsetEf
Bue:_UNITY_FT_Hypot
$Sd:__ZN5physx10PxsContext23prepareCMDiscreteUpdateEPNS_10PxBaseTaskE
Ypb:__ZN15SerializeTraitsIN4math14float3_storageEE8TransferI14SafeBinaryReadEEvRS1_RT_
R$b:__ZN8RendererC2E12RendererType18MemLabelIdentifier18ObjectCreationMode
Nvi:_TweenerCore_3_Reset_m731417792_gshared
h4l:__ZN6il2cpp2vm13ComObjectBaseINS0_13ManagedObjectE18Il2CppIInspectableNS0_7details6ComNilES5_S5_S5_S5_S5_S5_E6AddRefEv
xRh:__ZL95ASCIIEncoding_t3022927988_CustomAttributesCacheGenerator_ASCIIEncoding_GetByteCount_m1396020051P21CustomAttributesCache
rWg:_DOTween_To_m3247828180
udd:__ZN5physx6shdfnd5ArrayIPvNS0_19ReflectionAllocatorINS_2Cm5BlockIhLj256EEEEEE4copyINS0_15InlineAllocatorILj256ES7_EEEEvRKNS1_IS2_T_EE
cem:__ZNSt3__28time_getIcNS_19istreambuf_iteratorIcNS_11char_traitsIcEEEEED2Ev
kh:_emscripten_glGetError
YJ:__Z14FMOD_FILE_SeekPvjS_
lNk:_MethodCall_get_Properties_m1893707917
MFh:__ZL72Enum_t2459695545_CustomAttributesCacheGenerator_Enum_ToObject_m604645223P21CustomAttributesCache
$gd:__ZN5physx6shdfnd8PoolBaseINS_11NpAggregateENS0_19ReflectionAllocatorIS2_EEE15disposeElementsEv
Jik:_ShimEnumerator_get_Entry_m2387156530_gshared
LRc:__ZThn4_N16RayRTreeCallbackILi1ELb1EE14processResultsEjPj
xKe:_Tweener_DoChangeValues_TisIl2CppObject_TisIl2CppObject_TisNoOptions_t2508431845_m3704168267_gshared
s$a:__ZNK13RenderTexture32CalculateNeedsInvertedProjectionEv
qWc:__ZN5physx2Gu17RadixSortBuffered4SortEPKfj
sh:emscriptenWebGLGet
sCe:__ZN14UnityAnalytics15SendCustomEventERK8UnityStr
o1b:__ZN12CubemapArray11InitTextureEiii13TextureFormatb
Zpf:_List_1_GrowIfNeeded_m2433342921_gshared
ybl:_Texture_INTERNAL_get_texelSize_m3180609662
k0h:__ZL93Physics_t634932869_CustomAttributesCacheGenerator_Physics_RaycastAll_m410413656____layerMask2P21CustomAttributesCache
_Qe:_Array_IndexOf_TisChar_t3454481338_m3448361909_gshared
lwh:__ZN16VirtFuncInvoker1IP8String_tiE6InvokeEjPvi
gIa:__ZNK15Lz4Decompressor20DecompressStreamInitEPPv
db:invoke_iiiffifii
vyf:_Collection_1_set_Item_m3803272710_gshared
dzj:_Mesh_SetUVs_m841280343
NLe:_Tweener_Setup_TisInt32_t2071877448_TisInt32_t2071877448_TisNoOptions_t2508431845_m1842324615_gshared
uRi:_MonoMethodInfo_t3646562144_marshal_pinvoke_cleanup
jyh:_X509Certificate2_get_SignatureAlgorithm_m3069898012
Guh:_HttpRequestCreator__ctor_m2513916021
d0c:__ZN27ConvexVsMeshOverlapCallbackC2ERKN5physx2Gu10ConvexMeshERKNS0_11PxMeshScaleERKNS0_2Cm23FastVertex2ShapeScalingERKNS0_11PxTransformESE_bRKNS1_3BoxE
g0i:__Z54RuntimeInvoker_Il2CppObject_IntPtr_t_Int32_t2071877448PK10MethodInfoPvPS2_
Buj:_GUIStyle_INTERNAL_CALL_Internal_CalcSizeWithConstraints_m1203344891
gC:__ZN7mecanim5human13HumanFixTwistEPKNS0_5HumanEPNS_8skeleton13SkeletonPoseTIN4math4trsXEEES9_iiRKf
cWa:__ZL24AssignProjectorQueuesJobP30AssignProjectorQueuesJobHeader
r1j:_TimeSpan_get_Hours_m3804628138
Vrg:_FontData_set_alignByGeometry_m2819509290
nol:__ZL25UnresolvedVirtualCall_180P12Il2CppObject23RaycastResult_t21186376PK10MethodInfo
wnk:_Regex__ctor_m3250610064
RXb:__ZN9ShaderLab20SerializedSubProgram14SetConstBufferEPKci
Deh:_ArgumentNullException__ctor_m911049464
LPi:_TargetParameterCountException__ctor_m2760108938
Efe:__ZN13PhysicsModule17SetRigidBodyStateER9RigidbodyRKN8IPhysics14RigidBodyStateE
I2k:_InvokableCall_4_Find_m1467690987_gshared
JOf:_Comparison_1_Invoke_m345024424_gshared
are:_cf2_getStdVW
GLf:_ReadOnlyCollection_1_System_Collections_IList_Insert_m3936197025_gshared
Xdg:_EventHandler_BeginInvoke_m3027583606
QV:__Z40DebugStringToFilePostprocessedStacktraceRK21DebugStringToFileData
bKd:__ZN5physx2Sq12BucketPruner11shiftOriginERKNS_6PxVec3E
VFf:_ReadOnlyCollection_1_System_Collections_Generic_IListU3CTU3E_get_Item_m2333958184_gshared
ouc:__Z29Transfer_Blittable_ArrayFieldI8JSONReadjEvRT_R9ArrayInfoRK23StaticTransferFieldInfo
Wck:_InternalEnumerator_1__ctor_m3220229132_AdjustorThunk
t3c:__ZN5physx6shdfnd5ArrayIPNS_2Sc16ArticulationCoreENS0_19ReflectionAllocatorIS4_EEE15growAndPushBackERKS4_
lal:_StateMachineBehaviour_OnStateEnter_m1095276890
_zj:_Object_GetInstanceID_m1920497914
RLk:_ContextAttribute__ctor_m4006843177
W9j:_InternalEnumerator_1_get_Current_m314017974_AdjustorThunk
Dxi:_TweenerCore_3_ChangeEndValue_m1802430330_gshared
_h:__setLetterbox
Cha:__ZNSt3__26__treeINS_12__value_typeIN9ShaderLab16FastPropertyNameEfEENS_19__map_value_compareIS3_S4_NS_4lessIS3_EELb1EEENS_9allocatorIS4_EEE12__find_equalIS3_EERPNS_16__tree_node_baseIPvEENS_21__tree_const_iteratorIS4_PNS_11__tree_nodeIS4_SE_EEiEESH_RKT_
xZd:__ZN5physx19normalizePartitionsERNS_6shdfnd5ArrayIjNS0_19ReflectionAllocatorIjEEEEPNS_23PxcSolverConstraintDescEPKNS_13PxcSolverBodyEjjS5_
hbl:_TextGenerator_Populate_Internal_m1817393161
KIh:__ZL57CollectionBase_t1101587467_CustomAttributesCacheGeneratorP21CustomAttributesCache
PUg:_U3CU3Ec_U3CToEaseFunctionU3Eb__4_7_m2244213093
zNc:__ZN18ContactCapsuleMesh20processTriangleCacheILj16EEEbRN5physx2Gu13TriangleCacheIXT_EEE
bvb:__ZNSt3__26vectorI17BlendShapeChannelNS_9allocatorIS1_EEE6assignINS_11__wrap_iterIPS1_EEEENS_9enable_ifIXaasr21__is_forward_iteratorIT_EE5valuesr16is_constructibleIS1_NS_15iterator_traitsISA_E9referenceEEE5valueEvE4typeESA_SA_
_yg:_LayoutElement_set_preferredWidth_m3072758716
E3k:_UnityEvent_1_AddListener_m1708363187_gshared
eWg:_PureQuaternionPlugin_EvaluateAndApply_m1454595347
Uwh:_AsnEncodedData_ToString_m724151831
U_a:__ZN11TimeManager11GetRealtimeEv
pxf:_Collection_1_System_Collections_IList_get_IsFixedSize_m2408637569_gshared
ISf:__ZN21InterfaceFuncInvoker1IdP12Il2CppObjectE6InvokeEjP11Il2CppClassPvS1_
fTe:__ZN16VirtFuncInvoker3If21NoOptions_t2508431845fiE6InvokeEjPvS0_fi
a$c:__ZN5physx2Sc16InteractionScene25removeFromActiveActorListERNS0_5ActorE
i9b:__Z15WeldVertexArrayR13dynamic_arrayI8Vector3fLj4EERS_I13BoneInfluenceLj16EERS_ItLj2EES7_
VPi:_MonoMethodInfo_GetDeclaringType_m4186531677
wki:_SoapTypeAttribute_SetReflectionObject_m1566293812
ayi:_TweenerCore_3_ChangeEndValue_m2618008744_gshared
FD:__ZN4PPtrI6AvatarE8TransferI18StreamedBinaryReadILb0EEEEvRT_
zXc:__ZN5physx3Ext21InertiaTensorComputer6rotateERKNS_7PxMat33E
SOk:_Array_swap_TisVector4_t2243707581_TisVector4_t2243707581_m2300819430_gshared
PPj:_Enumerator_System_Collections_IEnumerator_Reset_m2573763156_AdjustorThunk
mmi:_RemotingServices_CreateClientProxy_m1631035355
K6j:_UInt64_ToString_m2892887310
A2b:__ZN12LineRenderer15InitializeClassEv
CYd:__ZN5physx22PxcDiscreteNarrowPhaseERNS_18PxcNpThreadContextERNS_13PxcNpWorkUnitE
$na:_stbir_resize
Pgj:__Z104RuntimeInvoker_Il2CppObject_Il2CppObject_Il2CppObject_Single_t2076509932_Single_t2076509932_Il2CppObjectPK10MethodInfoPvPS2_
RCc:__ZN24b2ChainAndCapsuleContact6CreateEP9b2FixtureiS1_iP16b2BlockAllocator
JIa:__Z37ReadDirectoryInfo_UnityWebAndUnityRawR12FileAccessorRKN20ArchiveStorageHeader6HeaderERNS1_13DirectoryInfoE
hPe:_Array_InternalArray__IEnumerable_GetEnumerator_TisInt64_t909078037_m1219751804_gshared
w$:__ZNSt3__26__treeINS_12__value_typeIPKciEENS_19__map_value_compareIS3_S4_15compare_tstringIS3_ELb1EEENS_9allocatorIS4_EEE7destroyEPNS_11__tree_nodeIS4_PvEE
EHh:__ZL96RuntimeTypeHandle_t2330101084_CustomAttributesCacheGenerator_RuntimeTypeHandle_Equals_m452760426P21CustomAttributesCache
kJj:_Dictionary_2_ToTValue_m1381983709_gshared
GRg:_MulticastDelegate_KPM_m1592985119
Mim:__ZNSt3__26locale5__imp7installINS_5ctypeIcEEEEvPT_
vCj:_RaycastHit2D_get_collider_m2568504212_AdjustorThunk
LFf:_Collection_1_ConvertItem_m3941916604_gshared
Oxe:__ZN2UI6Canvas26MarkAllNestedCanvasesDirtyEv
Hpf:_List_1__ctor_m2766376432_gshared
c4a:__ZN25PathNamePersistentManagerD2Ev
i1:__ZN17PersistentManager48IntegrateObjectAndUnlockIntegrationMutexInternalEi
oMf:_ReadOnlyCollection_1_System_Collections_IList_get_IsReadOnly_m3872065502_gshared
YKh:__ZL112TypeBuilder_t3308873219_CustomAttributesCacheGenerator_TypeBuilder_MakeGenericType_m4282022646____typeArguments0P21CustomAttributesCache
rpj:__Z89RuntimeInvoker_Il2CppObject_Scene_t1684909666_Scene_t1684909666_Il2CppObject_Il2CppObjectPK10MethodInfoPvPS2_
w7l:_cleanup_382
TGc:__ZN9b2Fixture11SynchronizeEP12b2BroadPhaseRK11b2TransformS4_
gae:__ZN9Rigidbody23VirtualRedirectTransferER14SafeBinaryRead
wtm:_emscripten_glGetFramebufferAttachmentParameteriv__wrapper
UOa:__ZN13RendererScene15InitializeUmbraEv
Fuk:_AnimatorTransitionInfo_IsName_m2561957738_AdjustorThunk
ana:__Z28CalculateGlobalMatrixInverse23TransformAccessReadOnly
qwc:__ZN4PPtrI6ObjectE8TransferI9JSONWriteEEvRT_
Ngm:__ZNSt3__29money_putIwNS_19ostreambuf_iteratorIwNS_11char_traitsIwEEEEED0Ev
Zjg:_PointerEventData_ToString_m1218584363
k8l:___ctype_toupper_loc
hVf:_Char_System_IConvertible_ToChar_m1489061093_AdjustorThunk
g_j:_UTF7Encoding_GetCharCount_m2589913583
trd:__ZNK5physx15PxsParticleData15getWorldBoundsVEv
rOa:_UNITY_png_write_sCAL_s
yji:__ZN21InterfaceFuncInvoker0IP8String_tE6InvokeEjP11Il2CppClassPv
vLg:_MemoryStream_CalculateNewCapacity_m3533542025
S3h:__ZL66ExcludeFromDocsAttribute_t665825653_CustomAttributesCacheGeneratorP21CustomAttributesCache
vTc:__ZN12_GLOBAL__N_124HfTrianglesEntityReport27onEventEjPj
$Vf:_Char_IsUpper_m4083577610
Ttd:__ZN5physx22NpParticleBaseTemplateINS_16PxParticleSystemENS_16NpParticleSystemEE17setStaticFrictionEf
vDi:_InternalEnumerator_1_Dispose_m318835130_AdjustorThunk
Ark:_Uri_Reduce_m2577728307
S1j:_TimeSpan_Equals_m4102942751_AdjustorThunk
Jkj:__Z59RuntimeInvoker_Void_t1841601450_X509ChainStatus_t4278378721PK10MethodInfoPvPS2_
Vkk:_ValueCollection_System_Collections_Generic_ICollectionU3CTValueU3E_Add_m1903672223_gshared
aim:__ZNSt3__25ctypeIcE13classic_tableEv
wG:__ZN4FMOD6SoundI7releaseEv
qwd:__ZN5physx20NpRigidActorTemplateINS_14PxRigidDynamicEE15setActorSimFlagEb
Uwb:__ZN14SpriteRenderer13AwakeFromLoadE17AwakeFromLoadMode
Bkg:_MouseButtonEventData__ctor_m618518000
qNj:_EqualityComparer_1_get_Default_m3222318365_gshared
dhm:__ZNKSt3__27codecvtIDic11__mbstate_tE5do_inERS1_PKcS5_RS5_PDiS7_RS7_
yJa:__ZN10MemoryFile9SetLengthEy
W4j:_UInt16_ToString_m2038947049_AdjustorThunk
vBc:__ZNK15b2RevoluteJoint10GetAnchorBEv
VVc:__ZNK5physx3Cct26CharacterControllerManager16getNbControllersEv
zT:__ZN11UnityEngine15CloudWebService19SessionEventManager20ProcessEventQueueJobEPNS0_14CloudEventInfoE
pj:_glTexStorage2D
EXb:__ZNK9ShaderLab10SubProgram14EnsureCompiledEv
i6h:__ZL108ShortcutExtensions_t3524050470_CustomAttributesCacheGenerator_ShortcutExtensions_DOShakePosition_m2336714075P21CustomAttributesCache
Ddj:__Z93RuntimeInvoker_Single_t2076509932_RectOptions_t3393635162_Single_t2076509932_Rect_t3681755626PK10MethodInfoPvPS2_
api:_ObjectManager_RecordFixup_m3572285566
mOe:_ExecuteEvents_CanHandleEvent_TisIl2CppObject_m1201779629_gshared
BJh:__ZL55DaylightTime_t3800227331_CustomAttributesCacheGeneratorP21CustomAttributesCache
yce:__ZN5physx7profile10DataBufferINS_6shdfnd6MutexTINS0_26WrapperReflectionAllocatorIhEEEENS0_14ScopedLockImplIS6_EEE17handleBufferFlushEPKhj
e0f:_SortedList_InitTable_m460350503
e8k:_TweenExtensions_Complete_m274286092
EEi:_InternalEnumerator_1_get_Current_m4279678504_AdjustorThunk
Ot:__ZNK16LevelGameManager7GetNameEv
rxf:_Collection_1_System_Collections_IList_get_Item_m2415649949_gshared
FMi:_ILTokenInfo_t149559338_marshal_pinvoke_cleanup
gEf:_Collection_1_Remove_m2358120395_gshared
fi:_JS_SystemInfo_HasWebGL
iFe:__ZN18UnityConnectClient15GetCloudServiceEv
UKb:__Z18Transfer_BlittableI24GenerateTypeTreeTransferLb0EiEvRK29SerializationCommandArgumentsR31RuntimeSerializationCommandInfo
i0d:__ZN5physx20PxsConstraintProjectEPKNS_13PxsConstraintEbf
$jd:__ZN5physx7NpShape7setFlagENS_11PxShapeFlag4EnumEb
Xxl:__ZN6il2cpp2os19SocketHandleWrapperD2Ev
vCc:__ZN15b2CircleContact6CreateEP9b2FixtureiS1_iP16b2BlockAllocator
jtm:_emscripten_glBufferData__wrapper
_db:__ZN10TagManager32RegisterDefaultTagsAndLayerMasksEv
jhl:_TweenRunner_1_StopTween_m2135918118_gshared
zCf:__ZN21InterfaceFuncInvoker1I22UILineInfo_t3621277874iE6InvokeEjP11Il2CppClassPvi
Hlk:_ValueCollection_get_Count_m4142113966_gshared
cvf:_Collection_1_System_Collections_ICollection_get_SyncRoot_m727155606_gshared
fYd:__ZN5physx2Sc35ParticleElementRbElementInteraction12onDeactivateEj
QDk:_Playable_CheckInputBounds_m1095657528
mem:__ZNKSt3__220__time_get_c_storageIcE8__monthsEv
O$j:_SynchronizationLockException__ctor_m549086841
dDe:__Z56Register_UnityEngine_Analytics_CustomEventData_AddUInt32v
ZWf:_ArrayList_InsertRange_m1478230997
Swa:__ZN4gles8InitCapsEP7ApiGLESP12GraphicsCapsR16GfxDeviceLevelGL
LSf:__ZN21InterfaceFuncInvoker1IP8String_tP12Il2CppObjectE6InvokeEjP11Il2CppClassPvS3_
Zha:__ZN6prcore14BlitImageFloatERK14ImageReferenceRS0_NS0_8BlitModeE
LRf:_Swapper_EndInvoke_m677693941
Gib:__Z24CalculateVertexLightDataRK15SharedLightDataR14GfxVertexLight
ryj:_Matrix4x4_Equals_m1321236479_AdjustorThunk
Yj:_glEnable
lcb:__ZNK13Lz4Compressor29CalculateCompressedBufferSizeEj
Pyl:__ZN6il2cpp2vm19SocketPollingThreadC2Ev
wKd:__ZN5physx2Sq10AABBPrunerC2Eb
dqi:_RuntimeMethodHandle__ctor_m2437574937_AdjustorThunk
NFd:__ZN5physx2Sq8AABBTreeC2Ev
v4j:_UInt16_System_IConvertible_ToInt64_m2835280558_AdjustorThunk
uah:__ZN18VirtActionInvoker2IP22ByteU5BU5D_t3397334013S1_E6InvokeEjPvS1_S1_
OYh:__ZL53g_UnityEngine_Assembly_CustomAttributesCacheGeneratorP21CustomAttributesCache
o1k:_Predicate_1_BeginInvoke_m3926587117_gshared
hic:__ZN13MonoBehaviour22StartCoroutineManaged2EP12Il2CppObject
eHi:_AssemblyName_get_Name_m1815759940
Wpg:_DefaultControls_CreateToggle_m1568873127
Atf:_List_1__cctor_m1022807427_gshared
mJe:_Tweener_DoChangeEndValue_TisInt32_t2071877448_TisInt32_t2071877448_TisNoOptions_t2508431845_m1398603738_gshared
fBj:_Physics2D_INTERNAL_CALL_CircleCastAll_m2629952778
WIj:_Dictionary_2_InitArrays_m2270022740_gshared
J1f:_Convert_ToBoolean_m2188088811
XDe:__ZN11UnityEngine7Connect15DeviceInfoEvent16CollectExtraInfoEv
l2i:__Z115RuntimeInvoker_Boolean_t3825574718_Il2CppObject_Int32_t2071877448_Il2CppObject_SByte_t454417549_Int32U26_t455636984PK10MethodInfoPvPS2_
D_l:__ZN6il2cpp2os11Environment22SetEnvironmentVariableERKNSt3__212basic_stringIcNS2_11char_traitsIcEENS2_9allocatorIcEEEESA_
GEk:_CustomAnimationPlayable__ctor_m2580931540
k3d:__ZN5physx2Gu10ConvexMeshD2Ev
bef:_UnicodeEncoding_GetChars_m3765282346
lHg:_IntPtr__ctor_m4104029105
bPh:__ZL114BinaryFormatter_t1866979105_CustomAttributesCacheGenerator_BinaryFormatter_get_DefaultSurrogateSelector_m219714691P21CustomAttributesCache
cBf:_Collection_1_Clear_m4150923953_gshared
xam:_atol
c3l:__ZN6il2cpp6icalls8mscorlib6System10Reflection9FieldInfo25internal_from_handle_typeE12Il2CppIntPtrS5_
f4f:_Convert_ToDouble_m4236754739
vqh:_SslClientStream_get_PrivateKeyCertSelectionDelegate_m3715949545
krg:_Dropdown_CreateItem_m2702141380
caa:__ZNK6Sprite24GetRenderDataForPlayModeEv
fJh:__ZL48Stack_t1043988394_CustomAttributesCacheGeneratorP21CustomAttributesCache
Hr:FUNCTION_TABLE_viifi
Kr:FUNCTION_TABLE_viiff
B2b:__ZN12LineRenderer12CleanupClassEv
lZc:__ZNK5physx2Sc8ShapeSim10getBodySimEv
eQi:_MonoEvent_GetAddMethod_m4289563120
dVg:_U3CU3Ec_U3CToEaseFunctionU3Eb__4_23_m785608975
nHh:__ZL37Type_t_CustomAttributesCacheGeneratorP21CustomAttributesCache
Que:_UNITY_tt_face_free_hdmx
hKl:__ZN6il2cpp2vm14TypeNameParser5ParseEb
NSj:_ReflectionMethodsCache__ctor_m1835220
z1l:_GC_check_finalizer_nested
SDk:_Playable_INTERNAL_CALL_IsValidInternal_m3509544226
n1i:__Z51RuntimeInvoker_Int16_t4041245914_Single_t2076509932PK10MethodInfoPvPS2_
FIh:__ZL71SynchronizedArrayListWrapper_t3317806524_CustomAttributesCacheGeneratorP21CustomAttributesCache
ydd:__ZN5physx6shdfnd5ArrayIPvNS0_19ReflectionAllocatorINS_2Cm5BlockIhLj128EEEEEE15growAndPushBackERKS2_
tHe:__ZN23UnityPurchasingSettingsC2Ev
Ccg:_Double_ToString_m1864290157
S2a:__ZNK9Transform13GetWorldScaleEv
C9j:_InternalEnumerator_1_get_Current_m4154059426_AdjustorThunk
A2c:__ZN5physx2Sc11Interaction10onActivateEj
eSc:__ZNK5physx2Gu29EPASupportMapPairRelativeImplINS0_4BoxVENS0_11ConvexHullVEE6getDirEv
Hkd:__ZN5physx14NpShapeManager15setupSceneQueryERNS_2Sq17SceneQueryManagerERKNS_12PxRigidActorERKNS_7NpShapeE
D6:__ZNSt3__26__treeINS_12__value_typeI18VertexChannelsInfo16MeshVertexFormatEENS_19__map_value_compareIS2_S4_NS_4lessIS2_EELb1EEE13stl_allocatorIS4_L18MemLabelIdentifier16ELi16EEE12__find_equalIS2_EERPNS_16__tree_node_baseIPvEENS_21__tree_const_iteratorIS4_PNS_11__tree_nodeIS4_SF_EEiEESI_RKT_
VDf:_Collection_1_System_Collections_IList_get_Item_m1122792492_gshared
foa:__ZL37stbir__resample_horizontal_downsampleP11stbir__infoiPf
n_i:__Z78RuntimeInvoker_IntPtr_t_Il2CppObject_Int32U26_t455636984_ModuleU26_t4102634234PK10MethodInfoPvPS2_
Ela:__ZNK5Unity9Component38MarkGameObjectAndComponentDependenciesER27GarbageCollectorThreadState
d0d:__ZN22ScAfterIntegrationTask11runInternalEv
j5c:__ZNK5physx2Sc9ClothCore23getExternalAccelerationEv
BNa:_UNITY_png_write_data
LN:__ZNK7Texture21GetShadowSamplingModeEv
iRc:__ZN5physx2Gu13coarseCullingERKNS_6PxVec3ES3_ffRKNS_10PxTriangleE
P6h:__ZL108ShortcutExtensions_t3524050470_CustomAttributesCacheGenerator_ShortcutExtensions_DOPlayBackwards_m3986309180P21CustomAttributesCache
FW:__ZN13ScreenManager21OnWindowRegainedFocusEv
ePb:__Z18Transfer_BlittableI18StreamedBinaryReadILb0EELb1EdEvRK29SerializationCommandArgumentsR31RuntimeSerializationCommandInfo
ndc:__Z56Register_UnityEngine_Camera_INTERNAL_get_backgroundColorv
WLe:_Tweener_Setup_TisQuaternion_t4030073918_TisVector3_t2243707580_TisQuaternionOptions_t466049668_m2422094866_gshared
w6k:_U3CU3Ec__DisplayClass64_0_U3CDOShakeRotationU3Eb__1_m4179202185
TJg:_FileStream_get_CanRead_m4148920720
oGl:__ZN6il2cpp2gc19AppendOnlyGCHashMapINSt3__24pairIPK12PropertyInfoP11Il2CppClassEEP24Il2CppReflectionProperty17ReflectionMapHashIS9_E19ReflectionMapEqualsIS9_EE11TryGetValueERKS9_PSB_
HYd:__ZN5physx2Sc5Scene29processNarrowPhaseTouchEventsEv
iza:__ZN4crnd12symbol_codec32decode_receive_static_data_modelERNS_25static_huffman_data_modelE
Iof:_List_1__ctor_m3670250508_gshared
lCg:_GregorianCalendar_set_CalendarType_m2438362222
npg:_FloatTween_get_targetValue_m2120061648_AdjustorThunk
AEk:_AnimatorControllerPlayable_get_node_m127621219_AdjustorThunk
slj:__Z71RuntimeInvoker_Void_t1841601450_Int32_t2071877448_UriScheme_t1876590943PK10MethodInfoPvPS2_
fNe:_Array_InternalArray__ICollection_Contains_TisVector2_t2243707579_m3625698589_gshared
m7c:__ZN5physx6shdfnd5ArrayIPvNS0_15InlineAllocatorILj256ENS0_19ReflectionAllocatorINS_18NpArticulationLinkEEEEEE15growAndPushBackERKS2_
NVg:_TweenManager_TogglePause_m3731650299
Kyf:_Collection_1_System_Collections_IList_IndexOf_m3628746604_gshared
Dvc:__Z18Transfer_BlittableI9JSONWriteLb0EaEvRK29SerializationCommandArgumentsR31RuntimeSerializationCommandInfo
LQ:__ZN11UnityEngine15CloudWebService14DataDispatcher34OnSessionContainerArchivedAndReadyERNS0_16SessionContainerE
IDc:__ZN7b2World11CreateJointEPK10b2JointDef
MCb:__ZN13EmscriptenWWW10OnResponseEPviS0_jPc
olm:__ZNSt13runtime_errorD0Ev
IWc:__ZNK5physx3Cct15ObstacleContext11getObstacleEj
jkh:_CipherSuiteCollection__ctor_m2154226461
oMb:__Z18Transfer_BlittableI19StreamedBinaryWriteILb0EELb0E8Vector3fEvRK29SerializationCommandArgumentsR31RuntimeSerializationCommandInfo
zqj:_RectOffset__ctor_m2227510254
xme:_gray_move_to
gEl:__ZN15dense_hashtableINSt3__24pairIK10KeyWrapperINS1_IPK9FieldInfoP11Il2CppClassEEEjEES9_17ReflectionMapHashIS8_EN14dense_hash_mapIS9_jSD_19ReflectionMapEqualsIS8_ENS0_9allocatorISB_EEE9SelectKeyESG_SI_ED2Ev
HXa:__Z34GetNonInterpolatedLightAttenuationRK17LightProbeContextjPK15SharedLightData
pDk:_UnityAction_BeginInvoke_m407736228
hFf:_Collection_1_System_Collections_IEnumerable_GetEnumerator_m4174600764_gshared
_Mk:_ConstructionCall_InitDictionary_m4046452035
Rcj:__Z32RuntimeInvoker_Color2_t232726623PK10MethodInfoPvPS2_
VGl:__ZN6il2cpp2vm10Reflection14GetEventObjectEP11Il2CppClassPK9EventInfo
Jej:__Z43RuntimeInvoker_VerticalWrapMode_t3668245347PK10MethodInfoPvPS2_
Dlh:_TlsStream_Write_m2271546135
CY:__ZN20LocalFileSystemPosixD0Ev
ubc:__Z23GetGlobalBoolPreferencePKcb
Cfg:_CultureInfo_ConstructInternalLocaleFromCurrentLocale_m1342751405
J1g:_ShortcutExtensions_DOPunchRotation_m1103244634
H1i:__Z50RuntimeInvoker_UInt16_t986882611_Int16_t4041245914PK10MethodInfoPvPS2_
V_g:_StringPlugin_SetFrom_m1109720958
lbb:__ZN21AssetBundleFileSystem5WriteER13FileEntryDatayPvPy
wdf:_Latin1Encoding_GetString_m3553289597
lJd:__ZN5physx13IslandManager6resizeEj
Vne:_tt_cmap_init
Dzk:_Color_get_grayscale_m2989668074_AdjustorThunk
jc:invoke_viidi
Chk:_Enumerator_get_Current_m1020413567_AdjustorThunk
gjf:_List_1_System_Collections_IList_get_IsFixedSize_m1122077912_gshared
gmj:__Z48RuntimeInvoker_Link_t865133271_Int32_t2071877448PK10MethodInfoPvPS2_
y_b:__ZN9TextAssetC2E18MemLabelIdentifier18ObjectCreationMode
e2c:__ZN5physx6shdfnd8PoolBaseINS_2Cm5BlockIPvLj16EEENS0_19ReflectionAllocatorIS5_EEE17releaseEmptySlabsEv
$hf:_List_1_System_Collections_ICollection_CopyTo_m2020941110_gshared
OBk:_Display_RecreateDisplayList_m3412638488
TUh:__ZL79Convert_t2607082565_CustomAttributesCacheGenerator_Convert_ToUInt64_m2215781574P21CustomAttributesCache
Xnj:__Z52RuntimeInvoker_KeyValuePair_2_t38854645_Il2CppObjectPK10MethodInfoPvPS2_
HNb:__ZN19StreamedBinaryWriteILb0EE21TransferSTLStyleArrayINSt3__26vectorINS2_12basic_stringIcNS2_11char_traitsIcEE13stl_allocatorIcL18MemLabelIdentifier1ELi16EEEES7_ISA_LS8_1ELi16EEEEEEvRT_17TransferMetaFlags
Mzm:_emscripten_glCheckFramebufferStatus__wrapper
sXc:__ZL20updateMassAndInertiabRN5physx11PxRigidBodyEPKfjPKNS_6PxVec3Eb
Ssc:__Z18Transfer_BlittableI8JSONReadLb0EdEvRK29SerializationCommandArgumentsR31RuntimeSerializationCommandInfo
Ice:__ZN5physx24NpPtrTableStorageManagerC2Ev
tzm:_glCreateShader__wrapper
avf:_Collection_1_System_Collections_IList_Remove_m1956280255_gshared
A6b:__Z26IntersectAABBAABBInclusiveRK4AABBS1_
g0j:_Thread_ClrState_m822263449
G4g:_SimpleCollator_LastIndexOfOrdinalIgnoreCase_m550798345
rDl:__ZN15dense_hashtableINSt3__24pairIK10KeyWrapperINS1_IPK14Il2CppAssemblyP11Il2CppClassEEEjEES9_17ReflectionMapHashIS8_EN14dense_hash_mapIS9_jSD_19ReflectionMapEqualsIS8_ENS0_9allocatorISB_EEE9SelectKeyESG_SI_E13clear_deletedER30dense_hashtable_const_iteratorISB_S9_SD_SK_SG_SI_E
myl:__ZN6il2cpp2vm21ThreadPoolCompartment13QueueWorkItemEP17Il2CppAsyncResult
To:FUNCTION_TABLE_viiiiiifiii
qsa:__ZNK9GfxDevice13GetViewMatrixEv
bCd:__ZN5physx7NpScene15flushSimulationEb
Vid:__ZN5physx6shdfnd8PoolBaseINS_10NpMaterialENS0_19ReflectionAllocatorIS2_EEE12allocateSlabEv
f4:__ZN8TypeTree8BlobReadERPKhS1_ib
Qnm:dynCall_iiiiiiifii
Rbc:__Z36CreateScriptingArrayFromUnityObjectsI13dynamic_arrayIP6ObjectLj4EEEP11Il2CppArrayRKT_i
Q6d:__ZN5physx18ReducedVertexCloudC2EPKNS_6PxVec3Ej
$la:__ZN18LoadSceneOperation23GetAllowSceneActivationEv
jda:__ZN15SerializeTraitsI14ConstantStringE8TransferI19StreamedBinaryWriteILb0EEEEvRS0_RT_
_ja:__ZN11prophecysdk4half7convertEi
dfb:__ZN6CameraD0Ev
$8h:__ZL119TweenSettingsExtensions_t2285462830_CustomAttributesCacheGenerator_TweenSettingsExtensions_OnWaypointChange_m1014445076P21CustomAttributesCache
f6g:_ModulusRing_Multiply_m386339435
U7:__ZN31CanvasBatchIntermediateRenderer16StaticInitializeEPv
Ktg:_GraphicRaycaster_U3CRaycastU3Em__0_m3971200721
wJf:_ReadOnlyCollection_1_System_Collections_IList_RemoveAt_m3004588099_gshared
N3f:_Decimal_op_Implicit_m4246329390
Feh:_ArgumentNullException__ctor_m2252076819
a1a:__ZN10GameObjectC2E18MemLabelIdentifier18ObjectCreationMode
Ale:_raccess_guess_apple_double
Ncl:_Transform_INTERNAL_set_localScale_m3680777866
dth:_ListDictionary_GetEnumerator_m1511032609
pKi:_TypeBuilder_get_FullName_m1626507516
xoi:_SerializationInfo__ctor_m4016423422
pAa:__ZL18ProgramUniform1uivPK7ApiGLESjiihPKv
z1b:__ZN14Texture2DArray13RebuildMipMapEv
Xsl:__ZN13Il2CppHashSetIPK17Il2CppGenericInstN6il2cpp8metadata21Il2CppGenericInstHashENS4_24Il2CppGenericInstCompareENSt3__29allocatorI10KeyWrapperIS2_EEEEC2EjRKS5_RKS6_
iHb:__Z18Transfer_BlittableI14SafeBinaryReadLb1EaEvRK29SerializationCommandArgumentsR31RuntimeSerializationCommandInfo
HXl:__ZN6il2cpp2gc16GarbageCollector14RemoveWeakLinkEPPv
SXb:__ZN9ShaderLab20SerializedSubProgram14AddVectorParamEPKcii15ShaderParamTypei
y$k:_Nullable_1_GetHashCode_m572762171_AdjustorThunk
wze:__ZN2UI14CanvasRenderer12CleanupClassEv
ibd:__ZNK5physx19NpRigidBodyTemplateINS_18PxArticulationLinkEE27getMinCCDAdvanceCoefficientEv
HMf:_ReadOnlyCollection_1_System_Collections_IEnumerable_GetEnumerator_m1734360860_gshared
GKj:_DefaultComparer__ctor_m1052417779_gshared
B6e:_SystemException__ctor_m2688248668
IHk:_ResourceSet_ReadResources_m1669023823
cch:_PKCS12_RemoveCertificate_m1590055870
eKl:__ZN6il2cpp2vm6Thread7SetNameEP12Il2CppThreadP12Il2CppString
nKi:_TypeBuilder_get_DeclaringType_m3236598700
I$h:__ZL107Collision_t2876846408_CustomAttributesCacheGenerator_Collision_t2876846408____frictionForceSum_PropertyInfoP21CustomAttributesCache
Ks:__ZN6Object23VirtualRedirectTransferER19StreamedBinaryWriteILb1EE
I9:__ZN13ScreenManager18SetAllowCursorLockEb
FBb:__ZN30RuntimeInitializeOnLoadManager15ClassMethodInfo8TransferI14SafeBinaryReadEEvRT_
eRl:__ZNK15dense_hashtableINSt3__24pairIK10KeyWrapperINS1_IPKcS4_EEEiEES6_24NamespaceAndNamePairHashN14dense_hash_mapIS6_iS9_26NamespaceAndNamePairEqualsNS0_9allocatorIS8_EEE9SelectKeyESB_SD_E13find_positionERS7_
D5c:__ZNK5physx2Sc10ClothShape8isActiveEv
oEb:__ZN9TextAsset8TransferI14SafeBinaryReadEEvRT_
hhi:__ZL73CanvasScaler_t2574720772_CustomAttributesCacheGenerator_m_ScreenMatchModeP21CustomAttributesCache
oP:__ZL22InitializeModule_Audiov
QJd:__ZN5physx2Sq11PruningPoolD0Ev
kFc:__ZN16Physics2DManager13DynamicUpdateEv
L6a:__ZN16MemoryFileSystem8IsLockedERK13FileEntryData
IRd:__ZN3MBP15removeBoxPrunerEj
zdl:_Vector2_get_Item_m2792130561_AdjustorThunk
TSg:_Color2__ctor_m2417174790_AdjustorThunk
PHk:_SatelliteContractVersionAttribute__ctor_m2605651717
Gm:_emscripten_glBindRenderbuffer
cLi:_EnumBuilder_HasElementTypeImpl_m1414733955
cqc:__Z32GUIStyle_Set_Custom_PropClippingP12Il2CppObjecti
Sbf:_DecoderExceptionFallbackBuffer_GetNextChar_m1727394816
o1l:_GC_dirty_init
XQf:_Array_Copy_m1969461849
Cni:_MessageFormatter_ReadMethodResponse_m4134629501
IUl:__ZN6il2cpp2vm5Field14GetValueObjectEP9FieldInfoP12Il2CppObject
jcf:_EncoderExceptionFallback_GetHashCode_m2071009120
Kdg:_Environment_get_OSVersion_m1247315981
UVa:__ZN23ForwardShaderRenderLoop23RenderForwardShadowMapsEPK11ActiveLightbN6Camera10RenderFlagER17ShaderPassContext
IOc:__ZL15SweepBoxCapsulePKN5physx3Cct9SweepTestEPKNS0_11SweptVolumeEPKNS0_11TouchedGeomERKNS_14PxExtendedVec3ERKNS_6PxVec3ERNS0_12SweptContactE
W6:__ZN6Object17FindObjectsOfTypeEPKN5Unity4TypeER13dynamic_arrayIPS_Lj4EEb
L5b:__ZNSt3__26vectorINS_4pairIiiEE13stl_allocatorIS2_L18MemLabelIdentifier1ELi16EEE21__push_back_slow_pathIKS2_EEvRT_
jBh:_Capture_get_Length_m1952322390
xwc:__ZN9JSONWrite8TransferI4PPtrI9Texture2DEEEvRT_PKc17TransferMetaFlags
Sem:__ZNKSt3__220__time_get_c_storageIwE7__weeksEv
$Kj:_DefaultComparer__ctor_m2967376735_gshared
PEb:__ZN13MonoBehaviour17RemoveFromManagerEv
W9:__ZN14GraphicsHelper5ClearEjRK10ColorRGBAffjR17ShaderPassContext
m1d:__ZN5physx2Sc19ParticlePacketShapeD2Ev
Fze:__ZL23RegisterModuleICalls_UIv
Wqb:__ZL11DecodeValuePPKcS0_
bjk:_ShimEnumerator_MoveNext_m2013866013_gshared
WU:__ZN13MemoryManagerC2Ev
Tcl:_Transform_SetParent_m1963830867
_Ka:__ZN20ArchiveStorageReader28AcquireAndPrefillUnusedBlockEjPNS_11CacheResultE
eyf:__ZN21InterfaceFuncInvoker1I40CustomAttributeTypedArgument_t1498197914iE6InvokeEjP11Il2CppClassPvi
K2i:__Z78RuntimeInvoker_Il2CppObject_SByte_t454417549_SByte_t454417549_SByte_t454417549PK10MethodInfoPvPS2_
s1b:__Z12NHxRoughnessIA4_tEvP9Texture2DPT_iiii
R7h:__ZL68U3CU3Ec__DisplayClass44_0_t3575628387_CustomAttributesCacheGeneratorP21CustomAttributesCache
Uml:__ZL25UnresolvedVirtualCall_105P12Il2CppObjecthPK10MethodInfo
jOk:_MethodDictionary_get_SyncRoot_m673971424
d3:__ZN16ScriptingManager27NativeTypeForScriptingClassEP11Il2CppClass
vtb:__ZN13TrailRenderer19UpdateTransformInfoEv
s7:__ZN18AsyncUploadManagerD2Ev
Qrb:__ZN9Transform5ResetEv
_Kb:__Z22TransferField_NonArrayI24GenerateTypeTreeTransfer16Converter_StringEvRK23StaticTransferFieldInfoR31RuntimeSerializationCommandInfoRT0_
VDb:__ZN9TextAsset9SetScriptERK8UnityStr
Nuh:_HttpWebRequest_System_Runtime_Serialization_ISerializable_GetObjectData_m3671622902
A9:__Z17MainLoopKeepalivePv
X4c:__ZN5physx7NpScene16addActorInternalERNS_7PxActorE
bmk:_MatchCollection__ctor_m1944681790
l_e:_HMACSHA512__ctor_m1667460019
cRa:__Z24ScheduleCullingAllGroupsR8JobFenceRK22SceneCullingParameters4PPtrI6CameraERK13CullingOutputRK13dynamic_arrayIP12CullingGroupLj4EERKS_
u3e:_ToBase64Transform_get_OutputBlockSize_m949275583
vRg:_MonoType_ToString_m473949831
iQa:__Z14CalcHullBoundsPK8Vector3fPKhhRK5PlaneRK10Matrix4x4fR10MinMaxAABB
rli:_RealProxy__ctor_m2147093603
pCj:_RaycastHit2D_get_point_m442317739_AdjustorThunk
YRb:__ZN11PreloadData39ShouldIgnoreInGarbageDependencyTrackingEv
Brf:_List_1__ctor_m3511181530_gshared
LUa:__Z19SetupLODFadeKeywordR17ShaderPassContexti
yne:_UNITY_FT_Stream_ReadFields
HJf:_ReadOnlyCollection_1_get_Count_m2180604490_gshared
aCg:_DateTimeFormatInfo_GetAllDateTimePatternsInternal_m1587126173
U$l:_GC_set_fl_marks
KCa:__ZL25CheckCopyTextureArgumentsRK7ApiGLESP11GLESTextureS3_
n7:__ZN13dynamic_arrayI26EnlightenSystemInformationLj8EE6insertEPS0_PKS0_S4_
qne:_tt_name_entry_ascii_from_utf16
IRg:_MulticastNotSupportedException__ctor_m2164514827
L6f:_DateTime_System_IConvertible_ToChar_m2489529194_AdjustorThunk
LLb:__Z29Transfer_Blittable_ArrayFieldI24GenerateTypeTreeTransferyEvRT_R9ArrayInfoRK23StaticTransferFieldInfo
q9d:__ZN14PhysicsManager23VirtualRedirectTransferER18StreamedBinaryReadILb1EE
BJ:__ZN4FMOD7SystemI9playSoundE17FMOD_CHANNELINDEXPNS_5SoundEbPPNS_7ChannelE
zP:__Z42Register_UnityEngine_AudioSource_set_pitchv
Dfe:__ZN13PhysicsModule31GetColliderComponentsInChildrenERK10GameObjectbbR13dynamic_arrayIPN5Unity9ComponentELj4EE
obi:__ZL78ExecuteEvents_t1693084770_CustomAttributesCacheGenerator_U3CU3Ef__mgU24cache10P21CustomAttributesCache
XY:__GLOBAL__sub_I_runtime_graphics_mesh2_lump_cpp
l3h:__ZL68PreferBinarySerialization_t2472773525_CustomAttributesCacheGeneratorP21CustomAttributesCache
tmd:__ZNK5physx7NpCloth16getStretchConfigENS_22PxClothFabricPhaseType4EnumE
wEk:_AnimationPlayableUtilities_SetInputValidated_m2748997465
XH:__ZN12AudioManager23VirtualRedirectTransferER18StreamedBinaryReadILb0EE
Jhf:_List_1_Remove_m2616693989_gshared
yUg:_Flash_Ease_m4276233543
Aub:__ZN10VertexData13SwapEndianessEv
Nam:_realloc
N7i:__Z70RuntimeInvoker_Void_t1841601450_Playable_t3667545548_Int32_t2071877448PK10MethodInfoPvPS2_
$lc:__Z57Register_UnityEngine_Transform_INTERNAL_get_localRotationv
rBb:__ZN30RuntimeInitializeOnLoadManager23VirtualRedirectTransferER17RemapPPtrTransfer
lpm:dynCall_viif
xQi:_MonoField_get_DeclaringType_m1591666235
aCi:_InternalEnumerator_1__ctor_m2111763266_AdjustorThunk
HDh:_Enumerator_MoveNext_m4234629003
cVa:__ZN29MotionVectorRenderLoopScratchD2Ev
Pmg:_ButtonClickedEvent__ctor_m938038541
f0d:__ZN5physx2Sc24ConstraintProjectionTree11projectPoseERNS0_19ConstraintGroupNodeE
qJb:__ZL26Transfer_SimpleNativeClassI17RemapPPtrTransfer8GradientLb0EEvRK29SerializationCommandArgumentsR31RuntimeSerializationCommandInfo
Oz:__ZN17AnimationPlayable26DisconnectNoTopologyChangeEPS_i
tzl:__ZN6il2cpp6icalls8mscorlib6System8MonoType14get_attributesEP20Il2CppReflectionType
Z9a:__Z43DestroyWithoutLoadingButDontDestroyFromFilei
Lfe:__ZN13PhysicsModule29GetColliderMaterialInstanceIDER8Collider
yQg:_MonoType_GetDefaultConstructor_m925465120
Mad:__ZNK5physx20NpRigidActorTemplateINS_18PxArticulationLinkEE14getConstraintsEPPNS_12PxConstraintEjj
uze:__ZZN2UI14CanvasRenderer15InitializeClassEvEN34FunctorImpl_802kCanvasGroupChanged4CallEPviR11MessageData
Bmm:dynCall_viiiiiffi
B0h:__ZL95Physics2D_t2540166467_CustomAttributesCacheGenerator_Physics2D_Raycast_m2303387255____distance2P21CustomAttributesCache
je:_emscripten_glBlendFuncSeparate
VLi:_GenericTypeParameterBuilder_IsPrimitiveImpl_m1198748291
w0:__Z20scripting_string_newPKc
gkc:__Z43Material_CUSTOM_Internal_CreateWithMaterialP12Il2CppObjectS0_
ejc:__Z86Register_UnityEngine_Experimental_Director_Playable_INTERNAL_CALL_SetPlayStateInternalv
MIg:_Directory_GetCurrentDirectory_m44486537
f_i:__Z45RuntimeInvoker_RuntimeFieldHandle_t2331729674PK10MethodInfoPvPS2_
fRl:__ZNK24NamespaceAndNamePairHashclERKNSt3__24pairIPKcS3_EE
lul:__ZNK15dense_hashtableINSt3__24pairIK10KeyWrapperINS0_12basic_stringIcNS0_11char_traitsIcEENS0_9allocatorIcEEEEEP11Il2CppClassEES9_N6il2cpp5utils11StringUtils12StringHasherIS8_EEN14dense_hash_mapIS9_SC_SI_NS0_8equal_toIS9_EENS6_ISD_EEE9SelectKeyESL_SM_E5beginEv
RZg:_RectOptions_t3393635162_marshal_pinvoke
w9a:__ZN29AssetBundleLoadAssetOperation34CollectFullPreloadDataDependenciesER13dynamic_arrayIiLj4EE
Hvf:_Collection_1_System_Collections_ICollection_CopyTo_m1047946700_gshared
toj:__Z36RuntimeInvoker_Enumerator_t975728254PK10MethodInfoPvPS2_
W4f:_Convert_ToInt64_m4057339019
kbd:__ZNK5physx19NpRigidBodyTemplateINS_18PxArticulationLinkEE27getMaxDepenetrationVelocityEv
$wh:_AsnEncodedData_Default_m4197142414
X3e:_X509Certificate_GetCertHashString_m419611192
g4d:__ZThn8_N5physx2Gu11HeightFieldD1Ev
sMl:__ZNSt3__218uninitialized_copyIPNS_4pairIK10KeyWrapperIP11Il2CppClassES4_EES8_EET0_T_SA_S9_
Ewd:__ZN5physx19NpRigidBodyTemplateINS_14PxRigidDynamicEED0Ev
a9c:__ZNK5physx19PxArticulationJoint19getConcreteTypeNameEv
lH:__ZN17AudioCustomFilterD2Ev
_oc:__ZN11IMGUIModule26SetDeveloperConsoleVisibleEb
rcg:_Double_System_IConvertible_ToUInt64_m1318285078_AdjustorThunk
Hoc:__ZNK8GUIStyle13GetLineHeightEv
NBa:__ZN18GfxFramebufferGLES18ReleaseFramebufferEP17RenderSurfaceBaseP14GfxContextGLES
eLk:_Context_GetDynamicPropertyCollection_m1987747444
myh:_X509Certificate2_get_Version_m1927399907
auc:__Z18Transfer_BlittableI8JSONReadLb1EiEvRK29SerializationCommandArgumentsR31RuntimeSerializationCommandInfo
qvg:_Image_RadialCut_m3229543088
PT:__ZN19CloudServiceHandler34HandleSaveFileWebRequestPlayerLoopEv
pA:__ZN7mecanim21ValueArrayReverseCopyEPKNS_18ValueArrayConstantEPKNS_10ValueArrayES2_PS3_PKi
bH:__Z31GetParentSampleClipFromInstancePN11SoundHandle8InstanceE
f$b:__ZNK28RectTransformPropertyBinding13GetFloatValueERKN11UnityEngine9Animation10BoundCurveE
hUc:__ZN5physx11PxHitBufferINS_12PxOverlapHitEE14processTouchesEPKS1_j
Kxd:__ZL22addOrRemoveRigidObjectILb0ELb0ELb0ELb1EN5physx3Scb11RigidStaticEEvRNS0_2Sc5SceneERT3_b
I6l:__ZN6il2cpp2os16ThreadLocalValue8GetValueEPPv
jck:_InternalEnumerator_1_System_Collections_IEnumerator_Reset_m196087328_AdjustorThunk
CBf:__ZN18VirtActionInvoker2Ii22UICharInfo_t3056636800E6InvokeEjPviS0_
Do:FUNCTION_TABLE_iiiiifiif
u2e:_SHA384Managed_Initialize_m712692291
XCi:_InternalEnumerator_1__ctor_m2688327768_gshared
jfg:_CompareInfo_get_LCID_m3346446356
bBf:_Collection_1_Add_m123318341_gshared
CMh:__ZL60CallingConvention_t3354538265_CustomAttributesCacheGeneratorP21CustomAttributesCache
r4e:__ZN21InterfaceFuncInvoker2IP8String_tS1_P12Il2CppObjectE6InvokeEjP11Il2CppClassPvS1_S3_
tmc:__Z52Object_CUSTOM_GetOffsetOfInstanceIDInCPlusPlusObjectv
q2c:__ZN5physx6shdfnd4sortIPvNS0_4LessIS2_EENS0_19ReflectionAllocatorINS_2Cm5BlockIS2_Lj8EEEEEEEvPT_jRKT0_RKT1_j
YN:__ZN9AudioClip15InitializeClassEv
Cid:__ZNK5physx9NpPhysics11getNbShapesEv
Cs:setThrew
CWi:__Z36RuntimeInvoker_IntPtr_t_Il2CppObjectPK10MethodInfoPvPS2_
k1b:__ZL21BuildEmptyCubeTexturePKci11ColorRGBA3217TextureColorSpace
glk:_ValueCollection__ctor_m1825701219_gshared
FTb:__ZN14SafeBinaryRead21TransferSTLStyleArrayINSt3__26vectorIN9ShaderLab20SerializedSubProgramENS1_9allocatorIS4_EEEEEEvRT_17TransferMetaFlags
SGe:__ZN13RuntimeStaticI20HardwareInfoReporterE10InitializeEv
flg:_StandaloneInputModule_set_cancelButton_m2642677329
Xtc:__Z15Transfer_StringI8JSONReadLb1EEvRK29SerializationCommandArgumentsR31RuntimeSerializationCommandInfo
Sgc:__Z35Light_Set_Custom_PropShadowStrengthP12Il2CppObjectf
_Ta:__Z25DoForwardShaderRenderLoopR17RenderLoopContextR13dynamic_arrayI16RenderObjectDataLj4EERK11CullResultsbbbN6Camera10RenderFlagE
Qme:_sfnt_load_face
jbh:_PKCS12_GetSymmetricAlgorithm_m1812022677
y_j:_UTF8Encoding_GetByteCount_m2372933408
bLk:_Context_get_NeedsContextSink_m1907794755
Hme:_UNITY_ft_service_list_lookup
Xgh:_ARC4Managed_GenerateKey_m716135508
ZJb:__Z18Transfer_BlittableI17RemapPPtrTransferLb1E11ColorRGBA32EvRK29SerializationCommandArgumentsR31RuntimeSerializationCommandInfo
Mfk:__ZN16VirtFuncInvoker2Ii40CustomAttributeTypedArgument_t1498197914S0_E6InvokeEjPvS0_S0_
ANc:__ZN5physx2Gu20intersectTriangleBoxERKNS_6PxVec3ES3_S3_S3_S3_
xhd:__ZN5physx10NpMaterial8setFlagsENS_7PxFlagsINS_14PxMaterialFlag4EnumEtEE
I7a:__ZN13BaseAllocator13TryDeallocateEPv
xNb:__Z29Transfer_Blittable_ArrayFieldI19StreamedBinaryWriteILb0EEfEvRT_R9ArrayInfoRK23StaticTransferFieldInfo
IQf:_Array_CreateInstance_m1054139389
Urj:_GUIStyleState_GetGUIStyleState_m2816150617
qDi:_InternalEnumerator_1__ctor_m967618647_AdjustorThunk
t6a:__ZN16MemoryFileSystem5WriteER13FileEntryDatayPvPy
Eug:_LayoutGroup_GetAlignmentOnAxis_m1783063916
rgb:__ZNSt3__26vectorIN12FlareManager10FlareEntryENS_9allocatorIS2_EEE21__push_back_slow_pathIKS2_EEvRT_
QHi:_Default_check_arguments_with_score_m1714931543
tyi:_TweenerCore_3_Startup_m3129492921_gshared
N1e:_SHA1_Create_m4086509717
yXi:__Z57RuntimeInvoker_Il2CppObject_RuntimeTypeHandle_t2330101084PK10MethodInfoPvPS2_
Qfl:_UnityEvent_1_GetDelegate_m3098147632_gshared
LLe:_Tweener_Setup_TisColor2_t232726623_TisColor2_t232726623_TisColorOptions_t2213017305_m3108701139_gshared
gRi:_MonoMethodInfo_GetMethodInfo_m3298558752
IH:__ZN13AudioListener17RemoveFromManagerEv
ef:_glAttachShader
org:_Dropdown_SetAlpha_m2769981009
abe:__ZN5physx6shdfnd8internal8HashBaseINS0_4PairIKtPKcEEtNS0_4HashItEENS1_11HashMapBaseItS6_S9_NS_7profile26WrapperReflectionAllocatorIS6_EEE6GetKeyESD_Lb1EE6createERS4_Rb
PMa:__ZNK6Camera19GetProjectionMatrixEv
O0k:_Predicate_1_BeginInvoke_m1856151290_gshared
D1d:__ZNK5physx2Cm12DelegateTaskINS_2Sc5SceneEXadL_ZNS3_18clothPreprocessingEPNS_10PxBaseTaskEEEE7getNameEv
WCd:__ZNK5physx7NpScene24getWakeCounterResetValueEv
Vvd:__ZN5physx20NpRigidActorTemplateINS_14PxRigidDynamicEE17resolveReferencesERNS_24PxDeserializationContextE
aLf:_ReadOnlyCollection_1_System_Collections_IList_Contains_m673434054_gshared
Qql:__ZN15dense_hashtableINSt3__24pairIK10KeyWrapperIPK22Il2CppGenericParameterEP11Il2CppClassEES6_N6il2cpp5utils11PointerHashIS4_EEN14dense_hash_mapIS6_S9_SE_NS0_8equal_toIS6_EENS0_9allocatorISA_EEE9SelectKeyESH_SJ_E8min_sizeEjj
h6i:__Z139RuntimeInvoker_Il2CppObject_Il2CppObject_Int32_t2071877448_SByte_t454417549_SByte_t454417549_SByte_t454417549_SByte_t454417549_Il2CppObjectPK10MethodInfoPvPS2_
Abg:_StackTrace__ctor_m2404985356
nUd:__ZN5physx2Gu32PCMConvexVsMeshContactGeneration20generateLastContactsEv
r2:__Z38PreallocateObjectFromPersistentManagerib
Z6f:_DateTime_System_IConvertible_ToSingle_m3927769066
Egm:__ZNSt3__211__money_getIwE13__gather_infoEbRKNS_6localeERNS_10money_base7patternERwS8_RNS_12basic_stringIcNS_11char_traitsIcEENS_9allocatorIcEEEERNS9_IwNSA_IwEENSC_IwEEEESJ_SJ_Ri
Hhd:__ZThn12_N5physx10NpMaterialD0Ev
V1g:_ShortcutExtensions_DOLocalPath_m712666778
hui:_DOGetter_1_BeginInvoke_m3894549130_gshared
Clb:__ZNK9Texture2D20GetUnscaledTextureIDEv
fO:__ZN9AudioClip7PRODUCEE18MemLabelIdentifier18ObjectCreationMode
sjm:__ZNSt3__26vectorIPNS_6locale5facetENS_15__sso_allocatorIS3_Lj28EEEE26__swap_out_circular_bufferERNS_14__split_bufferIS3_RS5_EE
kAi:_TweenCallback_1_Invoke_m872757678_gshared
xkf:_List_1_IndexOf_m1434084853_gshared
R7d:__ZN5physx6shdfnd4sortIjNS_19SortBoundsPredicateENS0_19ReflectionAllocatorIjEEEEvPT_jRKT0_RKT1_j
twm:_glFenceSync__wrapper
xRg:_MonoType_get_ContainsGenericParameters_m3229732653
a6h:__ZL99ShortcutExtensions_t3524050470_CustomAttributesCacheGenerator_ShortcutExtensions_DOScale_m562799890P21CustomAttributesCache
fkd:__ZN5physx7NpShape14onRefCountZeroEv
lSe:_Array_InternalArray__IndexOf_TisContactPoint_t1376425630_m3651364246_gshared
Gei:__ZL53InputField_t1631627530_CustomAttributesCacheGeneratorP21CustomAttributesCache
d4l:__ZN6il2cpp2vm13ComObjectBaseINS0_13ManagedObjectE18Il2CppIInspectableNS0_7details6ComNilES5_S5_S5_S5_S5_S5_E16__CreateInstanceEP12Il2CppObject
o7d:__ZL15TestContainmentRKN5physx6PxVec3EPKfjPKNS_2Gu15HullPolygonDataE
Hlb:__ZNK9Texture2D26CanReuploadDataToGfxDeviceEv
FPb:__ZN18StreamedBinaryReadILb0EE21TransferSTLStyleArrayI13dynamic_arrayI4AABBLj4EEEEvRT_17TransferMetaFlags
p4j:_UInt16_System_IConvertible_ToDouble_m4100549304_AdjustorThunk
NZi:__Z116RuntimeInvoker_Il2CppObject_Il2CppObject_Il2CppObject_Int32_t2071877448_Int32_t2071877448_MonoIOErrorU26_t1029615899PK10MethodInfoPvPS2_
Ama:__Z29ClearRepeatingLogMessageStatev
znc:__ZN13TextRendering17TextMeshGenerator13GetTextOffsetERK5RectTIfE
p4d:__ZN5physx2Gu11HeightField12loadFromDescERKNS_17PxHeightFieldDescEb
K7e:_Single_System_IConvertible_ToInt16_m962677079
K6:__ZN21EnlightenSceneMappingaSERKS_
mEf:_Collection_1_SetItem_m546457615_gshared
$6l:__ZNK6il2cpp8metadata21Il2CppGenericInstHashclEPK17Il2CppGenericInst
Y7e:_Single_System_IConvertible_ToUInt32_m2447833283
CLf:_ReadOnlyCollection_1_System_Collections_IList_Add_m3806843030_gshared
LGa:__ZN7ApiGLESD2Ev
Ioj:__Z36RuntimeInvoker_Enumerator_t108109624PK10MethodInfoPvPS2_
u0a:__ZN9Transform47ClearTransformHierarchyAndApplyToSerializedDataEv
i9j:_InternalEnumerator_1_get_Current_m4083613828_AdjustorThunk
hKg:_FileStream_FlushBuffer_m4224969569
aAd:__ZN5physx6shdfnd8PoolBaseINS_2Gu30LargePersistentContactManifoldENS0_19ReflectionAllocatorIS3_EEE12allocateSlabEv
phd:__ZNK5physx10NpMaterial17getReferenceCountEv
E$e:_RijndaelManaged_GenerateKey_m3366247933
sIg:_BinaryReader_ReadUInt64_m1893783375
vwk:_Bounds_op_Equality_m2161830280
j4a:__ZN17PersistentManager9AddStreamEv
Rpm:dynCall_fidi
brc:__Z47Register_UnityEngine_GUIStyle_set_imagePositionv
rYd:__ZN5physx20getVertexEdgeIndicesERKNS_2Gu11HeightFieldEjjjPNS_8EdgeDataE
Eqc:__Z49GUIStyle_CUSTOM_INTERNAL_CALL_Internal_DrawCursor13Il2Cpp_IntPtrRK5RectTIfEP12Il2CppObjectiRK10ColorRGBAf
BUj:_ScrollRect_set_movementType_m3292965850
iTh:__ZL59AttributeTargets_t1984597432_CustomAttributesCacheGeneratorP21CustomAttributesCache
hFd:__ZN5physx6shdfnd5ArrayIPNS_2Sc8BodyCoreENS0_19ReflectionAllocatorIS4_EEE6resizeEjRKS4_
BDj:_RectTransform_set_anchorMin_m4247668187
YVc:__ZN5physx3Cct26CharacterControllerManager16createControllerERNS_9PxPhysicsEPNS_7PxSceneERKNS_16PxControllerDescE
OS:__ZN11UnityEngine15CloudWebService14RestDownloaderD2Ev
X4a:__Z29StdTemplateConversionFunctionIjhEbPvR14SafeBinaryRead
kib:__ZN22RenderingCommandBufferC2ERKS_
Bae:__ZNK12PhysXRaycast12BatchOverlapER13dynamic_arrayI15BatchedOverlapsLj4EEPP8Colliderj
nXg:_DOTween_Restart_m570313680
rhf:_List_1_GrowIfNeeded_m2986672263_gshared
oBi:_ArrayReadOnlyList_1_Remove_m2325516426_gshared
P_f:_Hashtable_get_Count_m830088216
Rac:__ZNK13MonoBehaviour13GetScriptTypeEv
qba:__ZN13RenderTexture12SetDimensionE16TextureDimension
gFj:_ScriptableObject_CreateInstance_m3921674852
LGk:_GameObject_Internal_AddComponentWithType_m214735204
Xf:_SDL_FreeRW
oId:__ZN5physx6shdfnd8PoolBaseINS_2Cm5BlockIhLj128EEENS0_19ReflectionAllocatorIS4_EEE15disposeElementsEv
W1e:_SHA1Internal_FillBuff_m891541953
xWh:__ZL62ResolveEventHandler_t3842432458_CustomAttributesCacheGeneratorP21CustomAttributesCache
rsd:__ZN5physx3Scb14ParticleSystem14setRestOffsetsEjRKNS_16PxStrideIteratorIKjEERKNS2_IKfEE
GM:__ZN20SoundChannelInstance8getDelayE14FMOD_DELAYTYPEPjS1_
Yab:__ZN21AssetBundleFileSystemC2EPKc
aXi:__Z61RuntimeInvoker_Void_t1841601450_Il2CppObject_Int64_t909078037PK10MethodInfoPvPS2_
twg:_InputField_set_customCaretColor_m3534590098
LUj:_ScrollRect_set_viewport_m323693490
gqa:__ZN10UnitySceneD0Ev
sBg:_NumberFormatter_FormatExponential_m3975285307
uhe:__ZNSt3__26vectorIN20TextRenderingPrivate8FontImpl13CharacterInfoE13stl_allocatorIS3_L18MemLabelIdentifier1ELi16EEE8__appendEj
u:tempBigInt
dg:_emscripten_glVertexAttrib1fv
WTb:__ZNSt3__26vectorIN9ShaderLab20SerializedSubProgram12UAVParameterENS_9allocatorIS3_EEE7reserveEj
nRk:_Array_InternalArray__get_Item_TisTypeTag_t141209596_m1747911007_gshared
pth:_NameObjectCollectionBase__ctor_m2433753948
ztk:_AnimationCurve_Init_m1486386337
hAk:_Component_GetComponents_m3712441745
WDd:__ZN5physx13NpVolumeCacheC2EPNS_2Sq17SceneQueryManagerEjj
m3c:__ZThn24_N5physx2Sc20ArticulationJointSimD1Ev
dxg:_InputField_get_selectionAnchorPosition_m466595604
HSh:__ZL99Thread_t241561612_CustomAttributesCacheGenerator_Thread_t241561612____ExecutionContext_PropertyInfoP21CustomAttributesCache
Xbf:_DecoderReplacementFallback_get_DefaultString_m3399348550
A3k:_UnityAction_4_Invoke_m3312096275_gshared
sii:__ZL111LayoutUtility_t4076838048_CustomAttributesCacheGenerator_LayoutUtility_U3CGetPreferredHeightU3Em__5_m1524880643P21CustomAttributesCache
vmj:__Z57RuntimeInvoker_ResourceInfo_t3933049236_Int32_t2071877448PK10MethodInfoPvPS2_
Lql:__ZN15dense_hashtableINSt3__24pairIK10KeyWrapperIPK22Il2CppGenericParameterEP11Il2CppClassEES6_N6il2cpp5utils11PointerHashIS4_EEN14dense_hash_mapIS6_S9_SE_NS0_8equal_toIS6_EENS0_9allocatorISA_EEE9SelectKeyESH_SJ_EC2ERKSM_j
ttl:__ZN15dense_hashtableINSt3__24pairIK10KeyWrapperIPK19Il2CppGenericMethodEPK26Il2CppGenericMethodIndicesEES6_N6il2cpp8metadata23Il2CppGenericMethodHashEN14dense_hash_mapIS6_SA_SE_NSD_26Il2CppGenericMethodCompareENS0_9allocatorISB_EEE9SelectKeyESG_SI_E13set_empty_keyERKSB_
ssd:__ZN5physx2Sc18ParticleSystemCore14setRestOffsetsEjRKNS_16PxStrideIteratorIKjEERKNS2_IKfEE
RNc:__ZN5physx2Gu16testPolyDataAxisERKNS0_8CapsuleVERKNS0_13PolygonalDataEPNS0_12SupportLocalERKNS_6shdfnd3aos6FloatVERSB_RNSA_5Vec3VE
gEj:_RectTransformUtility_ScreenPointToRay_m1842507230
W_a:__ZN16ReflectionProbes16UpdateSampleDataEv
fXi:__Z71RuntimeInvoker_Int32_t2071877448_Il2CppObject_Il2CppObject_Il2CppObjectPK10MethodInfoPvPS2_
d6c:__ZN5physx2Sc17ParticleSystemSimD0Ev
bTl:__ZNK15dense_hashtableI10KeyWrapperIP18Il2CppGenericClassES3_N6il2cpp8metadata22Il2CppGenericClassHashEN14dense_hash_setIS3_S6_NS5_25Il2CppGenericClassCompareENSt3__29allocatorIS3_EEE8IdentityES8_SB_E10test_emptyERK30dense_hashtable_const_iteratorIS3_S3_S6_SD_S8_SB_E
Ngk:_Enumerator_VerifyState_m2118679243_gshared
sSb:__ZN14SafeBinaryRead21TransferSTLStyleArrayI10vector_setI4PPtrI10MonoScriptENSt3__24lessIS4_EE13stl_allocatorIS4_L18MemLabelIdentifier76ELi16EEEEEvRT_17TransferMetaFlags
e$i:__Z103RuntimeInvoker_Il2CppObject_Il2CppObject_StreamingContext_t1417235061_ISurrogateSelectorU26_t2635255864PK10MethodInfoPvPS2_
A3l:__ZN6il2cpp5utils21CollapseAdjacentStarsERKNSt3__212basic_stringIcNS1_11char_traitsIcEENS1_9allocatorIcEEEE
$Ik:_SafeHandle_Finalize_m1839546519
Psb:__ZN14Texture2DArray5ResetEv
Duc:__ZN8JSONRead21TransferSTLStyleArrayINSt3__26vectorI10RectOffset13stl_allocatorIS3_L18MemLabelIdentifier1ELi16EEEEEEvRT_S5_17TransferMetaFlags
ldk:_InternalEnumerator_1_MoveNext_m252820768_AdjustorThunk
MLk:_Context_AllocateNamedDataSlot_m3200404053
ETa:__ZN14BatchAllocator6CommitE18MemLabelIdentifier
kxh:_X509EnhancedKeyUsageExtension_Decode_m3866320499
oBg:_NumberFormatter_AppendIntegerStringWithGroupSeparator_m1401773574
x8h:__ZL68U3CU3Ec__DisplayClass78_0_t1881678406_CustomAttributesCacheGeneratorP21CustomAttributesCache
msf:_List_1_Remove_m1237648310_gshared
yjh:_CipherSuite_get_ServerHMAC_m3566778727
lJh:__ZL64DebuggerBrowsableState_t944457511_CustomAttributesCacheGeneratorP21CustomAttributesCache
Ag:_JS_Sound_Play
Fvg:_Image_IsRaycastLocationValid_m864962354
Ndm:__ZNSt3__219__libcpp_asprintf_lEPPcP15__locale_structPKcz
hTb:__ZN9ShaderLab16SerializedShader8TransferI14SafeBinaryReadEEvRT_
gpa:__ZN5Mutex7TryLockEv
mWi:__Z51RuntimeInvoker_Int16_t4041245914_Decimal_t724701077PK10MethodInfoPvPS2_
VBi:_InternalEnumerator_1_get_Current_m2151132603_gshared
Jyk:_Collision_get_collider_m3340328360
iC:__ZN7mecanim8skeleton13SkeletonAlignEPKNS0_8SkeletonERKN4math7_float4ES7_i
ceb:__ZN14SafeBinaryRead21TransferSTLStyleArrayIN4core12basic_stringIcNS1_20StringStorageDefaultIcEEEEEEvRT_17TransferMetaFlags
Pli:_RemotingConfiguration_RegisterWellKnownServiceType_m2491506630
i_h:__ZL89Screen_t786852042_CustomAttributesCacheGenerator_Screen_t786852042____height_PropertyInfoP21CustomAttributesCache
FC:__ZNK26AnimatorControllerPlayable34GetAnimatorStateInfoFromStateIndexEiiR17AnimatorStateInfo
wNh:__ZL55_TypeBuilder_t2783404358_CustomAttributesCacheGeneratorP21CustomAttributesCache
z5a:__Z29StdTemplateConversionFunctionIayEbPvR14SafeBinaryRead
pxd:__ZNK5physx20NpRigidActorTemplateINS_13PxRigidStaticEE14getConstraintsEPPNS_12PxConstraintEjj
nQc:__ZN25MeshMTDGenerationCallbackD0Ev
Lzg:_LayoutRebuilder_Initialize_m2671585490
Umf:_List_1_System_Collections_IList_IndexOf_m4061554721_gshared
tT:__ZN11UnityEngine15CloudWebService14DataDispatcher4StopEv
Vgc:__Z40Register_UnityEngine_Light_get_intensityv
YTb:__ZNSt3__26vectorIN9ShaderLab20SerializedSubProgram12UAVParameterENS_9allocatorIS3_EEE8__appendEj
Gef:_Enumerator_System_Collections_IEnumerator_Reset_m4029239424_AdjustorThunk
lyf:_Collection_1_GetEnumerator_m434271983_gshared
boc:__ZN5IMGUI9GUIWindow5OnGUIER8GUIState
pDe:__ZN22BaseUnityConnectClient24OnSaveFileFromServerDoneERK8UnityStrS2_bi
wkk:_Enumerator_get_Current_m2986380627_gshared
J8b:__ZNK17AnimationCurveTplI11QuaternionfE8GetRangeEv
NKk:_LifetimeServices_set_LeaseTime_m1487876644
aJi:_ConstructorBuilder_not_supported_m3687319507
kHh:__ZL48IList_t3321498491_CustomAttributesCacheGeneratorP21CustomAttributesCache
gvc:__Z33EmitSerializationCommandsForFieldI9JSONWriteEvR18TransferField_InfoR32SerializationCommandQueueBuilderRP20AllowNameConversions
lcd:__ZN5physx12NpConstraint8comShiftEPNS_12PxRigidActorE
P7e:_Single_System_IConvertible_ToInt64_m3555853323_AdjustorThunk
SRb:__Z23TransferScriptingObjectI19StreamedBinaryWriteILb0EEEvRT_P12Il2CppObjectP11Il2CppClassPK15MonoScriptCache
Mnm:dynCall_iifiii
lbj:__Z48RuntimeInvoker_PersistentListenerMode_t857969000PK10MethodInfoPvPS2_
r7f:_DateTime_get_Hour_m2925715777_AdjustorThunk
hhj:__Z77RuntimeInvoker_Boolean_t3825574718_AspectModeU26_t218518220_Int32_t2071877448PK10MethodInfoPvPS2_
ZTl:__ZNK15dense_hashtableINSt3__24pairIK10KeyWrapperIP12Il2CppObjectEN6il2cpp2gc9CachedCCWEEES5_NS7_5utils11PointerHashIS3_EEN14dense_hash_mapIS5_S9_SD_NS0_8equal_toIS5_EENS0_9allocatorISA_EEE9SelectKeyESG_SI_E3endEv
Z_i:__Z87RuntimeInvoker_Il2CppObject_Il2CppObject_Il2CppObject_Il2CppObject_StringU26_t638738783PK10MethodInfoPvPS2_
Wna:__Z21HasAlphaTextureFormat13TextureFormat
AO:__ZN12AudioManager6UpdateEv
Una:__ZN14ImageReference9BlitImageERKS_NS_8BlitModeE
XQi:_MonoMethod_get_MethodHandle_m1882915015
gv:__ZN8Animator12AddToManagerEv
zLh:__ZL93ConstructorInfo_t2851816542_CustomAttributesCacheGenerator_ConstructorInfo_Invoke_m2144827141P21CustomAttributesCache
QZa:__ZNK9ShaderLab9IntShader6GetTagEib
RMc:__ZNK5physx2Gu16SupportLocalImplINS0_11ConvexHullVEE9doSupportERKNS_6shdfnd3aos5Vec3VERNS5_6FloatVESA_
dFb:__ZN23CachedSerializationDataD2Ev
MJc:__ZNK5physx3Cct13BoxController8getActorEv
ejb:__ZN14RenderSettings23VirtualRedirectTransferER14SafeBinaryRead
rzc:__ZNK13b2CircleShape5CloneEP16b2BlockAllocator
lWl:__ZN6il2cpp2os10ThreadImpl15CurrentThreadIdEv
UDf:_Collection_1_System_Collections_IList_get_IsReadOnly_m4005091053_gshared
QA:__ZN30dense_hashtable_const_iteratorINSt3__24pairIKN11UnityEngine9Animation14GenericBindingENS3_10BoundIndexEEES4_NS3_25GenericBindingHashFunctorEN14dense_hash_mapIS4_S6_S8_NS3_30GenericBindingValueArrayUniqueE13stl_allocatorIS7_L18MemLabelIdentifier1ELi16EEE9SelectKeyESA_SD_E30advance_past_empty_and_deletedEv
UMe:_Array_InternalArray__ICollection_Contains_TisColor32_t874517518_m2818328910_gshared
nhb:__ZN17GlobalGameManager8TransferI17RemapPPtrTransferEEvRT_
g5d:__ZN5physx6shdfnd8internal8HashBaseIPNS_2Gu12TriangleMeshES5_NS0_4HashIS5_EENS1_11HashSetBaseIS5_S7_NS0_9AllocatorELb1EE6GetKeyES9_Lb1EE5eraseERKS5_
meh:_AppDomainInitializer_EndInvoke_m4003801172
oCj:_RaycastHit2D_get_point_m442317739
Y2i:__Z72RuntimeInvoker_Il2CppObject_Il2CppObject_Decimal_t724701077_Il2CppObjectPK10MethodInfoPvPS2_
Rib:__ZN16LevelGameManager8TransferI18StreamedBinaryReadILb0EEEEvRT_
Vue:_UNITY_tt_face_load_fpgm
dyb:__ZN12InputManagerD0Ev
W4l:__ZN6il2cpp6icalls8mscorlib6System11Diagnostics10StackTrace9get_traceEP15Il2CppExceptionib
Ipg:_DefaultControls_CreateUIObject_m2810394112
Rej:__Z37RuntimeInvoker_FillMethod_t1640962579PK10MethodInfoPvPS2_
Htj:_GUIStyle_get_overflow_m1125058093
IUj:_ScrollRect_get_scrollSensitivity_m1160815603
Xdf:_UnicodeEncoding_GetBytes_m1337660232
tFc:__ZN16Physics2DManager10CircleCastERK8Vector2ffS2_fiffPK10Collider2DbP12RaycastHit2Di
Jgj:__Z96RuntimeInvoker_Il2CppObject_Il2CppObject_Int32_t2071877448_Single_t2076509932_Single_t2076509932PK10MethodInfoPvPS2_
DFj:_SerializePrivateVariables__ctor_m806793207
Jcd:__ZN5physx2Sc9RigidCore20removeShapeFromSceneERNS0_9ShapeCoreEb
Yae:__ZN5physx6shdfnd8internal8HashBaseINS0_4PairIKPKcjEES5_NS0_4HashIS5_EENS1_11HashMapBaseIS5_jS9_NS_7profile26WrapperReflectionAllocatorIjEEE6GetKeyESD_Lb1EE15reserveInternalEj
i8l:___ctype_b_loc
G_:__ZN13RuntimeStaticI11WindManagerE16StaticInitializeEPv
gSj:_VertexHelper_GetUIVertexStream_m3849188814
FRa:__ZNK19RenderEventsContext21ExecuteCommandBuffersEiR17ShaderPassContextRK15RenderNodeQueueP19ProfilerInformationi
M7d:__ZN5physx11RTreeCooker18buildFromTrianglesERNS_2Gu5RTreeEPKNS_6PxVec3EjPKtPKjjRNS_6shdfnd5ArrayIjNSB_19ReflectionAllocatorIjEEEEPNS0_13RemapCallbackEfNS_17PxMeshCookingHint4EnumE
U6c:__ZN5physx6shdfnd5ArrayIPvNS0_15InlineAllocatorILj256ENS0_19ReflectionAllocatorINS_14NpArticulationEEEEEE15growAndPushBackERKS2_
suf:_List_1_get_Count_m1249351212_gshared
iek:_InternalEnumerator_1_get_Current_m747506907_AdjustorThunk
Pwk:_Camera_get_eventMask_m4241372419
H3f:_Decimal_op_Implicit_m623319612
urj:_GUILayoutUtility_LayoutFromEditorWindow_m1847418289
qjh:_CertificateValidationCallback2_BeginInvoke_m3996282202
tqh:_SslClientStream_get_ClientCertSelectionDelegate_m2316959461
AYf:_SynchronizedArrayListWrapper_get_SyncRoot_m1466044127
u2:__ZNK15MonoScriptCache7ReleaseEv
njl:_Enumerator_get_Current_m3108634708_gshared
TVd:__ZN5physx9PxTaskMgrC2EPNS_15PxCpuDispatcherEPNS_15PxGpuDispatcherEPNS_15PxSpuDispatcherE
Ph:_glBindTexture
iyf:_Collection_1_ClearItems_m3585785594_gshared
U8l:_snprintf
GKf:_ReadOnlyCollection_1_System_Collections_IList_get_IsReadOnly_m2918085566_gshared
yhi:__ZL84HorizontalOrVerticalLayoutGroup_t1968298610_CustomAttributesCacheGenerator_m_SpacingP21CustomAttributesCache
vHi:_Binder__ctor_m1361613966
axg:_InputField_set_caretPosition_m888572237
wMi:_ILGenerator__cctor_m3943061018
QXf:_ArrayListWrapper_Clone_m1506311066
Njh:_CipherSuite_set_Context_m4127897124
EEa:__ZN16UniformCacheGLES6CreateERK20GpuProgramParameters
H_j:_UTF8Encoding_Fallback_m811555654
x6j:_UInt64_CompareTo_m3513742483
lFj:_ScriptableObject_t1975622470_marshal_pinvoke_cleanup
_cf:_Encoding_GetString_m1894033578
VJf:_ReadOnlyCollection_1_System_Collections_IList_Clear_m1918003010_gshared
rbl:_TextGenerator_t647235000_marshal_pinvoke_cleanup
J$k:_Nullable_1_Equals_m3860982732_gshared
hQk:_TweenSettingsExtensions_OnStepComplete_TisIl2CppObject_m267308340_gshared
aKe:__ZN18VirtActionInvoker1IP25TweenerCore_3_t3261425374E6InvokeEjPvS1_
i1h:__ZL94Font_t4239498691_CustomAttributesCacheGenerator_Font_InvokeTextureRebuilt_Internal_m2007522718P21CustomAttributesCache
e5:__ZN17PersistentManager23DestroyFromFileInternalEi
q$h:__ZL98Object_t1021602117_CustomAttributesCacheGenerator_Object_DoesObjectWithInstanceIDExist_m2570795274P21CustomAttributesCache
zdg:_Enum_ToString_m2112979707
Sal:_TextGenerator_ValidatedSettings_m1640214759
WOh:__ZL55SoapServices_t3397513225_CustomAttributesCacheGeneratorP21CustomAttributesCache
gji:_MonoMethodMessage_get_MethodName_m3580519713
_C:__ZN26AnimatorControllerPlayable18PrepareForPlaybackERN7mecanim6memory9AllocatorE
$Ld:__ZN5physx19PxsMaterialCombiner24combineIsotropicFrictionERKNS_15PxsMaterialDataES3_
Gdg:_Enum_t2459695545_marshal_pinvoke_cleanup
K7h:__ZL68U3CU3Ec__DisplayClass37_0_t1707016623_CustomAttributesCacheGeneratorP21CustomAttributesCache
JRk:_Array_InternalArray__get_Item_TisUIVertex_t1204258818_m3450355955_gshared
tmf:_List_1_IndexOf_m2418862432_gshared
ytd:__ZN5physx22NpParticleBaseTemplateINS_16PxParticleSystemENS_16NpParticleSystemEE20lockParticleReadDataEv
vpl:__ZL25UnresolvedVirtualCall_242P12Il2CppObject24VectorOptions_t293385261S0_aS0_S0_f19Vector4_t2243707581S2_faiPK10MethodInfo
a5k:_U3CU3Ec__DisplayClass41_0_U3CDOMoveU3Eb__0_m3694052833
Wea:__ZN22CreateGpuProgramOutputC2Ev
Xzh:_X509Chain__ctor_m2242540866
fxj:_Object__ctor_m197157284
hLg:_MemoryStream_InternalConstructor_m2423667240
_pk:_CapturingGroup_set_Index_m2175936006
Ojm:__ZNSt13runtime_errorC2ERKNSt3__212basic_stringIcNS0_11char_traitsIcEENS0_9allocatorIcEEEE
xTi:__Z70RuntimeInvoker_Il2CppObject_Il2CppObject_Il2CppObject_SByte_t454417549PK10MethodInfoPvPS2_
eki:_SoapMethodAttribute_SetReflectionObject_m3431595769
U5d:__ZN5physx7Cooking16cookTriangleMeshERKNS_18PxTriangleMeshDescERNS_14PxOutputStreamE
Xwk:_Camera_INTERNAL_set_rect_m610424166
mXj:_Slider_set_maxValue_m2951480075
k3b:__ZN8GUILayer12CleanupClassEv
e4c:__ZN5physx2Sc7ElementD0Ev
r8d:__ZN5physx6shdfnd10Foundation7releaseEv
Lrl:__ZN6il2cpp2vm5Class4InitEP11Il2CppClass
Q_:__ZN19ShaderPropertySheet27AddNewPropertyUninitializedERKN9ShaderLab16FastPropertyNameENS_12PropertyTypeEijj
ng:_emscripten_glBindBuffer
f8b:__ZNK15GUIEventManager15GetEventAtIndexEi
oye:__ZN2UI14CanvasRenderer17SyncDirtyElementsER8JobFence
rOb:__Z18Transfer_BlittableI18StreamedBinaryReadILb0EELb0ExEvRK29SerializationCommandArgumentsR31RuntimeSerializationCommandInfo
zog:_ColorBlock_op_Inequality_m1517672458
lVl:__ZN6il2cpp5utils11StringUtils15StringDuplicateEPKc
qQl:__ZN6il2cpp2vm9Exception32GetPlatformNotSupportedExceptionEPKc
IVg:_TweenManager_PlayBackwards_m156468731
nea:__ZNK9ShaderLab21ShaderRasterStateDesc16ToGfxRasterStateEPK19ShaderPropertySheetS3_R14GfxRasterState
Awg:_InputField_set_onValueChange_m1749304609
VWa:__Z16RenderShadowMapsPK18ShadowMapJobHeaderR17ShaderPassContext
Uri:_CspParameters__ctor_m2480441577
Y6l:__ZN6il2cpp2os9EventImplC2Ebb
nLk:_DynamicPropertyCollection_NotifyMessage_m840388347
jrk:_Uri_ParseUri_m5711497
_ge:__ZN14SafeBinaryRead21TransferSTLStyleArrayINSt3__26vectorI8UnityStr13stl_allocatorIS3_L18MemLabelIdentifier34ELi16EEEEEEvRT_17TransferMetaFlags
Cgb:__ZN12FlareManager12RemoveCameraER6Camera
l$:__Z20IsMatrixBuiltinParamPKcPi
R2i:__Z63RuntimeInvoker_Void_t1841601450_Il2CppObject_Decimal_t724701077PK10MethodInfoPvPS2_
wfi:__ZL108MaskableGraphic_t540192618_CustomAttributesCacheGenerator_MaskableGraphic_ParentMaskStateChanged_m3643747340P21CustomAttributesCache
XDk:_Playable_INTERNAL_CALL_GetInputInternal_m1720243548
K1b:__ZN8Renderer19PostInitializeClassEv
V5:__ZN13RuntimeStaticINSt3__23mapINS0_12basic_stringIcNS0_11char_traitsIcEENS0_9allocatorIcEEEES7_NS0_4lessIS7_EE13stl_allocatorINS0_4pairIKS7_S7_EEL18MemLabelIdentifier12ELi16EEEEE16StaticInitializeEPv
nke:__ZN20TextRenderingPrivate15DynamicFontDataD2Ev
Fel:_Vector3_get_sqrMagnitude_m1814096310_AdjustorThunk
xdm:__ZNKSt3__27num_getIwNS_19istreambuf_iteratorIwNS_11char_traitsIwEEEEE15__do_get_signedIxEES4_S4_S4_RNS_8ios_baseERjRT_
z2l:__ZN6il2cpp6icalls8mscorlib6System8Delegate23CreateDelegate_internalEP20Il2CppReflectionTypeP12Il2CppObjectP22Il2CppReflectionMethodb
ybm:__ZNSt3__214basic_iostreamIcNS_11char_traitsIcEEED0Ev
KHi:_Default_check_type_m2363631305
_Eb:__ZN18DelayedCallManager18CancelCallDelayed2E4PPtrI6ObjectEPF15CallObjectStatePS1_PvES7_
Omf:_List_1__cctor_m911493842_gshared
N7a:__ZN25ThreadsafeLinearAllocator10ReallocateEPvji
_Gb:__Z18Transfer_BlittableI14SafeBinaryReadLb1E11QuaternionfEvRK29SerializationCommandArgumentsR31RuntimeSerializationCommandInfo
oad:__ZNK5physx18PxArticulationLink8isKindOfEPKc
rSe:_Array_InternalArray__IndexOf_TisRaycastHit2D_t4063908774_m3739817942_gshared
GRi:_MonoProperty_GetAccessors_m3704698731
q_i:__Z146RuntimeInvoker_Il2CppObject_Int32_t2071877448_Il2CppObject_ObjectU5BU5DU26_t3223402458_Il2CppObject_Il2CppObject_Il2CppObject_ObjectU26_t597476745PK10MethodInfoPvPS2_
See:__Z25CreatePxMeshFromUnityMeshP4MeshbbRK10Matrix4x4f13TransformTypef
$1l:_GC_disable
Wub:__ZN10Matrix4x4f8TransferI14SafeBinaryReadEEvRT_
wo:FUNCTION_TABLE_vifiiiiiiiiiiiiiiiiii
ojd:__ZN5physx9NpFactory11createShapeERKNS_10PxGeometryENS_7PxFlagsINS_11PxShapeFlag4EnumEhEEPKPNS_10PxMaterialEtb
LOg:_UnmanagedMemoryStream_ReadByte_m2501145010
C2b:__ZN12LineRenderer26RendererCullingOutputReadyEPP12BaseRendererjPK6CameraRK10Matrix4x4f
zIj:_Dictionary_2__ctor_m406310120_gshared
e8h:__ZL67U3CU3Ec__DisplayClass59_0_t295391299_CustomAttributesCacheGeneratorP21CustomAttributesCache
hlf:_List_1_GrowIfNeeded_m3646564795_gshared
YC:__ZN14AvatarPlayback8StopTimeEv
Tgm:__ZNSt3__28messagesIcED0Ev
AFh:__ZL60MulticastDelegate_t3201952435_CustomAttributesCacheGeneratorP21CustomAttributesCache
Afe:__ZN14PhysicsManager7PRODUCEE18MemLabelIdentifier18ObjectCreationMode
qai:__ZL143U3CWaitForElapsedLoopsU3Ed__16_t3988581919_CustomAttributesCacheGenerator_U3CWaitForElapsedLoopsU3Ed__16_System_IDisposable_Dispose_m3624934307P21CustomAttributesCache
a2b:__ZN19ShaderPropertySheet16SetVectorIndexedERKN9ShaderLab16FastPropertyNameEifRK8Vector4fNS_8SetFlagsE
Gpl:__ZL25UnresolvedVirtualCall_253P12Il2CppObject16Guid_t2533601593S1_PK10MethodInfo
qla:__ZL14OnWorldStoppedv
ZPb:__Z18Transfer_BlittableI18StreamedBinaryReadILb1EELb0E8Vector3fEvRK29SerializationCommandArgumentsR31RuntimeSerializationCommandInfo
_7i:__Z35RuntimeInvoker_Playable_t3667545548PK10MethodInfoPvPS2_
Usd:__ZN5physx3Scb14ParticleSystem12ForceUpdates7destroyEv
Sol:__ZL25UnresolvedVirtualCall_211P12Il2CppObject25StringOptions_t2885323933fS0_PK10MethodInfo
zei:__ZL61Image_t2042527209_CustomAttributesCacheGenerator_m_FillCenterP21CustomAttributesCache
Hdj:__Z97RuntimeInvoker_Single_t2076509932_VectorOptions_t293385261_Single_t2076509932_Vector2_t2243707579PK10MethodInfoPvPS2_
Jxa:__ZN7ApiGLES18ClearBufferSubDataEjN2gl12BufferTargetEll
Jzi:__ZN18VirtActionInvoker2IP25TweenerCore_3_t3261425374bE6InvokeEjPvS1_b
Ycc:__Z37Camera_Get_Custom_PropAllCamerasCountv
itb:__ZN14Texture2DArray8TransferI18StreamedBinaryReadILb0EEEEvRT_
Kdd:__ZN5physx15NpActorTemplateINS_18PxArticulationLinkEED2Ev
Hb:invoke_fiiif
Ugf:_List_1_get_Capacity_m3067761256_gshared
AKg:_FileStreamAsyncResult__ctor_m1096228032
wpe:_Split_Cubic
dc:invoke_fiiii
JBb:__ZNSt3__26vectorIN30RuntimeInitializeOnLoadManager15ClassMethodInfoE13stl_allocatorIS2_L18MemLabelIdentifier12ELi16EEE26__swap_out_circular_bufferERNS_14__split_bufferIS2_RS5_EE
zlg:_StandaloneInputModule_ProcessMouseEvent_m3840335260
V8f:_DBNull_System_IConvertible_ToSByte_m1228193074
Vgj:__Z105RuntimeInvoker_Il2CppObject_Il2CppObject_Il2CppObject_Vector3_t2243707580_Single_t2076509932_Il2CppObjectPK10MethodInfoPvPS2_
Qxf:_Collection_1__ctor_m2818834331_gshared
HRk:_Array_InternalArray__get_Item_TisUICharInfo_t3056636800_m3872982785_gshared
Iee:__Z19ExtractDataFromMeshR4MeshR13dynamic_arrayI8Vector3fLj4EERS1_ItLj2EES6_
GFk:_Playables_InternalDestroy_m3873600434
Xum:_emscripten_glBindRenderbuffer__wrapper
nWl:__ZN6il2cpp2os10ThreadImpl22CreateForCurrentThreadEv
WBf:_Collection_1_Insert_m3041550124_gshared
Y_f:_Hashtable_PutImpl_m3318435614
Zhm:__ZNKSt3__25ctypeIcE9do_narrowEPKcS3_cPc
afd:__ZN5physx2Sc16ArticulationCore26setMaxProjectionIterationsEj
_Jg:_FileStream_FlushBuffer_m2594140542
TTc:__ZN26IntersectAnyVsMeshCallbackILi1ELb0EED2Ev
wrc:__Z64Register_UnityEngine_GUIStyle_GetFontInternalDuringLoadingThreadv
Elj:__Z76RuntimeInvoker_Void_t1841601450_Int32U5BU5DU26_t1341332175_Int32_t2071877448PK10MethodInfoPvPS2_
MIc:__ZN15ContactFilter2D13ShouldCollideEP9b2FixtureS1_
ipe:_ft_black_render
x_l:__ZN6il2cpp2vm8Profiler12GCHeapResizeEx
_pm:dynCall_viiifi
rBa:__ZN18GfxFramebufferGLES20ActiveContextChangedEPP17RenderSurfaceBaseS2_
cWh:__ZL51TimeSpan_t3430258949_CustomAttributesCacheGeneratorP21CustomAttributesCache
nBa:__Z19PluginsRenderMarkeri
u$h:__ZL80Object_t1021602117_CustomAttributesCacheGenerator_Object_Instantiate_m2439155489P21CustomAttributesCache
NE:__ZN10HumanTrait18InitializeBoneNameEv
g5f:_Convert_ToSByte_m1570938941
ZLj:__ZN16VirtFuncInvoker1Ii38CustomAttributeNamedArgument_t94157543E6InvokeEjPvS0_
hDl:__ZN6il2cpp2gc19AppendOnlyGCHashMapINSt3__24pairIPK14Il2CppAssemblyP11Il2CppClassEEP24Il2CppReflectionAssembly17ReflectionMapHashIS9_E19ReflectionMapEqualsIS9_EE11TryGetValueERKS9_PSB_
iPb:__Z29Transfer_Blittable_ArrayFieldI18StreamedBinaryReadILb0EEyEvRT_R9ArrayInfoRK23StaticTransferFieldInfo
ETk:_X509CertificateEnumerator_get_Current_m3129374511
LLj:_EqualityComparer_1_get_Default_m875724809_gshared
QUa:__ZN14qsort_internal6_QSortIP15RODataDepthPassi17ROSorterDepthPassEEvT_S4_T0_T1_
aSl:__ZNSt3__214__split_bufferIN6il2cpp2vm5Image20EmbeddedResourceDataERNS_9allocatorIS4_EEEC2EjjS7_
SOa:__ZN5Image13ReformatImageERK14ImageReferenceii13TextureFormatNS0_8BlitModeE
IMh:__ZL57DispIdAttribute_t607560947_CustomAttributesCacheGeneratorP21CustomAttributesCache
tH:__ZN12AudioManager17RemoveAudioSourceEP11AudioSource
XAk:_CullingGroup_Finalize_m3172731580
s3d:__ZNK5physx2Gu10ConvexMesh17getReferenceCountEv
vRk:_Array_InternalArray__get_Item_TisUInt64_t2909196914_m2580870875_gshared
sDd:__ZN5physx2Sc5Scene22setNbContactDataBlocksEj
Mch:_SecurityParser_OnEndElement_m2909940377
IP:__ZN5physx14PxLightCpuTask12addReferenceEv
LFc:__Z10b2DistanceP16b2DistanceOutputP14b2SimplexCachePK15b2DistanceInput
Unb:__ZN21EnlightenSceneMapping8TransferI19StreamedBinaryWriteILb0EEEEvRT_
hUl:__ZN6il2cpp2gc16GarbageCollector19InitializeFinalizerEv
Snc:__ZN10GUIManager10DoGUIEventER10InputEventb
dkh:_Context_get_ClientWriteKey_m2235605337
UPh:__ZL66DESCryptoServiceProvider_t933603253_CustomAttributesCacheGeneratorP21CustomAttributesCache
Khk:_Enumerator__ctor_m3597047336_AdjustorThunk
b$l:_GC_bl_init_no_interiors
q5l:__ZN6il2cpp2vm13LibraryLoader21SetFindPluginCallbackEPFPKcS3_E
g$:__Z20CalculateSqrDistanceRK8Vector3fRK4AABB
Ywi:_TweenerCore_3_Validate_m2015486485_gshared
E9a:__Z20GetAssetBundlePrefixRKNSt3__212basic_stringIcNS_11char_traitsIcEENS_9allocatorIcEEEE
ife:__ZN14PhysicsManager15ProcessContactsEv
vRc:__ZN21BoxTraceSegmentReport7onEventEjPj
X9c:__ZN5physx2Sc21ArticulationJointCore13setSwingLimitEff
sL:__Z32AudioMixerDuckingProcessCallbackP21UnityAudioEffectStatePfS1_jii
gNc:__ZL20HullProjectionCB_BoxRKN5physx2Gu13PolygonalDataERKNS_6PxVec3ERKNS_2Cm8Matrix34ERKNS7_23FastVertex2ShapeScalingERfSE_
uIi:_CustomAttributeTypedArgument_GetHashCode_m999147081_AdjustorThunk
dUi:__Z48RuntimeInvoker_Void_t1841601450_SByte_t454417549PK10MethodInfoPvPS2_
qFd:__ZN5physx17PxcNpMemBlockPool19releaseUnusedBlocksEv
iKg:_FileStream_Read_m3880951166
TRd:__ZN5physx14PxsAABBManager21selfCollideAggregatesEPKNS_19AggregateSortedDataE
cI:__ZN12AudioManager8TransferI24GenerateTypeTreeTransferEEvRT_
Uha:__Z25GetBytesFromTextureFormat13TextureFormat
Rna:__ZN9Texture3D19UnloadFromGfxDeviceEb
$Zd:__ZN5physx12_GLOBAL__N_112innerProductERKNS_14Px1DConstraintERS1_RKNS0_9MassPropsE
Ugm:__ZNKSt3__28messagesIcE7do_openERKNS_12basic_stringIcNS_11char_traitsIcEENS_9allocatorIcEEEERKNS_6localeE
vJb:__Z18Transfer_BlittableI17RemapPPtrTransferLb0EsEvRK29SerializationCommandArgumentsR31RuntimeSerializationCommandInfo
Xol:__ZL25UnresolvedVirtualCall_216P12Il2CppObject21NoOptions_t2508431845f22Quaternion_t4030073918PK10MethodInfo
YNe:_Array_InternalArray__ICollection_Remove_TisContactPoint_t1376425630_m2242111467_gshared
_mm:dynCall_iifff
OVa:__Z26FindForwardLightsForObjectR13dynamic_arrayIhLj1EEPK11CulledLightjRK12ActiveLightsRK10RenderNodebRK23FindForwardLightsParams
xk:_emscripten_webgl_init_context_attributes
MFc:__ZN9b2Simplex9ReadCacheEPK14b2SimplexCachePK15b2DistanceProxyRK11b2TransformS5_S8_
CGj:_Dictionary_2_Resize_m2532139610_gshared
jal:_StackTraceUtility__cctor_m1132099289
hsf:_List_1_IndexOf_m2019441835_gshared
fOd:__ZN5physx26PxcFrictionPatchStreamPairC2ERNS_17PxcNpMemBlockPoolE
O1j:_TimeSpan_Equals_m2029123271_AdjustorThunk
cxl:__ZN6il2cpp2vm13MetadataCache23GetInvokerMethodPointerEPK10MethodInfoPK20Il2CppGenericContext
PFa:__ZN9GfxDevice21RegisterNativeTextureE9TextureIDi16TextureDimension
yfg:_CultureInfo__ctor_m456863818
L3l:__ZN6il2cpp6icalls8mscorlib6System10Reflection4Emit11TypeBuilder20create_generic_classEP27Il2CppReflectionTypeBuilder
wGl:__ZNK15dense_hashtableINSt3__24pairIK10KeyWrapperINS1_IPK12PropertyInfoP11Il2CppClassEEEjEES9_17ReflectionMapHashIS8_EN14dense_hash_mapIS9_jSD_19ReflectionMapEqualsIS8_ENS0_9allocatorISB_EEE9SelectKeyESG_SI_E13find_positionERSA_
jAl:__ZNSt3__26vectorIPK10MethodInfoNS_9allocatorIS3_EEE26__swap_out_circular_bufferERNS_14__split_bufferIS3_RS5_EE
maa:__ZN12ScriptMapper10FindShaderERKNSt3__212basic_stringIcNS0_11char_traitsIcEENS0_9allocatorIcEEEE
hof:_List_1_AsReadOnly_m1925066867_gshared
fff:_Enumerator_MoveNext_m2504790928_gshared
Egi:__ZL61Slider_t297367283_CustomAttributesCacheGenerator_m_HandleRectP21CustomAttributesCache
_V:__ZN3WWW20GetCachedErrorStringEv
H9k:_SliderState__ctor_m1096533539
qYb:__ZN12ScriptMapperD2Ev
Lfa:__ZNSt3__26__treeINS_12__value_typeI8UnityStrS2_EENS_19__map_value_compareIS2_S3_NS_4lessIS2_EELb1EEE13stl_allocatorIS3_L18MemLabelIdentifier1ELi16EEE7destroyEPNS_11__tree_nodeIS3_PvEE
xJc:__Z51Register_UnityEngine_Physics2D_IgnoreLayerCollisionv
Z9d:__ZN9Rigidbody13AwakeFromLoadE17AwakeFromLoadMode
rbi:__ZL85AxisEventData_t1524870173_CustomAttributesCacheGenerator_U3CmoveDirU3Ek__BackingFieldP21CustomAttributesCache
Cfd:__ZNK5physx14NpSceneQueries10multiQueryINS_12PxOverlapHitEEEbRKNS_15MultiQueryInputERNS_13PxHitCallbackIT_EENS_7PxFlagsINS_9PxHitFlag4EnumEtEEPKNS_12PxQueryCacheERKNS_17PxQueryFilterDataEPNS_21PxQueryFilterCallbackEPNS_20BatchQueryFilterDataE
Zyg:_LayoutElement_get_preferredWidth_m3246897845
xTk:_X509Certificate_PEM_m49854707
Jee:__ZL21GetMeshLocationDetailR4Mesh
nxh:_X509BasicConstraintsExtension__ctor_m3320418592
HSk:_ExtendedKeyUsageExtension_Decode_m901297139
ZUb:__Z32TransferEnumWithNameForceIntSizeI14SafeBinaryRead7FogModeEvRT_RT0_PKc17TransferMetaFlags
jlc:__Z52Register_UnityEngine_RenderTexture_Internal_GetWidthv
fIh:__ZL89SafeWaitHandle_t481461830_CustomAttributesCacheGenerator_SafeWaitHandle__ctor_m1710231470P21CustomAttributesCache
L0l:_GC_check_leaked
$Wb:__ZN9ShaderLab20SerializedSubProgram16TextureParameter8TransferI19StreamedBinaryWriteILb0EEEEvRT_
oc:invoke_fiiiiiiiifiiiif
LWe:_Array_InternalArray__Insert_TisVector4_t2243707581_m1643342708_gshared
bJl:__ZN15dense_hashtableINSt3__24pairIK10KeyWrapperINS1_IPK14Il2CppAssemblyP11Il2CppClassEEEjEES9_17ReflectionMapHashIS8_EN14dense_hash_mapIS9_jSD_19ReflectionMapEqualsIS8_ENS0_9allocatorISB_EEE9SelectKeyESG_SI_EC2EjRKSD_RKSG_RKSK_
y2a:__Z18SkinGenericMathLibILi4ELb0ELb0EEvR12SkinMeshInfo
VQj:_Mask_OnSiblingGraphicEnabledDisabled_m865494155
Pth:_KeysCollection_System_Collections_ICollection_get_SyncRoot_m2289369147
CT:__ZN11UnityEngine15CloudWebService16SessionContainer8AddEventEPNS0_14CloudEventInfoE
vYj:_Text_set_resizeTextMaxSize_m4034967714
NHh:__ZL55GuidAttribute_t222072359_CustomAttributesCacheGeneratorP21CustomAttributesCache
$rj:_GUIStyle_SetDefaultFont_m2095841351
iIi:_CustomAttributeNamedArgument_Equals_m2691468532
QSl:__ZN15dense_hashtableI10KeyWrapperIP18Il2CppGenericClassES3_N6il2cpp8metadata22Il2CppGenericClassHashEN14dense_hash_setIS3_S6_NS5_25Il2CppGenericClassCompareENSt3__29allocatorIS3_EEE8IdentityES8_SB_E14squash_deletedEv
KEh:__ZL74String_t_CustomAttributesCacheGenerator_String_Concat_m3881798623____args0P21CustomAttributesCache
OPh:__ZL103CryptoConfig_t896479599_CustomAttributesCacheGenerator_CryptoConfig_CreateFromName_m2169102076____args1P21CustomAttributesCache
zub:__ZN10VertexData8TransferI14SafeBinaryReadEEvRT_
c9c:__ZN5physx19NpArticulationJointD0Ev
vJ:__ZN4FMOD8ChannelI8setDelayE14FMOD_DELAYTYPEjj
T0f:_Stack__ctor_m2410583781
aFl:__ZN6il2cpp2gc19AppendOnlyGCHashMapINSt3__24pairIPK10MethodInfoP11Il2CppClassEEP22Il2CppReflectionMethod17ReflectionMapHashIS9_E19ReflectionMapEqualsIS9_EE11TryGetValueERKS9_PSB_
t9a:__ZN15SerializeTraitsINSt3__24pairI8UnityStrN11AssetBundle9AssetInfoEEEE8TransferI18StreamedBinaryReadILb0EEEEvRS5_RT_
vge:__Z59Register_UnityEngine_Physics_INTERNAL_CALL_Internal_Raycastv
mFl:__ZNK19ReflectionMapEqualsINSt3__24pairIPK10MethodInfoP11Il2CppClassEEEclERK10KeyWrapperIS7_ESC_
IHi:_Default_GetBetterMethod_m4255740863
lJi:_ConstructorBuilder_GetILGenerator_m1731893569
UBd:__ZNK5physx7NpScene17getFilterCallbackEv
Hoj:__Z48RuntimeInvoker_UIVertex_t1204258818_Il2CppObjectPK10MethodInfoPvPS2_
cSl:__ZNSt3__214__split_bufferIN6il2cpp2vm5Image20EmbeddedResourceDataERNS_9allocatorIS4_EEED2Ev
agm:__ZNKSt3__210moneypunctIwLb0EE14do_frac_digitsEv
q1:__ZL20SortItemByInstanceIDRKN18AwakeFromLoadQueue4ItemES2_
ede:__ZN5physx6shdfnd5ArrayIPvNS0_15InlineAllocatorILj256ENS0_19ReflectionAllocatorINS_24NpPtrTableStorageManager8PtrBlockILi16EEEEEEEE15growAndPushBackERKS2_
_Ni:_TypeBuilder_create_runtime_class_m2719530260
D0e:_RNGCryptoServiceProvider_RngClose_m2921734810
G2a:__Z26SkinVerticesGenericMathLibILi1ELb1ELb1EEvPKhiiiiPhiPKvS4_
PPe:_Array_InternalArray__IEnumerable_GetEnumerator_TisVector2_t2243707579_m829381124_gshared
jGe:__ZN20UnityConnectSettings8TransferI24GenerateTypeTreeTransferEEvRT_
IB:__ZN34BlobWriteTransferSTLStyleArrayImplI22OffsetPtrArrayTransferIbEEclERS1_17TransferMetaFlagsR9BlobWrite
HYh:__ZL199U3CCreateWhereIteratorU3Ec__Iterator1D_1_t2523986802_CustomAttributesCacheGenerator_U3CCreateWhereIteratorU3Ec__Iterator1D_1_System_Collections_Generic_IEnumeratorU3CTSourceU3E_get_Current_m517722874P21CustomAttributesCache
hnj:__Z37RuntimeInvoker_LabelFixup_t4090909514PK10MethodInfoPvPS2_
rHf:_ReadOnlyCollection_1_Contains_m1227826160_gshared
DIk:_GCHandle_GetHashCode_m1664905595_AdjustorThunk
U3g:_SimpleCollator_IsHalfKana_m4255579023
zrh:_InternalAsyncResult_get_Count_m1291942796
Lvf:_Collection_1_System_Collections_IList_Contains_m3365884450_gshared
Jek:_DefaultComparer__ctor_m2949813217_gshared
Zjd:__ZN5physx7NpShape13setRestOffsetEf
lEf:_Collection_1_set_Item_m3440986310_gshared
aah:_KeyGeneratedEventHandler_Invoke_m760006389
Gmg:_BaseMeshEffect__ctor_m2843647600
a0l:_GC_set_mark_bit
zkd:__ZN5physxL11getTriangleERKNS_2Gu12TriangleMeshEjPNS_6PxVec3EPKS4_PKvRKNS_2Cm8Matrix34Eb
IYk:_Npc_line_showNPC_m1153086429
nO:__ZN13AudioListener12CleanupClassEv
UTl:__ZN15dense_hashtableINSt3__24pairIK10KeyWrapperIP12Il2CppObjectEN6il2cpp2gc9CachedCCWEEES5_NS7_5utils11PointerHashIS3_EEN14dense_hash_mapIS5_S9_SD_NS0_8equal_toIS5_EENS0_9allocatorISA_EEE9SelectKeyESG_SI_E9copy_fromERKSL_j
K9d:__ZN14SafeBinaryRead21TransferSTLStyleArrayINSt3__26vectorIjNS1_9allocatorIjEEEEEEvRT_17TransferMetaFlags
Ylh:_ClientSessionInfo_Dispose_m2571428025
szi:_TweenerCore_3_ChangeStartValue_m217970222_gshared
S6:__Z13GetIEnlightenv
pph:_RecordProtocol_decryptRecordFragment_m2510859489
mTg:_TweenManager_MarkForKilling_m1319382931
Fld:__ZNK5physx7NpCloth16lockParticleDataEv
khg:_BaseRaycaster_get_sortOrderPriority_m3340181311
Zyb:__ZN11TimeManager8TransferI19StreamedBinaryWriteILb0EEEEvRT_
TKg:_DelegatePInvokeWrapper_ReadDelegate_t3184826381
CYh:__ZL91HashSet_1_t2624254809_CustomAttributesCacheGenerator_HashSet_1_OnDeserialization_m627602129P21CustomAttributesCache
s9h:__ZL112TweenSettingsExtensions_t2285462830_CustomAttributesCacheGenerator_TweenSettingsExtensions_SetOptions_m937094726P21CustomAttributesCache
pvf:_Collection_1_Insert_m2551225232_gshared
vqe:_compare_uni_maps
qve:__ZL34RegisterModuleICalls_TextRenderingv
yEe:__ZN11UnityEngine15PlatformWrapper27GetGraphicsCapsSupportFlagsEv
Fwe:__ZNSt3__218__insertion_sort_3IRPFbPN2UI6CanvasES3_EPS3_EEvT0_S8_T_
aFh:__ZL80Decimal_t724701077_CustomAttributesCacheGenerator_Decimal_op_Explicit_m714968249P21CustomAttributesCache
aXk:_collisionForbbiden_Start_m2545593208
kag:_Decimal_Equals_m1115043331
eHd:__ZN5physx13NpRigidStatic9visualizeERNS_2Cm12RenderOutputEPNS_7NpSceneE
GNb:__ZN12NativeBufferI16Converter_StringE15SetupForWritingER9ArrayInfo
Yxm:___cxa_end_catch__wrapper
zfm:__ZNSt3__210moneypunctIcLb0EED0Ev
Xk:_emscripten_glVertexAttrib3fv
aud:__ZNK5physx22NpParticleBaseTemplateINS_16PxParticleSystemENS_16NpParticleSystemEE13getRestOffsetEv
AJd:__ZN5physx6shdfnd8PoolBaseINS_2Sc35ParticleElementRbElementInteractionENS0_19ReflectionAllocatorIS3_EEE15disposeElementsEv
wlk:_ValueCollection_System_Collections_Generic_ICollectionU3CTValueU3E_Clear_m231380274_gshared
nig:_Entry__ctor_m1176697586
rIg:_BinaryReader_ReadUInt32_m1363572147
qRg:_MonoType_get_Module_m3769241394
MUh:__ZL79Convert_t2607082565_CustomAttributesCacheGenerator_Convert_ToUInt32_m3391339025P21CustomAttributesCache
e0k:_Nullable_1_ToString_m1180746670_gshared
Loj:__Z37RuntimeInvoker_Enumerator_t1147558387PK10MethodInfoPvPS2_
L0a:__ZN13MonoBehaviour22DoScriptRebuildWarningEv
o0k:_Nullable_1_Equals_m1233761477_AdjustorThunk
EYj:_Text_get_verticalOverflow_m3134063496
dOl:__ZN6il2cpp6icalls8mscorlib6System5Array13ClearInternalEP11Il2CppArrayii
z8i:__Z155RuntimeInvoker_Boolean_t3825574718_Vector3_t2243707580_Vector3_t2243707580_RaycastHitU26_t1969197280_Single_t2076509932_Int32_t2071877448_Int32_t2071877448PK10MethodInfoPvPS2_
Np:FUNCTION_TABLE_iiiidfi
Ive:__Z38TextGenerator_Get_Custom_PropLineCountP12Il2CppObject
ARc:__ZN5physx2Gu26EPASupportMapPairLocalImplINS0_9TriangleVENS0_4BoxVEED0Ev
Wlm:_llvm_cttz_i32
Ixh:_PublicKey_DecodeDSA_m1169363495
_Ml:__ZNK15dense_hashtableINSt3__24pairIK10KeyWrapperINS1_IP11Il2CppClassjEEES4_EES6_N6il2cpp8metadata14ArrayClassHashEN14dense_hash_mapIS6_S4_SB_NSA_17ArrayClassCompareENS0_9allocatorIS8_EEE9SelectKeyESD_SF_E12test_deletedEj
Yoc:__ZN11IMGUIModule25GetGUIStyleScriptingClassEv
tte:_tt_get_interface
M$g:_Vector3ArrayPlugin_EvaluateAndApply_m2521440271
Gth:_NameObjectCollectionBase_BaseGet_m667273025
tze:__ZZN2UI14CanvasRenderer15InitializeClassEvEN32FunctorImpl_801kTransformChanged4CallEPviR11MessageData
$Xk:_inherit_Update_m1376680175
bSd:__ZN5physx14PxsAABBManager16processBPResultsERKNS_20PxsComputeAABBParamsE
ixc:__ZN9JSONWrite8TransferI13dynamic_arrayIiLj4EEEEvRT_PKc17TransferMetaFlags
iQd:__ZN5physx23PxsBroadPhaseContextSapD2Ev
Qgf:_List_1_Sort_m4142904707_gshared
T7d:__ZN5physx12SubSortQuickC2EPjPKNS_10PxBounds3VEjf
Lhm:__ZNSt3__2L13utf8_to_utf16EPKhS1_RS1_PtS3_RS3_mNS_12codecvt_modeE
y0:__Z18ConvertUTF16toUTF8PPKtS0_PPhS2_15ConversionFlags
FZl:__ZN6il2cpp2os20PathErrnoToErrorCodeERKNSt3__212basic_stringIcNS1_11char_traitsIcEENS1_9allocatorIcEEEEi
e3j:_TypeLoadException__ctor_m1903359728
zkl:__ZL16my_g_bit_nth_msfj
Tjk:_Transform_1_BeginInvoke_m3014766640_gshared
NTl:__ZN14dense_hash_mapI10KeyWrapperIP12Il2CppObjectEN6il2cpp2gc9CachedCCWENS4_5utils11PointerHashIS1_EENSt3__28equal_toIS3_EENSA_9allocatorINSA_4pairIKS3_S6_EEEEE15set_deleted_keyERSF_
f2a:__Z20DeformSkinnedMeshJobP12SkinMeshInfo
v_e:_KeySizes__ctor_m3526899007
mEg:_Int16_System_IConvertible_ToInt32_m191782913_AdjustorThunk
xUl:__ZN15dense_hashtableINSt3__24pairIK10KeyWrapperIP12Il2CppObjectEN6il2cpp2gc9CachedCCWEEES5_NS7_5utils11PointerHashIS3_EEN14dense_hash_mapIS5_S9_SD_NS0_8equal_toIS5_EENS0_9allocatorISA_EEE9SelectKeyESG_SI_E15insert_noresizeERKSA_
y3h:__ZL69ArgumentCache_t4810721_CustomAttributesCacheGenerator_m_FloatArgumentP21CustomAttributesCache
Mwf:_Collection_1_CopyTo_m1578267616_gshared
scf:_EncoderReplacementFallback__ctor_m2208438262
Ngf:_List_1_RemoveAll_m1032180025_gshared
$rl:__ZN6il2cpp2vm5Class15GetInstanceSizeEPK11Il2CppClass
TGj:_Dictionary_2__ctor_m871840915_gshared
pb:invoke_iiiifiiii
s_j:_UTF7Decoder_GetChars_m2790530452
Hyc:__ZN9rapidjson8internal6u64toaEyPc
$ji:_SoapFieldAttribute_IsInteropXmlElement_m4243409842
wgl:_EventFunction_1_BeginInvoke_m3064802067_gshared
uVh:__ZL67IndexOutOfRangeException_t3527622107_CustomAttributesCacheGeneratorP21CustomAttributesCache
dod:__ZNK5physx2Sc9ClothCore16getRestPositionsEPNS_6PxVec4E
RMd:__ZN5physx20PxcSweepConvexConvexERKNS_11PxsCCDShapeES2_PKNS_12PxsRigidBodyES5_RKNS_11PxTransformES8_S8_S8_fRNS_6PxVec3ESA_RNS_10PxcNpCacheERNS_18PxcNpThreadContextEf
XIg:_Directory_GetFiles_m4036267478
Xcg:_Enum_System_IConvertible_ToType_m2669300536
krd:__ZN5physx15PxsParticleDataD0Ev
VBa:__ZL19BlitFramebufferImplRN4gles23BlitFramebufferDrawQuadER9GfxDevice9TextureIDRK8Vector4f
uJb:__Z18Transfer_BlittableI17RemapPPtrTransferLb0EhEvRK29SerializationCommandArgumentsR31RuntimeSerializationCommandInfo
K5d:__ZN5physx6shdfnd5ArrayIPvNS0_19ReflectionAllocatorIN17PxcPoolMallocData9PoolData8EEEE15growAndPushBackERKS2_
zTi:__Z44RuntimeInvoker_Byte_t3683104436_Il2CppObjectPK10MethodInfoPvPS2_
IHf:_ReadOnlyCollection_1_System_Collections_IList_Add_m2333231354_gshared
XTh:__ZL78Convert_t2607082565_CustomAttributesCacheGenerator_Convert_ToSByte_m2470292806P21CustomAttributesCache
XJe:__ZN18VirtActionInvoker1IP25TweenerCore_3_t1635203449E6InvokeEjPvS1_
uje:_UNITY_FT_List_Add
QNi:_OpCodes__cctor_m939885911
m1b:__ZN14Texture2DArray11InitTextureEiii13TextureFormatb
j6h:__ZL108ShortcutExtensions_t3524050470_CustomAttributesCacheGenerator_ShortcutExtensions_DOShakePosition_m2989795727P21CustomAttributesCache
Zhh:_PKCS1_RSASP1_m1748738009
$ni:_ObjectReader_ReadPrimitiveTypeValue_m3808038676
v_g:_PathPlugin__ctor_m4017481171
_8d:__ZN5physx15PxGeometryQuery14getWorldBoundsERKNS_10PxGeometryERKNS_11PxTransformEf
Vph:_RSASslSignatureDeformatter_SetHashAlgorithm_m4048969080
spd:__ZN5physx2Sc9ClothCore18setSolverFrequencyEf
wsk:_UriParser_InitializeAndValidate_m251943319
zmc:__Z26Object_Set_Custom_PropNameP12Il2CppObjectP12Il2CppString
l3e:_SymmetricAlgorithm_set_Padding_m3081984460
w7h:__ZL68U3CU3Ec__DisplayClass23_0_t1142366522_CustomAttributesCacheGeneratorP21CustomAttributesCache
Gyb:__ZN9InputAxis8TransferI18StreamedBinaryReadILb0EEEEvRT_
e4d:__ZN5physx2Gu11HeightField8requiresERNS_23PxProcessPxBaseCallbackE
GPh:__ZL91X509Certificate_t283079845_CustomAttributesCacheGenerator_X509Certificate_Reset_m1676863543P21CustomAttributesCache
NMc:__ZN5physx2Gu16buildPartialHullERKNS0_13PolygonalDataEPNS0_12SupportLocalERNS0_14SeparatingAxesERKNS_6shdfnd3aos5Vec3VESC_
$Wf:_ArrayList_RemoveAt_m2578928333
UFb:__Z18Transfer_BlittableI14SafeBinaryReadLb0EaEvRK29SerializationCommandArgumentsR31RuntimeSerializationCommandInfo
OGf:_ReadOnlyCollection_1_System_Collections_IList_set_Item_m1233322304_gshared
OSk:_GeneralNames_get_DNSNames_m2721668874
Ncg:_Enum_System_IConvertible_ToByte_m38374586
wGf:_ReadOnlyCollection_1_System_Collections_Generic_IListU3CTU3E_RemoveAt_m1592158292_gshared
Krm:_emscripten_glFrustum__wrapper
Zvi:_TweenerCore_3_Reset_m3599961708_gshared
q8c:__ZNK5physx2Sc16ArticulationCore17releaseDriveCacheERNS_9PxcFsDataE
Iph:_ReceiveRecordAsyncResult_get_CompletedWithError_m2670396551
X9f:_Decimal_Equals_m1798565377
khb:__ZN17GlobalGameManager8TransferI24GenerateTypeTreeTransferEEvRT_
CYc:__ZN5physx11NpAggregate7releaseEv
Uei:__ZL66InputField_t1631627530_CustomAttributesCacheGenerator_m_CaretColorP21CustomAttributesCache
yKi:_TypeBuilder_check_created_m2929267877
sDa:__ZN15TextureTFMethod20IsBoneCountSupportedEi
Bsj:_GUISkin_set_horizontalScrollbarThumb_m2119687595
xki:_ObjRef__ctor_m1486312270
n4f:_Convert_ToInt16_m416789348
Y6f:_DateTime_System_IConvertible_ToSByte_m2575078084_AdjustorThunk
IJb:__Z22TransferField_NonArrayI17RemapPPtrTransfer27Converter_SimpleNativeClassI8GUIStyleEEvRK23StaticTransferFieldInfoR31RuntimeSerializationCommandInfoRT0_
Cuk:_AnimatorStateInfo_IsTag_m1529621725_AdjustorThunk
Tjd:__ZN5physx7NpShape12setMaterialsEPKPNS_10PxMaterialEt
a$g:_StringPlugin_Append_m915403987
L$b:__ZNK17AnimationCurveTplIfE20EvaluateWithoutCacheEfRf
EYl:__ZN6il2cpp2os6Thread12QueueUserAPCEPFvPvES2_
ubd:__ZNK5physx18NpArticulationLink13isSubordinateEv
VOe:_Array_InternalArray__IEnumerable_GetEnumerator_TisDictionaryEntry_t3048875398_m3498834924_gshared
jvj:_GUIStyleState__ctor_m3611888666
cJe:_PluginsManager_GetDefaultPlugin_TisVector3_t2243707580_TisIl2CppObject_TisVector3ArrayOptions_t2672570171_m2435821725_gshared
xyf:_Collection_1_IsValidItem_m1304951912_gshared
R6b:__ZN4Mesh10SetNormalsEPK8Vector3fj
B_g:_QuaternionPlugin_GetSpeedBasedDuration_m1629956606
CJc:__Z66Register_UnityEngine_Physics2D_INTERNAL_CALL_GetRayIntersectionAllv
g3f:_Convert_ToDateTime_m4161927553
h5i:__Z76RuntimeInvoker_Void_t1841601450_RegexOptionsU26_t3063574985_SByte_t454417549PK10MethodInfoPvPS2_
Bxj:_Material_SetTextureScale_m1622979841
EKi:_TypeBuilder_GetConstructors_m774120094
LZg:_PathOptions_t2659884781_marshal_pinvoke_back
fGj:_Dictionary_2_System_Collections_IDictionary_Contains_m3937948050_gshared
lu:__ZN17AnimationCurveTplIfE8TransferI14SafeBinaryReadEEvRT_
DPl:__ZN6il2cpp6icalls8mscorlib6System4Type15MakeGenericTypeEP20Il2CppReflectionTypeP11Il2CppArray
eim:__ZNKSt3__28numpunctIcE16do_thousands_sepEv
v7h:__ZL68U3CU3Ec__DisplayClass22_0_t2728653439_CustomAttributesCacheGeneratorP21CustomAttributesCache
sWc:__ZN5physx2Gu9RadixSortD2Ev
weg:_Calendar_get_EraNames_m452820602
Bqb:__ZNSt3__26vectorIN15QualitySettings14QualitySettingENS_9allocatorIS2_EEE6assignIPS2_EENS_9enable_ifIXaasr21__is_forward_iteratorIT_EE5valuesr16is_constructibleIS2_NS_15iterator_traitsIS9_E9referenceEEE5valueEvE4typeES9_S9_
GUg:_U3CU3Ec__cctor_m933983471
zJd:__ZN5physx6shdfnd8PoolBaseINS_2Sc10NPhaseCore16ClothListElementENS0_19ReflectionAllocatorIS4_EEE15disposeElementsEv
pUc:__Z15raycast_capsuleRKN5physx10PxGeometryERKNS_11PxTransformERKNS_6PxVec3ES8_fNS_7PxFlagsINS_9PxHitFlag4EnumEtEEjPNS_12PxRaycastHitEbPFbRSD_PvESG_
iSa:__ZNK19ShaderPropertySheet11HasPropertyERKN9ShaderLab16FastPropertyNameE
iEa:__ZN14DrawBufferGLESI12VertexBuffer27VertexBufferUsageMapperGLESE8EndWriteEj
J6f:_DateTime_System_IConvertible_ToByte_m2670443498_AdjustorThunk
bqd:__ZNK5physx15NpActorTemplateINS_15PxParticleFluidEE14getOwnerClientEv
hZk:_placeNPC_Start_m601476537
C_k:_Nullable_1_Equals_m343412015_gshared
Tdi:__ZL58FontData_t2614388407_CustomAttributesCacheGenerator_m_FontP21CustomAttributesCache
ABl:_il2cpp_class_get_image
A4:__Z16AsyncReadRequestP16AsyncReadCommand
BWh:__ZL81BigInteger_t925946153_CustomAttributesCacheGenerator_BigInteger__ctor_m4013661868P21CustomAttributesCache
U_d:__ZNK5physx34PxsSolverConstraintPostProcessTask7getNameEv
S1g:_ShortcutExtensions_DOPath_m1769930933
wej:__Z110RuntimeInvoker_Boolean_t3825574718_Vector2_t2243707579_Vector2_t2243707579_Single_t2076509932_SByte_t454417549PK10MethodInfoPvPS2_
XNc:__ZN5physx2Gu23distancePointBoxSquaredERKNS_6PxVec3ES3_S3_RKNS_7PxMat33EPS1_
pde:__ZN5physx9NpPhysics20MeshDeletionListener28onGuMeshFactoryBufferReleaseEPKNS_6PxBaseEtb
txf:_Collection_1_System_Collections_IList_set_Item_m3488446830_gshared
bLi:_EnumBuilder_CreateNotSupportedException_m62763134
wCe:__Z24GetUnityAnalyticsManagerv
O$e:_RijndaelManagedTransform_TransformBlock_m2558865851
Rxf:_Collection_1_System_Collections_Generic_ICollectionU3CTU3E_get_IsReadOnly_m4096071066_gshared
wyb:__ZN9InputAxis8TransferI14SafeBinaryReadEEvRT_
G1:__ZNK21ExecutionOrderManager30GetCustomAwakeFromLoadQueueForEPKN5Unity4TypeE
nBd:__ZNK5physx7NpScene9getActorsENS_7PxFlagsINS_15PxActorTypeFlag4EnumEtEEPPNS_7PxActorEjj
wHe:__Z27RegisterModule_UnityConnectv
H_f:_Hashtable__ctor_m4280223555
$sd:__ZN5physx15PxParticleFluidD0Ev
eJd:__ZN5physx11NodeManagerD0Ev
L0j:_Scheduler_Remove_m1930366072
mwk:_Bounds_get_size_m1728027642_AdjustorThunk
mli:_RealProxy__ctor_m3041043303
IAg:_NumberFormatter_Init_m2654758994
eZc:__ZNK5physx2Sc8BodyCore6getSimEv
rjm:__ZNSt3__214__split_bufferIPNS_6locale5facetERNS_15__sso_allocatorIS3_Lj28EEEEC2EjjS6_
dee:__ZNK5physx2Gu15HeightFieldUtil18getVertexFaceIndexEjjj
Ycl:_Transform_Rotate_m2449860094
WTl:__ZN15dense_hashtableINSt3__24pairIK10KeyWrapperIP12Il2CppObjectEN6il2cpp2gc9CachedCCWEEES5_NS7_5utils11PointerHashIS3_EEN14dense_hash_mapIS5_S9_SD_NS0_8equal_toIS5_EENS0_9allocatorISA_EEE9SelectKeyESG_SI_E8min_sizeEjj
RK:__ZN10ObjectPoolIN4FMOD12ChannelGroupENS0_13ChannelGroupIEE7SetSizeEi
R6g:_PrimalityTest_BeginInvoke_m966469054
F_k:_Nullable_1_Equals_m3712328580_AdjustorThunk
RKf:_ReadOnlyCollection_1_System_Collections_Generic_ICollectionU3CTU3E_Clear_m1785953911_gshared
dDc:__ZNSt3__26__sortIR26ColliderIdentityComparitorPP10Collider2DEEvT0_S6_T_
h6j:_UInt64_System_IConvertible_ToInt16_m2797150165_AdjustorThunk
lKj:_DefaultComparer__ctor_m2036092614_gshared
hRk:_Array_InternalArray__get_Item_TisLabelData_t3712112744_m863115768_gshared
SFg:_Int32_Parse_m753946802
Nxj:_Material_DisableKeyword_m1204728089
yV:__Z22ValidateTlsfAllocationPvjiS_
Aca:__ZN18StreamedBinaryReadILb1EE21TransferSTLStyleArrayINSt3__212basic_stringIcNS2_11char_traitsIcEE13stl_allocatorIcL18MemLabelIdentifier1ELi16EEEEEEvRT_17TransferMetaFlags
Zid:__ZN5physx2Cm12RefCountable14onRefCountZeroEv
osf:_List_1_RemoveAt_m2331128844_gshared
tOi:_UnmanagedMarshal_ToMarshalAsAttribute_m3695569337
nmd:__ZNK5physx7NpCloth25getMotionConstraintConfigEv
cIb:__Z14resize_trimmedINSt3__26vectorI17AnimationCurveTplIfE13stl_allocatorIS3_L18MemLabelIdentifier1ELi16EEEEEvRT_j
Dcb:__Z12GUIDToStringRK9UnityGUID
Xyg:_LayoutElement_get_minHeight_m2070403283
wVl:__ZN6il2cpp6icalls8mscorlib6System4Enum12get_hashcodeEP12Il2CppObject
_G:__ZN11SoundHandleC2ERKS_
WQj:_Mask_OnEnable_m501850981
Nuc:__ZN8JSONRead21TransferSTLStyleArrayI13dynamic_arrayI10ColorRGBAfLj4EEEEvRT_18MemLabelIdentifier17TransferMetaFlags
Jxk:_Canvas_get_targetDisplay_m316548313
mMi:_GenericTypeParameterBuilder_GetGenericTypeDefinition_m2936287336
zAd:__ZThn8_N5physx2Sc24ElementInteractionMarker7destroyEv
xYb:__ZN12ScriptMapper23VirtualRedirectTransferER18StreamedBinaryReadILb1EE
Cu:__ZN11Quaternionf8TransferI18StreamedBinaryReadILb1EEEEvRT_
$4a:__Z29StdTemplateConversionFunctionItxEbPvR14SafeBinaryRead
TKk:_FormatterData__ctor_m3974986124
_Jh:__ZL64FileNotFoundException_t4200667904_CustomAttributesCacheGeneratorP21CustomAttributesCache
yFk:_CustomAnimationPlayable_SetInputs_m1393448423
M$e:_RijndaelManagedTransform_get_CanReuseTransform_m3735256596
fWc:__ZN5physx3Cct26CharacterControllerManager24setOverlapRecoveryModuleEb
d_f:_Comparer__cctor_m1327316974
SIg:_MonoIO_ExistsFile_m1421941572
g8f:_DateTime_op_GreaterThanOrEqual_m3818963848
Fra:__ZNSt3__26__treeINS_12__value_typeI18VertexChannelsInfoP17VertexDeclarationEENS_19__map_value_compareIS2_S5_NS_4lessIS2_EELb1EEE13stl_allocatorIS5_L18MemLabelIdentifier14ELi16EEE12__find_equalIS2_EERPNS_16__tree_node_baseIPvEENS_21__tree_const_iteratorIS5_PNS_11__tree_nodeIS5_SG_EEiEESJ_RKT_
rF:__ZNSt3__212basic_stringIcNS_11char_traitsIcEE13stl_allocatorIcL18MemLabelIdentifier66ELi16EEE6resizeEjc
Lpg:_DefaultControls_SetDefaultTextValues_m1707718380
Jlg:_TouchInputModule_UseFakeInput_m2112019004
Dhg:_EventSystem_get_baseEventDataCache_m4294741599
Elm:___cxa_guard_release
jjb:__ZN14RenderSettings18TransferDeprecatedI14SafeBinaryReadEEvRT_
LPc:__ZN24ConvexVsHeightfieldSweepD0Ev
I_k:_Nullable_1_GetValueOrDefault_m267509806_gshared
Ddh:__ZN6il2cpp2vm13ComObjectBaseI34__Il2CppComDelegate_t3311706788CCW18Il2CppIInspectableNS0_7details6ComNilES5_S5_S5_S5_S5_S5_ED2Ev
LCl:__ZN16VirtFuncInvoker2IP12Il2CppObjectS1_P24ObjectU5BU5D_t3614634134E6InvokeEjPvS1_S3_
cY:__ZN12TLSAllocatorI14StackAllocatorE8AllocateEji
J2:__ZN16ScriptingManager18GetMonoScriptCacheEi
pqj:_GUIStyle_get_stretchHeight_m3396762700
L1g:_ShortcutExtensions_DOShakePosition_m2989795727
HIa:__ZN20ArchiveStorageHeader13GetDataOffsetERKNS_6HeaderE
evl:__ZN13dynamic_arrayIPK10Il2CppTypeLj4EEC2ERKS3_
nxj:_Material_INTERNAL_CALL_SetColor_m1364511001
jYk:_line_w3_Start_m2127884412
y7h:__ZL68U3CU3Ec__DisplayClass25_0_t1989341528_CustomAttributesCacheGeneratorP21CustomAttributesCache
Ybj:__Z180RuntimeInvoker_Il2CppObject_Il2CppObject_Il2CppObject_Single_t2076509932_Vector3_t2243707580_Int32_t2071877448_Single_t2076509932_SByte_t454417549_SByte_t454417549_SByte_t454417549PK10MethodInfoPvPS2_
_tg:_GridLayoutGroup_CalculateLayoutInputHorizontal_m2355123124
zYh:__ZL84Locale_t4255929017_CustomAttributesCacheGenerator_Locale_GetText_m512920887____args1P21CustomAttributesCache
XUg:_U3CU3Ec_U3CToEaseFunctionU3Eb__4_15_m3125458084
pHb:__Z18Transfer_BlittableI14SafeBinaryReadLb1EyEvRK29SerializationCommandArgumentsR31RuntimeSerializationCommandInfo
Usc:__ZN8JSONRead8TransferIfEEvRT_PKc17TransferMetaFlagsb
P$h:__ZL105Physics_t634932869_CustomAttributesCacheGenerator_Physics_Raycast_m3475924638____queryTriggerInteraction4P21CustomAttributesCache
AAi:_U3CGetEnumeratorU3Ec__Iterator0_Reset_m2980566576_gshared
RAk:_Coroutine__ctor_m1253937571
LJe:_Tweener_DoChangeEndValue_TisQuaternion_t4030073918_TisVector3_t2243707580_TisQuaternionOptions_t466049668_m1306253797_gshared
JLf:_ReadOnlyCollection_1_System_Collections_ICollection_get_IsSynchronized_m4063596282_gshared
dkm:__ZNSt3__212basic_stringIcNS_11char_traitsIcEENS_9allocatorIcEEE6appendEPKcj
SKh:__ZL54TypeBuilder_t3308873219_CustomAttributesCacheGeneratorP21CustomAttributesCache
_md:__ZN5physx7NpCloth25setSelfCollisionStiffnessEf
xMd:__ZZN5physx28PxcSweepEstimateAnyShapeMeshERKNS_11PxsCCDShapeES2_PKNS_12PxsRigidBodyES5_RKNS_11PxTransformES8_fEN2CBD0Ev
Zzf:_Collection_1_CheckWritable_m691269733_gshared
FLi:_GenericTypeParameterBuilder_GetAttributeFlagsImpl_m3338182267
eQ:__ZN13Simd4iFactoryIN6detail9FourTupleEEC2Eiiii
uNg:_SynchronizedReader__ctor_m1408327515
UVk:_X509Store_LoadCrl_m1146720614
yY:__ZL41FileEntryInfoListToFolderContentsAbsoluteRK13dynamic_arrayI13FileEntryInfoLj8EERNSt3__23setINS4_12basic_stringIcNS4_11char_traitsIcEENS4_9allocatorIcEEEENS4_4lessISB_EENS9_ISB_EEEE
Wnj:__Z54RuntimeInvoker_KeyValuePair_2_t3716250094_Il2CppObjectPK10MethodInfoPvPS2_
JMf:_ReadOnlyCollection_1_System_Collections_IList_Clear_m1858417639_gshared
WDc:__ZN10Collider2D14FinalizeCreateERK10Matrix4x4fR12b2FixtureDefP6b2BodyPK13dynamic_arrayIP7b2ShapeLj4EE
$La:__ZZ23InitPlayerLoopCallbacksvEN38PostLateUpdateShaderHandleErrorsstruct7ForwardEv
inb:__ZN15SerializeTraitsI33EnlightenTerrainChunksInformationE8TransferI14SafeBinaryReadEEvRS0_RT_
px:__ZN7mecanim9animation16MotionOutputCopyEPNS0_12MotionOutputEPKS1_bbRKNS_6bitsetILj66EEE
Pgd:__ZN5physx2Sc14ConstraintCoreD2Ev
SGc:__ZN6b2Body12SetTransformERK6b2Vec2f
Z1b:__ZNK32RendererMaterialAnimationBinding9BindValueER6ObjectRKN11UnityEngine9Animation14GenericBindingERNS3_10BoundCurveE
uLe:_Tweener_DOStartupSpecials_TisDouble_t4078015681_TisDouble_t4078015681_TisNoOptions_t2508431845_m1591261352_gshared
MYi:__Z112RuntimeInvoker_Int32_t2071877448_Il2CppObject_Int32_t2071877448_Int32_t2071877448_Il2CppObject_Int32_t2071877448PK10MethodInfoPvPS2_
Ndd:__ZN5physx15NpActorTemplateINS_18PxArticulationLinkEE13setActorFlagsENS_7PxFlagsINS_11PxActorFlag4EnumEtEE
P2a:__Z13GetIAnimationv
loa:__ZL18stbir__support_onef
s5d:__ZN5physx6shdfnd8internal8HashBaseIPNS_11PxAggregateES4_NS0_4HashIS4_EENS1_11HashSetBaseIS4_S6_NS0_9AllocatorELb0EE6GetKeyES8_Lb0EE15reserveInternalEj
akf:_List_1_System_Collections_IList_Remove_m2040310137_gshared
amk:_Match_get_Regex_m3526002767
kKh:__ZL49Stream_t3255436806_CustomAttributesCacheGeneratorP21CustomAttributesCache
ovc:__Z26Transfer_UnityEngineObjectI9JSONWriteLb0EEvRK29SerializationCommandArgumentsR31RuntimeSerializationCommandInfo
wcf:_EncoderReplacementFallback_CreateFallbackBuffer_m3579126537
o5j:_UInt32_System_IConvertible_ToInt16_m2251335934_AdjustorThunk
Cxe:__ZNSt3__27__sort5IRNS_6__lessIN2UI14DepthSortEntryES3_EEPS3_EEjT0_S7_S7_S7_S7_T_
nTi:__Z31RuntimeInvoker_Void_t1841601450PK10MethodInfoPvPS2_
Azi:_TweenerCore_3_UpdateDelay_m283403338_gshared
$ie:_UNITY_FT_DivFix
EFl:__ZN24dense_hashtable_iteratorINSt3__24pairIK10KeyWrapperINS1_IPK10MethodInfoP11Il2CppClassEEEjEES9_17ReflectionMapHashIS8_EN14dense_hash_mapIS9_jSD_19ReflectionMapEqualsIS8_ENS0_9allocatorISB_EEE9SelectKeyESG_SI_E30advance_past_empty_and_deletedEv
A1g:_ShortcutExtensions_DOLocalRotateQuaternion_m176125184
SYg:_DoublePlugin_Reset_m4097767476
Ua:invoke_vdd
Op:FUNCTION_TABLE_fiii
Fak:_InternalEnumerator_1_Dispose_m3838127340_AdjustorThunk
taj:__Z36RuntimeInvoker_FontStyle_t2764949590PK10MethodInfoPvPS2_
ocg:_Double_System_IConvertible_ToUInt32_m624993430
Sp:FUNCTION_TABLE_fiif
Nbi:__ZL89PointerEventData_t1599784723_CustomAttributesCacheGenerator_U3CdraggingU3Ek__BackingFieldP21CustomAttributesCache
x0b:__ZNK30SpriteRendererAnimationBinding12GetPPtrValueERKN11UnityEngine9Animation10BoundCurveE
nem:__ZNKSt3__220__time_get_c_storageIcE7__am_pmEv
J0j:_Scheduler_Add_m376749205
_Ui:__Z98RuntimeInvoker_Void_t1841601450_Int32_t2071877448_Il2CppObject_Int32_t2071877448_Int32_t2071877448PK10MethodInfoPvPS2_
eJh:__ZL53SortedList_t3004938869_CustomAttributesCacheGeneratorP21CustomAttributesCache
m5l:__ZN6il2cpp6icalls8mscorlib4Mono8Security12Cryptography18KeyPairPersistence19_IsMachineProtectedEP12Il2CppString
G8h:__ZL112TweenSettingsExtensions_t2285462830_CustomAttributesCacheGenerator_TweenSettingsExtensions_SetTarget_m3090362739P21CustomAttributesCache
o$g:_UintPlugin_EvaluateAndApply_m3628556239
BAk:_ContactPoint2D_t3659330976_marshal_pinvoke_cleanup
a1b:__Z14RandomRotationP9Texture2DPhiiii
Nie:_UNITY_FT_Bitmap_New
h9j:_InternalEnumerator_1_MoveNext_m1594563423_AdjustorThunk
$be:__ZThn132_N5physx7profile8ZoneImplINS_28PxProfileNameProviderForwardEED1Ev
MJb:__Z65EmitSerializationCommandsForLinearCollectionOfManagedObjectsFieldI17RemapPPtrTransferEvRK23TransferArrayField_InfoR20SerializationCommandR32SerializationCommandQueueBuilderRP20AllowNameConversions
Khj:__Z76RuntimeInvoker_Boolean_t3825574718_DirectionU26_t743901654_Int32_t2071877448PK10MethodInfoPvPS2_
loi:__ZN16VirtFuncInvoker0ItE6InvokeEjPv
vZi:__Z35RuntimeInvoker_TimeSpan_t3430258949PK10MethodInfoPvPS2_
Jul:__ZN15dense_hashtableI10KeyWrapperIPK19Il2CppGenericMethodES4_N6il2cpp8metadata23Il2CppGenericMethodHashEN14dense_hash_setIS4_S7_NS6_26Il2CppGenericMethodCompareENSt3__29allocatorIS4_EEE8IdentityES9_SC_E8min_sizeEjj
Ppf:_List_1_System_Collections_IList_Insert_m2036969360_gshared
E_g:_RectOffsetPlugin_Reset_m4095272056
xxg:_InputField_GetUnclampedCharacterLineFromPosition_m1912794077
s5h:__ZL100ShortcutExtensions_t3524050470_CustomAttributesCacheGenerator_ShortcutExtensions_DOColor_m1029787631P21CustomAttributesCache
K9k:_SpaceAttribute__ctor_m1444406696
aai:__ZL148U3CWaitForCompletionU3Ed__13_t639731943_CustomAttributesCacheGenerator_U3CWaitForCompletionU3Ed__13_System_Collections_IEnumerator_Reset_m1970706518P21CustomAttributesCache
MBd:__ZN5physx7NpScene27setCCDContactModifyCallbackEPNS_26PxCCDContactModifyCallbackE
_3l:__ZN6il2cpp2os12Cryptography23GetCryptographyProviderEv
qKg:_ReadDelegate__ctor_m885671467
v6d:__ZNK5physx17ConvexHullBuilder17ComputeGeomCenterERNS_6PxVec3E
F8f:_DateTimeOffset_ToString_m2121173678_AdjustorThunk
YWh:__ZL50X509Crl_t1699034837_CustomAttributesCacheGeneratorP21CustomAttributesCache
KQd:__ZN3MBPD0Ev
pU:__ZNK13EmscriptenWWW14GetPartialDataEv
vym:_glDeleteProgram__wrapper
rdc:__Z50Register_UnityEngine_Camera_INTERNAL_get_pixelRectv
Eka:__ZN19RuntimeSceneManager14LoadSceneAsyncERK8UnityStrS2_S2_RK9UnityGUIDiNS_11LoadingModeEbRP10UnityScene
Ihj:__Z53RuntimeInvoker_UIVertex_t1204258818_Int32_t2071877448PK10MethodInfoPvPS2_
mzk:_Color_GetHashCode_m3182525367
Wia:__ZN6prcoreL18BlitFloatToIntegerERK14ImageReferenceRS0_
kmj:__Z57RuntimeInvoker_KeyValuePair_2_t38854645_Int32_t2071877448PK10MethodInfoPvPS2_
uch:_X509CertificateCollection_get_Item_m410866272
wqj:_Rect_get_yMax_m2915146103
tHl:__ZN30dense_hashtable_const_iteratorINSt3__24pairIK10KeyWrapperINS1_IPK9EventInfoP11Il2CppClassEEEjEES9_17ReflectionMapHashIS8_EN14dense_hash_mapIS9_jSD_19ReflectionMapEqualsIS8_ENS0_9allocatorISB_EEE9SelectKeyESG_SI_EppEv
oUg:_U3CWaitForStartU3Ed__18_System_Collections_IEnumerator_get_Current_m1804430085
TEd:__ZNK5physx10PxsContext18getBounceThresholdEv
bhm:__ZNSt3__217__widen_from_utf8ILj32EED0Ev
iHc:__ZN7b2Timer5ResetEv
SS:__ZN11UnityEngine15CloudWebService14RestDownloader17OnCompleteContentEv
sug:_LayoutGroup_SetChildAlongAxis_m1615929339
Vzd:__ZN5physx6shdfnd5ArrayIPvNS0_15InlineAllocatorILj256ENS0_19ReflectionAllocatorINS_2Gu31SpherePersistentContactManifoldEEEEEE15growAndPushBackERKS2_
a1d:__ZN5physx2Cm18DelegateFanoutTaskINS_2Sc5SceneEXadL_ZNS3_17finalizationPhaseEPNS_10PxBaseTaskEEEE11runInternalEv
adj:__Z102RuntimeInvoker_Boolean_t3825574718_Il2CppObject_Single_t2076509932_Int32_t2071877448_Int32_t2071877448PK10MethodInfoPvPS2_
xZl:__ZNK15dense_hashtableINSt3__24pairIK10KeyWrapperIPK19Il2CppGenericMethodEP10MethodInfoEES6_N6il2cpp8metadata23Il2CppGenericMethodHashEN14dense_hash_mapIS6_S9_SD_NSC_26Il2CppGenericMethodCompareENS0_9allocatorISA_EEE9SelectKeyESF_SH_E13find_positionERS7_
Nsf:_List_1_System_Collections_ICollection_get_SyncRoot_m1429670979_gshared
rb:invoke_vifff
hfc:__Z41Register_UnityEngine_GameObject_set_layerv
kUf:_Byte_System_IConvertible_ToInt16_m1575115635_AdjustorThunk
_qd:__ZN5physx15NpParticleFluid15exportExtraDataERNS_22PxSerializationContextE
Ywm:_glGetVertexAttribiv__wrapper
Hcd:__ZN5physx6shdfnd15atomicDecrementEPVi
zg:_emscripten_request_fullscreen
W0d:__ZN5physx2Cm12DelegateTaskINS_2Sc5SceneEXadL_ZNS3_11postCCDPassEPNS_10PxBaseTaskEEEED0Ev
JCj:_Rect_get_xMin_m1161102488
jX:__ZN20LocalFileSystemWebGL6DeleteER13FileEntryDatab
J9f:_Decimal_System_IConvertible_ToUInt16_m1621568250
Bg:_emscripten_glDisableVertexAttribArray
s$h:__ZL79Object_t1021602117_CustomAttributesCacheGenerator_Object_Instantiate_m938141395P21CustomAttributesCache
Hp:FUNCTION_TABLE_iiiifiiii
E1j:_TimeSpan_get_TotalMinutes_m1645177229_AdjustorThunk
Zui:_DOSetter_1_BeginInvoke_m3656965161_gshared
xd:invoke_fifffi
FJ:__ZN4FMOD5Sound15getNumSubSoundsEPi
_xa:__ZN4gles23ClearCurrentFramebufferEP7ApiGLESbbbRK10ColorRGBAffi
ny:__ZN7mecanim12statemachine20CreateStateWorkspaceEjjjRNS_6memory9AllocatorE
cbb:__ZN15dense_hashtableINSt3__24pairIKNS0_12basic_stringIcNS0_11char_traitsIcEENS0_9allocatorIcEEEES7_EES7_11djb2_hash_tIS7_EN14dense_hash_mapIS7_S7_SB_NS0_8equal_toIS7_EE13stl_allocatorIS9_L18MemLabelIdentifier54ELi16EEE9SelectKeyESE_SH_E5clearEv
l6i:__Z34RuntimeInvoker_Vector3_t2243707580PK10MethodInfoPvPS2_
b6d:__ZN5physx2Gu11HeightField13releaseMemoryEb
Mg:_emscripten_glDeleteObjectARB
Hh:_IMG_Load
tOg:_UnexceptionalStreamReader_Read_m3839775235
lka:__ZN6prcoreL27StretchGenericFloatBilinearI18TexFormatARGBFloatEEvPKNS_9InnerInfoE
eHa:__ZN10FileSystem25MountDataFolderFileSystemERKNSt3__212basic_stringIcNS0_11char_traitsIcEENS0_9allocatorIcEEEES8_
klc:__Z53Register_UnityEngine_RenderTexture_Internal_GetHeightv
Bli:_RealProxy_SetTargetDomain_m3940877656
Xja:__ZN6prcoreL17RemapGenericFloatI17TexFormatRGBAHalf18TexFormatARGBFloatEEvPKNS_9InnerInfoE
Tcg:_Enum_System_IConvertible_ToInt32_m2459904362
Aoc:__ZNK8GUIStyle21DrawWithTextSelectionER8GUIStateRK5RectTIfER10GUIContentbbbbbiiRK10ColorRGBAfSA_
T2g:_U3CU3Ec__DisplayClass17_0_U3CDOColorU3Eb__0_m877794578
u9b:__ZN10systeminfo21SupportsAccelerometerEv
Ooc:__Z14GetBuiltinSkini
dcf:_DecoderReplacementFallbackBuffer_Reset_m2576819665
WEk:_CustomAnimationPlayable_GetOutput_m2109551724
q$f:_Enumerator__cctor_m298562758
OPj:_Enumerator_System_Collections_IEnumerator_Reset_m2573763156_gshared
FQg:_MonoType_GetConstructors_internal_m2709619723
l6e:_WindowsIdentity_Dispose_m2649088337
irb:__ZN2UI13RectTransform23VirtualRedirectTransferER14SafeBinaryRead
J1j:_TimeSpan_CompareTo_m2891128664
vCd:__ZN5physx7NpScene17flushQueryUpdatesEv
Z5:__ZNSt3__26__treeINS_12__value_typeINS_12basic_stringIcNS_11char_traitsIcEENS_9allocatorIcEEEES7_EENS_19__map_value_compareIS7_S8_NS_4lessIS7_EELb1EEE13stl_allocatorIS8_L18MemLabelIdentifier12ELi16EEE7destroyEPNS_11__tree_nodeIS8_PvEE
ixf:_Collection_1_System_Collections_IList_Contains_m323652826_gshared
lhf:_List_1_System_Collections_ICollection_get_SyncRoot_m3733894943_gshared
znf:_List_1_Reverse_m302978607_gshared
FO:__ZZL31InitializeAudioManagerCallbacksvEN33FixedUpdateAudioFixedUpdatestruct7ForwardEv
$Vb:__ZN24GenerateTypeTreeTransfer8TransferINSt3__23mapI8UnityStriNS1_4lessIS3_EENS1_9allocatorINS1_4pairIKS3_iEEEEEEEEvRT_PKc17TransferMetaFlags
jVb:__ZNSt3__26vectorIN9ShaderLab20SerializedSubProgramENS_9allocatorIS2_EEE6assignIPS2_EENS_9enable_ifIXaasr21__is_forward_iteratorIT_EE5valuesr16is_constructibleIS2_NS_15iterator_traitsIS9_E9referenceEEE5valueEvE4typeES9_S9_
Esc:__Z18Transfer_BlittableI8JSONReadLb0E8BitFieldEvRK29SerializationCommandArgumentsR31RuntimeSerializationCommandInfo
Cmi:_SoapServices_RegisterInteropXmlType_m2949236705
uof:_List_1_Remove_m1211693753_gshared
b4a:__ZN17PersistentManagerC2Eii
XPb:__ZL17Transfer_GUIStyleI18StreamedBinaryReadILb1EELb0EEvRK29SerializationCommandArgumentsR31RuntimeSerializationCommandInfo
Uaf:_String_CharCopy_m2550399897
BZb:__ZN11TypeManager20RegisterNonClassTypeEiP4RTTIPKcS3_
NCd:__ZN5physx7NpScene10unlockReadEv
JUb:__ZN9ShaderLab21SerializedBindChannel8TransferI14SafeBinaryReadEEvRT_
BTb:__ZN9ShaderLab14SerializedPass8TransferI14SafeBinaryReadEEvRT_
Gpc:__Z71Register_UnityEngine_GUILayoutUtility_INTERNAL_CALL_Internal_MoveWindowv
yO:__ZN12AudioManager16SetListenerPauseEb
vfm:__ZNKSt3__28time_putIwNS_19ostreambuf_iteratorIwNS_11char_traitsIwEEEEE6do_putES4_RNS_8ios_baseEwPK2tmcc
X_k:_Nullable_1_GetValueOrDefault_m3459654167_gshared
Lxf:_Collection_1_IsValidItem_m2254106115_gshared
PKi:_TypeBuilder_GetEvent_m3876348075
LXj:_Slider_OnMove_m641164662
fa:invoke_viiiiiiiiiii
r7l:___syscall_ret
M0j:_Scheduler__ctor_m3716265742
v9g:_MACAlgorithm_Final_m4076939925
Io:FUNCTION_TABLE_iiifffi
sKl:__ZNSt3__212basic_stringIcNS_11char_traitsIcEENS_9allocatorIcEEE6assignINS_11__wrap_iterIPKcEEEENS_9enable_ifIXaasr21__is_forward_iteratorIT_EE5valuesr38__libcpp_string_gets_noexcept_iteratorISC_EE5valueERS5_E4typeESC_SC_
gDe:__Z56Register_UnityEngine_Analytics_CustomEventData_AddDoublev
vwb:__ZN11ChannelInfo8TransferI19StreamedBinaryWriteILb0EEEEvRT_
GCi:_InternalEnumerator_1_System_Collections_IEnumerator_get_Current_m3583252352_gshared
GOl:__ZN6il2cpp2vm14PlatformInvoke21SetFindPluginCallbackEPFPKcS3_E
mDb:__ZN23ArchiveStorageConverter24ReadHeaderFromMemoryFileEv
oKi:_EnumBuilder_get_FullName_m2818393911
pod:__ZN5physx2Sc9ClothCore22setFrictionCoefficientEf
Rtc:__Z18Transfer_BlittableI8JSONReadLb1E10ColorRGBAfEvRK29SerializationCommandArgumentsR31RuntimeSerializationCommandInfo
nid:__ZNK5physx9NpPhysics17getNbConvexMeshesEv
oMg:_StreamAsyncResult_get_Done_m2858832609
iCd:__ZNK5physx7NpScene29getContactCorrelationDistanceEv
Dfc:__Z34Register_UnityEngine_Gradient_Initv
nOk:_DictionaryEnumerator_get_Entry_m1597857786
SDa:__Z26TransformVerticesInnerLoopILb1ELb1ELb0EEvPhRK10Matrix4x4fRK10Matrix3x3fjPKhiiiS8_ii25GfxTransformVerticesFlags
Ohl:_ObjectPool_1_set_countAll_m1742773675_gshared
opi:_SerializationEntry_get_Value_m1628109884_AdjustorThunk
ahg:_BaseInputModule_GetAxisEventData_m3903709281
cNh:__ZL53_Activator_t3825585294_CustomAttributesCacheGeneratorP21CustomAttributesCache
lZe:_Array_Sort_TisIl2CppObject_m1954851512_gshared
Oeh:_BigInteger__ctor_m3239748086
EW:__ZN13ScreenManager23SetIsOrientationEnabledE18EnabledOrientationb
_ll:__ZL24UnresolvedVirtualCall_57P12Il2CppObjectiPK10MethodInfo
xWg:_DOTween_To_m432804578
mUh:__ZL79Convert_t2607082565_CustomAttributesCacheGenerator_Convert_ToUInt16_m1043031438P21CustomAttributesCache
tob:__ZN12LineRenderer23VirtualRedirectTransferER24GenerateTypeTreeTransfer
Hyb:__ZN9InputAxis8TransferI19StreamedBinaryWriteILb0EEEEvRT_
Syi:_TweenerCore_3_ApplyTween_m3268195009_gshared
xrc:__Z45Register_UnityEngine_GUIStyle_GetFontInternalv
LXc:__ZN5physx6shdfnd8SyncImpl4waitEj
Yml:__ZL25UnresolvedVirtualCall_109P12Il2CppObjectS0_S0_iiPK10MethodInfo
tzj:_MonoBehaviour_StartCoroutine_m1399371129
epk:_Alternation_get_Alternatives_m1445219249
EJj:_DefaultComparer_GetHashCode_m2506382068_gshared
qAk:_Component_SendMessageUpwards_m19741277
tNj:_EqualityComparer_1_System_Collections_IEqualityComparer_GetHashCode_m1012273405_gshared
yUe:_Array_InternalArray__ICollection_Add_TisHitInfo_t1761367055_m2956071622_gshared
pmi:__ZN16VirtFuncInvoker1IP30MarshalByRefObject_t1285298191P6Type_tE6InvokeEjPvS3_
$ak:_InternalEnumerator_1_MoveNext_m470170271_AdjustorThunk
l1a:__ZN10GameObject23VirtualRedirectTransferER18StreamedBinaryReadILb0EE
PXl:__ZN6il2cpp2gc16GarbageCollector13AllocateFixedEjPv
Xdk:_InternalEnumerator_1_Dispose_m2270401482_AdjustorThunk
Umi:_ArrayFixupRecord_FixupImpl_m2377725358
ci:_glFrontFace
Qoi:_ObjectRecord_get_IsUnsolvedObjectReference_m2202692850
DBh:_FactoryCache_Cleanup_m4130035987
rCe:__ZN18BaseUnityAnalytics7ReleaseEv
a7d:__ZNK5physx20BigConvexDataBuilder4SaveERNS_14PxOutputStreamEbjPKNS_16HullTriangleDataE
xzb:__ZN13BuildSettings8TransferI18StreamedBinaryReadILb1EEEEvRT_
aEd:__ZN5physx13NpVolumeCache17getNbCachedShapesEv
XXa:__ZNSt3__26vectorI16ShadowCasterData13stl_allocatorIS1_L18MemLabelIdentifier2ELi16EEE21__push_back_slow_pathIKS1_EEvRT_
Izl:__ZN6il2cpp6icalls8mscorlib6SystemL16GetFieldFromTypeINS_5utils10functional6FilterINSt3__212basic_stringIcNS7_11char_traitsIcEENS7_9allocatorIcEEEENS4_11StringUtils23CaseInsensitiveComparerEEEEEP21Il2CppReflectionFieldP11Il2CppClassSK_iRKT_
WKj:_DefaultComparer_GetHashCode_m918846970_gshared
Fcl:_Vector3_get_forward_m1201659139
otf:_List_1_Sort_m269561757_gshared
Wve:__Z51Register_UnityEngine_TextGenerator_GetLinesInternalv
fUg:_U3CWaitForRewindU3Ed__14_System_IDisposable_Dispose_m2673538587
hQj:_HashSet_1_Init_m1258286688_gshared
x1g:_ShortcutExtensions_DORotate_m3434569207
vpa:__ZN17PersistentManager12UnloadStreamERKNSt3__212basic_stringIcNS0_11char_traitsIcEENS0_9allocatorIcEEEEb
c6a:__Z24CreateDirectoryRecursiveRKNSt3__212basic_stringIcNS_11char_traitsIcEENS_9allocatorIcEEEE
OHf:_ReadOnlyCollection_1_System_Collections_IList_RemoveAt_m525136953_gshared
ui:_strftime_l
kz:__ZN26AnimatorControllerPlayable27SetupStateMachineBehavioursEP6Object
azk:_Collision2D_get_gameObject_m4234358314
mja:__ZN6prcoreL17RemapGenericFloatI17TexFormatRGBFloat18TexFormatRGBAFloatEEvPKNS_9InnerInfoE
uA:__Z16AppendPathToHashRKN7mecanim5crc32EPKc
zwc:__ZN6HelperI9JSONWrite23TransferArrayField_InfoE24SerializationFunctionForERKS1_R23StaticTransferFieldInfoPb
EFd:__ZN5physx2Sc5Scene15getRenderBufferEv
X5j:_UInt64_System_IConvertible_ToBoolean_m3012279573_AdjustorThunk
h$i:__Z48RuntimeInvoker_Il2CppObject_StringU26_t638738783PK10MethodInfoPvPS2_
sym:_glClearStencil__wrapper
g4k:_U3CU3Ec__DisplayClass25_0_U3CDOTilingU3Eb__1_m1488913552
L3j:_Type_get_IsGenericTypeDefinition_m2147901038
vHa:__ZN12HandlerChain10ToAbsoluteEPKc
B7i:__Z36RuntimeInvoker_Matrix4x4_t2933234003PK10MethodInfoPvPS2_
eAg:_GregorianCalendar__ctor_m3794576475
N5j:_UInt32_TryParse_m4283512434
jkk:_Enumerator_MoveNext_m1091131935_gshared
ozi:_TweenerCore_3_Startup_m2282744407_gshared
BEb:__ZN13MonoBehaviour23VirtualRedirectTransferER19StreamedBinaryWriteILb0EE
OG:__ZN9AudioClip11CreateSoundEv
Mxb:__ZN8Material14DisableKeywordERKNSt3__212basic_stringIcNS0_11char_traitsIcEENS0_9allocatorIcEEEE
Iik:_ShimEnumerator_MoveNext_m3313047792_gshared
yyf:_Collection_1_ConvertItem_m2185647560_gshared
j2j:_TimeSpan_op_Inequality_m257547441
w$j:_ExecutionContext_GetObjectData_m1456913356
kTl:__ZN14dense_hash_setI10KeyWrapperIP18Il2CppGenericClassEN6il2cpp8metadata22Il2CppGenericClassHashENS5_25Il2CppGenericClassCompareENSt3__29allocatorIS3_EEE6insertERKS3_
Tzj:_Object_set_hideFlags_m2204253440
SXl:__ZN6il2cpp2gc16GarbageCollector21CallWithAllocLockHeldEPFPvS2_ES2_
gKi:_EnumBuilder_get_Assembly_m4285228003
hva:__ZN13GfxDeviceGLES20CreateComputeProgramEPKhj
ZBg:_DateTimeFormatInfo_get_RoundtripPattern_m562440017
VGe:__ZN11UnityEngine7Connect16PersistentValues13RestoreValuesER8JSONRead
tTh:__ZL76Convert_t2607082565_CustomAttributesCacheGenerator_Convert_ToByte_m791636053P21CustomAttributesCache
DKj:_DefaultComparer__ctor_m3947565964_gshared
Vbg:_Double_System_IConvertible_ToByte_m3004284950_AdjustorThunk
Hmi:_TypeEntry_get_AssemblyName_m1762285107
nYd:__ZNK5physx2Gu11HeightField17getHeightInternalEff
$Wl:__ZN6il2cpp2vmL11GetIdentityEP14Il2CppIUnknown
m0c:__ZN5physx2Gu32closestPtPointSegmentTesselationERKNS_6shdfnd3aos5Vec3VES5_S5_S5_S5_S5_RjRS3_S7_
u0l:_GC_push_gc_structures
CBd:__ZNK5physx7NpScene22getClientBehaviorFlagsEh
nuh:_ServicePointManager_get_ServerCertificateValidationCallback_m1409951209
E0g:_ShortcutExtensions_DOShakePosition_m1939458561
Uid:__ZN5physx9NpFactory14createMaterialEfff
jul:__ZN15dense_hashtableINSt3__24pairIK10KeyWrapperINS0_12basic_stringIcNS0_11char_traitsIcEENS0_9allocatorIcEEEEEP11Il2CppClassEES9_N6il2cpp5utils11StringUtils12StringHasherIS8_EEN14dense_hash_mapIS9_SC_SI_NS0_8equal_toIS9_EENS6_ISD_EEE9SelectKeyESL_SM_E8min_sizeEjj
aKc:__ZNK5physx3Cct13BoxController8getStatsERNS_17PxControllerStatsE
N0f:_Enumerator_get_Current_m1271212567
hQ:__ZN5physx5cloth11PhaseConfigC2Et
JEa:__Z22GetShaderCachePathGLESv
Bfe:__ZN13PhysicsModule21OverlapBoxUserCollectERK8Vector3fS2_RK11Quaternionfi23QueryTriggerInteractionRN8IPhysics12IUserCollectE
cKc:__ZN5physx3Cct13BoxControllerD2Ev
gwj:_Input_set_compositionCursorPos_m1615567306
jga:__ZN18StreamedBinaryReadILb1EE19TransferSTLStyleMapINSt3__23mapIN9ShaderLab16FastPropertyNameEN18UnityPropertySheet11UnityTexEnvENS2_4lessIS5_EENS2_9allocatorINS2_4pairIKS5_S7_EEEEEEEEvRT_17TransferMetaFlags
fGk:_Playable_GetInputWeightInternal_m381407588
vJc:__Z41Rigidbody2D_CUSTOM_INTERNAL_CALL_AddForceP12Il2CppObjectRK13Vector2fIcallN11Rigidbody2D9ForceModeE
cvh:_IPAddress_ParseIPV6_m2209709575
mAd:__ZThn8_N5physx2Sc19ShapeInstancePairLLD0Ev
HT:__ZN19CloudServiceHandler18SaveFileFromServerERK8UnityStrS2_PN11UnityEngine15CloudWebService16WWWRestHeaderMapE
nTd:__ZN5physx19PxcContactSphereBoxERKNS_2Gu13GeometryUnionES3_RKNS_11PxTransformES6_RKfRNS_10PxcNpCacheERNS0_13ContactBufferE
eZj:_Toggle_set_group_m3833595685
Qzg:_LayoutRebuilder_ForceRebuildLayoutImmediate_m566681977
QBd:__ZNK5physx7NpScene21getBroadPhaseCallbackEh
n1c:__ZN5physx6shdfnd5ArrayIPNS_12PxConstraintENS0_19ReflectionAllocatorIS3_EEE15growAndPushBackERKS3_
u8c:__ZNK5physx2Sc15ArticulationSim11checkResizeEv
s3f:_Double_ToString_m1085043609
FUe:_Array_InternalArray__ICollection_Add_TisVector4_t2243707581_m698578249_gshared
dui:_DOGetter_1_BeginInvoke_m1007973739_gshared
o9l:___strchrnul
A$:__ZN8keywords6CreateEPKc
sOc:__ZN5physx2Gu11gjkRelativeINS0_8CapsuleVENS0_11ConvexHullVEEEjRKT_RKT0_RKNS_6shdfnd3aos15PsMatTransformVERNSB_5Vec3VESG_SG_RNSB_6FloatVE
jJj:_Dictionary_2_ToTKey_m4209561517_gshared
WLb:__ZN24GenerateTypeTreeTransfer8TransferINSt3__26vectorI17AnimationCurveTplIfE13stl_allocatorIS4_L18MemLabelIdentifier1ELi16EEEEEEvRT_PKc17TransferMetaFlags
R:Math_imul
qtj:_GUIStyle_set_active_m2896743432
avi:_DOSetter_1_Invoke_m236045679_gshared
Hxb:__ZN14SpriteRenderer15SetupPropertiesEv
q7e:_SecurityFrame_t1002202659_marshal_pinvoke_back
xAj:_Physics_Raycast_m2036777053
k_k:_Nullable_1_get_HasValue_m1154243172_AdjustorThunk
Eve:__Z45TextGenerator_CUSTOM_INTERNAL_get_rectExtentsP12Il2CppObjectP5RectTIfE
ljh:_CertificateValidationCallback_Invoke_m2500463874
sOe:_SetPropertyUtility_SetStruct_TisChar_t3454481338_m2333420724_gshared
Pzf:__ZN23InterfaceActionInvoker2Ii18Color32_t874517518E6InvokeEjP11Il2CppClassPviS0_
Mbc:__Z45Register_UnityEngine_Application_get_dataPathv
g$f:_Hashtable_ContainsKey_m2716576664
YWk:_buildforbbiden_Update_m804459293
hIl:__ZN15dense_hashtableINSt3__24pairIK10KeyWrapperIPK10Il2CppTypeEjEES6_N6il2cpp8metadata14Il2CppTypeHashEN14dense_hash_mapIS6_jSB_NSA_17Il2CppTypeCompareENS0_9allocatorIS8_EEE9SelectKeyESD_SF_EC2EjRKSB_RKSD_RKSH_
Hmk:_PatternCompiler_EmitCategory_m1696942454
U9f:_Decimal_decimalFloorAndTrunc_m3655683429
ZUe:_Array_InternalArray__ICollection_CopyTo_TisInt32_t2071877448_m984622488_gshared
Kze:__Z39CanvasGroup_Get_Custom_PropInteractableP12Il2CppObject
LEc:__ZN16CircleCollider2D23VirtualRedirectTransferER18StreamedBinaryReadILb0EE
JIk:_Marshal_Copy_m1683535972
Jtm:_emscripten_glStencilOpSeparate__wrapper
qse:_cf2_getLanguageGroup
$_a:__ZN13ProbeRenderer8ConvolveEbijjb
lya:__ZN17GenericDynamicVBOC2ER9GfxDevice13GfxBufferModejj
rLk:_Context_get_HasDynamicSinks_m1998518649
Qwm:b160
IGc:__Z28GetPhysics2DScriptingClassesv
Txd:__ZNK5physx2Sc5Scene7isValidEv
D0b:__ZN12ScriptMapper7PRODUCEE18MemLabelIdentifier18ObjectCreationMode
RR:__ZN11UnityEngine15CloudWebService17SessionEventQueue10PurgeItemsEj
TDd:__ZN5physx2Sq17SceneQueryManager29setDynamicTreeRebuildRateHintEj
UFj:_ValueCollection_System_Collections_Generic_ICollectionU3CTValueU3E_get_IsReadOnly_m1530798787_gshared
egg:_AbstractEventData_get_used_m4208553917
LPf:_Array_System_Collections_IList_get_Item_m2088124007
dQf:_Array_GetLength_m2083296647
nRh:__ZL58SecurityElement_t2325568386_CustomAttributesCacheGeneratorP21CustomAttributesCache
cdb:__ZN16LevelGameManager23VirtualRedirectTransferER24GenerateTypeTreeTransfer
TYf:_SynchronizedArrayListWrapper_ToArray_m1522185111
l3i:__Z55RuntimeInvoker_TimeSpan_t3430258949_DateTime_t693205669PK10MethodInfoPvPS2_
ZQb:__Z18Transfer_BlittableI18StreamedBinaryReadILb1EELb1EtEvRK29SerializationCommandArgumentsR31RuntimeSerializationCommandInfo
q6e:_SecurityContext_get_FlowSuppressed_m420202521
zta:__ZN9GfxDevice20DeallocRenderSurfaceEP17RenderSurfaceBase
j7c:__ZN5physx6shdfnd5ArrayIPvNS0_19ReflectionAllocatorINS_18NpArticulationLinkEEEE4copyINS0_15InlineAllocatorILj256ES5_EEEEvRKNS1_IS2_T_EE
I7j:_ValueType_ToString_m3796301715
zKc:__ZNK5physx3Cct10Controller12getKineShapeEv
P0i:__Z62RuntimeInvoker_Int64_t909078037_Il2CppObject_Int32_t2071877448PK10MethodInfoPvPS2_
ohc:__Z53Register_UnityEngine_Quaternion_INTERNAL_CALL_Inversev
iYe:_Array_qsort_TisUICharInfo_t3056636800_m2607408901_gshared
D$c:__ZN5physx6shdfnd4sortIPvNS0_4LessIS2_EENS0_19ReflectionAllocatorINS_2Sc18TriggerInteractionEEEEEvPT_jRKT0_RKT1_j
yqj:_GUILayoutGroup__ctor_m992523271
Teb:__ZN12BaseRenderer23RendererBecameInvisibleEv
cwd:__ZNK5physx2Sc8BodyCore14getMaxAngVelSqEv
Jhe:__ZN20TextRenderingPrivate8FontImpl13CharacterInfo8TransferI18StreamedBinaryReadILb0EEEEvRT_
KLb:__Z29Transfer_Blittable_ArrayFieldI24GenerateTypeTreeTransferfEvRT_R9ArrayInfoRK23StaticTransferFieldInfo
Tmk:_PatternCompiler_EmitReference_m1381860071
F1i:__Z51RuntimeInvoker_Single_t2076509932_Int16_t4041245914PK10MethodInfoPvPS2_
Npb:__ZN8Gradient8TransferI14SafeBinaryReadEEvRT_
j_i:__Z41RuntimeInvoker_StackBehaviour_t1390406961PK10MethodInfoPvPS2_
kgl:_UnityEvent_1_Invoke_m1533100983_gshared
IWl:__ZNK15dense_hashtableINSt3__24pairIK10KeyWrapperIP14Il2CppIUnknownEjEES5_N6il2cpp5utils11PointerHashIS3_EEN14dense_hash_mapIS5_jSB_NS0_8equal_toIS5_EENS0_9allocatorIS7_EEE9SelectKeyESE_SG_E5beginEv
o2g:_ShortcutExtensions_DOPlay_m2113281574
gdj:__Z93RuntimeInvoker_Single_t2076509932_NoOptions_t2508431845_Single_t2076509932_Double_t4078015681PK10MethodInfoPvPS2_
qIe:_TweenManager_GetTweener_TisVector3_t2243707580_TisIl2CppObject_TisPathOptions_t2659884781_m895781561_gshared
ruh:_FileWebRequest__ctor_m4003648606
Ngi:__ZL71SpriteState_t1353336012_CustomAttributesCacheGenerator_m_DisabledSpriteP21CustomAttributesCache
Xqa:__ZN16MeshVertexFormat23CreateVertexDeclarationEjPKS_
wnj:__Z34RuntimeInvoker_HitInfo_t1761367055PK10MethodInfoPvPS2_
Vcg:_Enum_System_IConvertible_ToSByte_m3488526280
MFa:__ZN9GfxDevice9SkinOnGPUERK18VertexStreamSourceP9GfxBufferP17GPUSkinPoseBufferS4_iijb
jOi:_TypeBuilder_ToString_m1952363535
TXg:_U3CU3Ec__DisplayClass2_0_U3CStopMotionU3Eb__0_m1536854436
wMk:_Identity_set_Disposed_m628843469
zzj:_MonoBehaviour_StopAllCoroutines_m1675795839
_oa:__ZN18IDCollectorFunctorD0Ev
mUd:__ZN5physx2Gu32PCMConvexVsMeshContactGeneration15processTriangleEPKNS_6PxVec3EjhPKj
_0a:__ZN23ManagedAttributeManager21GetRequiredComponentsEP11Il2CppClass
jTg:_DOTweenComponent_Update_m2952167292
YRg:_NumberFormatter_Init_m1022036773
o$l:_GC_new_free_list_inner
qJj:_DefaultComparer_Equals_m85211180_gshared
N0b:__ZN14RenderSettings7PRODUCEE18MemLabelIdentifier18ObjectCreationMode
rCf:_Collection_1_System_Collections_IList_IndexOf_m1950953062_gshared
HQg:_MonoType_InternalGetEvent_m532443236
h8h:__ZL68U3CU3Ec__DisplayClass62_0_t2728653315_CustomAttributesCacheGeneratorP21CustomAttributesCache
wAf:_Collection_1_IndexOf_m2700825189_gshared
QXd:__ZN5physx6shdfnd5ArrayINS_2Cm8Matrix34ENS0_19ReflectionAllocatorIS3_EEE15growAndPushBackERKS3_
Ifk:_Comparer_1_get_Default_m2605397692_gshared
tUd:__ZN5physx2Gu32PCMConvexVsMeshContactGeneration31generatePolyDataContactManifoldERNS0_9TriangleVEjjhPNS0_21MeshPersistentContactERjRKNS_6shdfnd3aos6FloatVERNS8_5Vec3VE
Y7d:__ZN5physx10SubSortSAH5splitEPjj
dtc:__ZN8JSONRead8TransferI10RectOffsetEEvRT_PKc17TransferMetaFlagsb
Jem:__ZNSt3__28time_getIwNS_19istreambuf_iteratorIwNS_11char_traitsIwEEEEED2Ev
Fbf:_Decoder__ctor_m2623573910
_Pa:__Z21ClearFenceWithoutSyncR8JobFence
UPc:__ZN5physx2Gu3EPA8addFacetEjjjRKNS_6shdfnd3aos6FloatVES6_
KJ:__ZN12SoundManager20RegisterModifiedClipEP10SampleClip
A2:__Z21FormatScriptTypeError14MonoScriptTypeRKNSt3__212basic_stringIcNS0_11char_traitsIcEENS0_9allocatorIcEEEE
iXi:__Z108RuntimeInvoker_Void_t1841601450_Il2CppObject_Int64_t909078037_Il2CppObject_Int64_t909078037_Int64_t909078037PK10MethodInfoPvPS2_
jM:__ZN11AudioSource4PlayEd
gFb:__Z26scripting_class_get_fieldsP11Il2CppClassRNSt3__26vectorIP9FieldInfo13stl_allocatorIS4_L18MemLabelIdentifier1ELi16EEEE
oSl:__ZN6il2cpp2vm6Object16GetVirtualMethodEP12Il2CppObjectPK10MethodInfo
BE:__ZZN8Animator15InitializeClassEvEN31FunctorImpl_388kDidModifyMotion4CallEPviR11MessageData
CXc:__ZN5physx3Cct9CCTParamsC2Ev
Qld:__ZN5physx7NpCloth21setStiffnessFrequencyEf
bX:__ZNK20LocalFileSystemPosix8IsHiddenERK13FileEntryData
QMd:__ZN5physx17PxcSweepBoxConvexERKNS_11PxsCCDShapeES2_PKNS_12PxsRigidBodyES5_RKNS_11PxTransformES8_S8_S8_fRNS_6PxVec3ESA_RNS_10PxcNpCacheERNS_18PxcNpThreadContextEf
i4d:__ZThn8_N5physx2Gu11HeightField14onRefCountZeroEv
gUk:_X501__cctor_m2610532554
Sob:__ZThn28_NK8Renderer8GetLayerEv
X_c:__ZN5physx2Sc5Actor9setActiveEbj
hOc:__ZN12_GLOBAL__N_127SphereMeshContactGeneration15processTriangleEjRKN5physx6PxVec3ES4_S4_PKj
_Kl:__ZNSt3__214__split_bufferINS_12basic_stringIcNS_11char_traitsIcEENS_9allocatorIcEEEERNS4_IS6_EEED2Ev
lsf:_List_1_CheckCollection_m2220107869_gshared
wlb:__ZN7Cubemap23VirtualRedirectTransferER18StreamedBinaryReadILb0EE
Blh:_RecordProtocol_EncodeRecord_m3884270352
h2e:_SHA256_Create_m896954069
Zte:_Read_CVT
r$c:__ZN5physx2Sc10NPhaseCore28reserveContactReportPairDataEjjRj
U5f:_Convert_ToUInt32_m776714429
yOc:__ZN5physx2Gu22barycentricCoordinatesERKNS_6shdfnd3aos5Vec3VES5_S5_RNS2_6FloatVE
xIa:__ZN12FileAccessor4SeekEx10FileOrigin
MKb:__ZL26Transfer_SimpleNativeClassI24GenerateTypeTreeTransfer17AnimationCurveTplIfELb0EEvRK29SerializationCommandArgumentsR31RuntimeSerializationCommandInfo
sld:__ZN5physx15NpActorTemplateINS_7PxClothEE12setActorFlagENS_11PxActorFlag4EnumEb
Uqg:__ZN16VirtFuncInvoker1IP22GameObject_t1756533147S1_E6InvokeEjPvS1_
XIf:_ReadOnlyCollection_1_System_Collections_IList_get_IsFixedSize_m2013914927_gshared
q6d:__ZL18TestUnifiedNormalsjPKN5physx6PxVec3EjPNS_2Gu9TriangleTIjEEb
bbj:__Z54RuntimeInvoker_Boolean_t3825574718_Vector2_t2243707579PK10MethodInfoPvPS2_
UAk:_Coroutine_t2299508840_marshal_pinvoke
I6:__ZN16LightmapSettings20DidChangeActiveSceneEP10UnitySceneS1_
GHi:_Default_ReorderParameters_m1877749093
aJl:__ZN15dense_hashtableINSt3__24pairIK10KeyWrapperINS1_IPK14Il2CppAssemblyP11Il2CppClassEEEjEES9_17ReflectionMapHashIS8_EN14dense_hash_mapIS9_jSD_19ReflectionMapEqualsIS8_ENS0_9allocatorISB_EEE9SelectKeyESG_SI_E13set_empty_keyERKSB_
_ii:__ZL59g_AssemblyU2DCSharp_Assembly_CustomAttributesCacheGeneratorP21CustomAttributesCache
xlc:__Z39Register_UnityEngine_Time_get_timeScalev
bL:__ZN10AudioMixer11SetupGroupsEv
Y_h:__ZL91Resources_t339470017_CustomAttributesCacheGenerator_Resources_GetBuiltinResource_m582410469P21CustomAttributesCache
spc:__Z35Register_UnityEngine_Event_get_typev
V9g:_PrivateKeyInfo_DecodeRSA_m1427048948
Wfh:_BigInteger_op_GreaterThanOrEqual_m2643115413
HGi:_Assembly_FillName_m1934025015
xNa:_UNITY_png_free
HHg:_IntPtr_op_Explicit_m1073656736
Crm:_emscripten_glDepthRange__wrapper
D9e:_String_IndexOf_m2126171214
fHg:_Int64_ToString_m1544341651_AdjustorThunk
gGf:_ReadOnlyCollection_1_System_Collections_ICollection_get_SyncRoot_m1943936564_gshared
T2d:__ZNK5physx13GuMeshFactory17getNbConvexMeshesEv
uDg:_Guid_CheckNull_m2903986431
pWh:__ZL62CrossContextDelegate_t754146990_CustomAttributesCacheGeneratorP21CustomAttributesCache
bwk:_Bounds__ctor_m1202659404
k5i:__Z52RuntimeInvoker_Int32_t2071877448_Int32U26_t455636984PK10MethodInfoPvPS2_
v1:__Z63ThreadAndSerializationSafeCheckGetMonoBehaviourBeingTransferredv
_1l:_GC_enable
znh:_TlsClientCertificateVerify_ProcessAsSsl3_m3377063356
AXi:__Z97RuntimeInvoker_Il2CppObject_Il2CppObject_Int32_t2071877448_Il2CppObject_Il2CppObject_Il2CppObjectPK10MethodInfoPvPS2_
U$b:__ZN14LineParametersD2Ev
Zkg:_StandaloneInputModule_set_repeatDelay_m2820945738
jJg:_EndOfStreamException__ctor_m4268387737
X4j:_UInt16_ToString_m4213290405
xgc:__Z37Register_UnityEngine_Input_GetAxisRawv
buf:_List_1_GetIndex_m433539411_gshared
zPh:__ZL59StreamingContext_t1417235061_CustomAttributesCacheGeneratorP21CustomAttributesCache
OJk:_ChannelServices_RegisterChannel_m3832858065
adg:_Enum_GetName_m1226611481
p$i:__Z113RuntimeInvoker_Il2CppObject_Byte_t3683104436_Il2CppObject_SByte_t454417549_Il2CppObject_Il2CppObject_Il2CppObjectPK10MethodInfoPvPS2_
ZL:__ZN11AudioSource5ResetEv
Eam:_wmemmove
Tsb:__ZN14Texture2DArray23VirtualRedirectTransferER18StreamedBinaryReadILb0EE
ntb:__ZN13TrailRenderer5ResetEv
_qb:__ZN2UI13RectTransform13AwakeFromLoadE17AwakeFromLoadMode
aSa:__ZL27GetDestRenderTargetSurfacesP13RenderTextureR12ObjectHandleI17RenderSurface_TagP17RenderSurfaceBaseES6_
Qgc:__Z30Light_Set_Custom_PropIntensityP12Il2CppObjectf
AZd:__ZN5physx23PxsSolverSetupSolveTaskD2Ev
mHb:__Z18Transfer_BlittableI14SafeBinaryReadLb1EiEvRK29SerializationCommandArgumentsR31RuntimeSerializationCommandInfo
UHk:_DefaultDependencyAttribute__ctor_m107693037
qXb:__ZNSt3__26vectorINS_4pairINS_12basic_stringIcNS_11char_traitsIcEENS_9allocatorIcEEEES7_EENS5_IS8_EEE21__push_back_slow_pathIKS8_EEvRT_
W5k:_U3CU3Ec__DisplayClass56_0_U3CDOScaleYU3Eb__0_m3175062811
Q0i:__Z72RuntimeInvoker_Il2CppObject_IntPtr_t_Int32_t2071877448_Int32_t2071877448PK10MethodInfoPvPS2_
FJf:_ReadOnlyCollection_1_GetEnumerator_m713393110_gshared
wTg:_DOTweenComponent_SetCapacity_m4268164513
tli:_ProxyAttribute_GetPropertiesForNewContext_m3587421540
cRf:_Array_LastIndexOf_m4096535198
QWf:_ArrayList_Add_m1719188324
Yfd:__ZN18MultiQueryCallbackIN5physx12PxOverlapHitEE6invokeERfPKNS0_2Sq13PrunerPayloadEj
jcg:_Double_System_IConvertible_ToSByte_m1653690240_AdjustorThunk
v8l:_opendir
gSc:__ZN5physx2Gu18gjkRelativeRayCastINS0_4BoxVES2_NS0_10ShrunkBoxVES3_EEbRT_RT0_RKNS_6shdfnd3aos15PsMatTransformVERKNS9_6FloatVERKNS9_5Vec3VESI_RSD_RSG_SK_fb
mm:_glGetStringi
yZg:_ColorOptions_t2213017305_marshal_pinvoke
ovj:_GUIStyleState_t3801000545_marshal_pinvoke
Xoi:_ObjectManager_AddFixup_m4148241867
xqd:__ZN5physx22NpParticleBaseTemplateINS_15PxParticleFluidENS_15NpParticleFluidEE14setRestitutionEf
Rtb:__ZN18StreamedBinaryReadILb0EE21TransferSTLStyleArrayI13dynamic_arrayI8Vector4fLj4EEEEvRT_17TransferMetaFlags
z3d:__ZThn8_N5physx2Gu10ConvexMeshD0Ev
rzh:_X509Chain_get_CertificateCollection_m324631835
Eul:__ZN15dense_hashtableI10KeyWrapperIPK19Il2CppGenericMethodES4_N6il2cpp8metadata23Il2CppGenericMethodHashEN14dense_hash_setIS4_S7_NS6_26Il2CppGenericMethodCompareENSt3__29allocatorIS4_EEE8IdentityES9_SC_EC2ERKSF_j
AMj:_EqualityComparer_1__cctor_m1011898363_gshared
YJd:__ZNK5physx2Sq12BucketPruner7raycastERKNS_6PxVec3ES4_RfRNS0_14PrunerCallbackE
zRe:_Array_InternalArray__IndexOf_TisClientCertificateType_t4001384466_m1168139450_gshared
Qjj:__Z49RuntimeInvoker_Int32_t2071877448_Link_t2723257478PK10MethodInfoPvPS2_
sLi:_FieldBuilder_get_Name_m2243491233
FIc:__ZN15dense_hashtableINSt3__24pairIKNS1_IPK10Collider2DS4_EE11Collision2DEES5_NS2_23ColliderPairHashFunctorEN14dense_hash_mapIS5_S7_S9_NS0_8equal_toIS5_EE13stl_allocatorIS8_L18MemLabelIdentifier65ELi16EEE9SelectKeyESC_SF_E14squash_deletedEv
V5e:_StringBuilder_Append_m3618697540
Aif:_List_1_GetEnumerator_m3294992758_gshared
pW:__ZN13ScreenManager16SetScreenTimeoutEi
CJb:__Z18Transfer_BlittableI17RemapPPtrTransferLb0EdEvRK29SerializationCommandArgumentsR31RuntimeSerializationCommandInfo
e3e:_SymmetricAlgorithm_set_IV_m4262655606
eYj:_StencilMaterial__cctor_m2963056855
iOj:_EqualityComparer_1_System_Collections_IEqualityComparer_Equals_m315020809_gshared
oIi:_CustomAttributeNamedArgument_GetHashCode_m3715408876_AdjustorThunk
Lve:__Z38Register_UnityEngine_Font_HasCharacterv
wyh:_X509Certificate2_AppendBuffer_m3517242299
nRa:__Z35IntersectSpherePlaneBoundsOptimizedRKN4math7_float4EPS1_i
Pfg:_CultureInfo_get_IsNeutralCulture_m3874876470
Kag:_Delegate_CreateDelegate_m3813023227
Edm:__ZNKSt3__27num_putIcNS_19ostreambuf_iteratorIcNS_11char_traitsIcEEEEE6do_putES4_RNS_8ios_baseEcx
k$i:__Z46RuntimeInvoker_WellKnownObjectMode_t2630225581PK10MethodInfoPvPS2_
nZc:__ZN5physx2Sc8ShapeSim20createLowLevelVolumeEjRKNS_9PxBounds3EjNS_9AABBMgrIdE
Vrk:_Uri_get_AbsoluteUri_m2120317928
Ddm:__ZNKSt3__27num_putIcNS_19ostreambuf_iteratorIcNS_11char_traitsIcEEEEE6do_putES4_RNS_8ios_baseEcl
Fdm:__ZNKSt3__27num_putIcNS_19ostreambuf_iteratorIcNS_11char_traitsIcEEEEE6do_putES4_RNS_8ios_baseEcm
OVl:__ZN6il2cpp2os5posix15PosixWaitObject13InterruptWaitEv
Vld:__ZNK5physx7NpCloth22getAngularInertiaScaleEv
hhg:_BaseInputModule_IsModuleSupported_m4272494372
VTc:__ZN26IntersectAnyVsMeshCallbackILi1ELb1EE10processHitERKN5physx12PxRaycastHitERKNS1_6PxVec3ES7_S7_RfPKj
Idm:__ZNKSt3__27num_putIcNS_19ostreambuf_iteratorIcNS_11char_traitsIcEEEEE6do_putES4_RNS_8ios_baseEce
Cdm:__ZNKSt3__27num_putIcNS_19ostreambuf_iteratorIcNS_11char_traitsIcEEEEE6do_putES4_RNS_8ios_baseEcb
H2c:__ZN5physx2Sc13ConstraintSim15needsProjectionEv
p6:__Z22CleanupLODGroupManagerPv
zUe:_Array_InternalArray__ICollection_Add_TisContentType_t1028629049_m2984242302_gshared
mFd:__ZN5physx6shdfnd5ArrayINS_2Sc5Scene14SimpleBodyPairENS0_19ReflectionAllocatorIS4_EEE8recreateEj
Xm:_glUniform3fv
LAb:__ZNSt3__218__insertion_sort_3IRN15ResourceManager10Dependency6SorterEPS2_EEvT0_S6_T_
Hff:_Enumerator_System_Collections_IEnumerator_Reset_m3796537546_AdjustorThunk
ive:_UNITY_FT_Init_Class_tt_service_gx_multi_masters
Bak:_InternalEnumerator_1_System_Collections_IEnumerator_Reset_m3249248421_AdjustorThunk
qZk:_publicFloat__ctor_m3838981924
Kai:__ZL50U3CU3Ec_t1609106043_CustomAttributesCacheGeneratorP21CustomAttributesCache
oQg:_IntComparer_Compare_m3057931085
WVa:__ZNK16LightmapSettings31GetRealtimeLightmapDecodeValuesEv
yL:__ZN5audio5mixer12SetSuspendedERNS0_16AudioMixerMemoryEb
Ula:__ZN17PersistentManager21UnloadNonDirtyStreamsEv
eWi:__Z78RuntimeInvoker_Int32_t2071877448_DecimalU26_t1613489971_DecimalU26_t1613489971PK10MethodInfoPvPS2_
MOl:__ZN6il2cpp2vm13LivenessStateC2EP11Il2CppClassjPFvPP12Il2CppObjectiPvES7_PFvvESB_
Bej:__Z41RuntimeInvoker_ColorTweenMode_t1328781136PK10MethodInfoPvPS2_
gei:__ZL61Graphic_t2426225576_CustomAttributesCacheGenerator_m_MaterialP21CustomAttributesCache
Lwh:_Oid__ctor_m1936781897
hde:__ZN5physx6shdfnd8PoolBaseINS_24NpPtrTableStorageManager8PtrBlockILi4EEENS0_19ReflectionAllocatorIS4_EEE12allocateSlabEv
Izj:_Object_INTERNAL_CALL_Internal_InstantiateSingleWithParent_m1401308849
AHk:_ResourceSet__ctor_m1222864106
A0d:__ZN5physx2Sc5Scene13ccdBroadPhaseEPNS_10PxBaseTaskE
Uvf:_Collection_1_System_Collections_IList_get_Item_m3376056117_gshared
YHb:__ZN12NativeBufferI27Converter_SimpleNativeClassI8GradientEE19ProcessAfterReadingER9ArrayInfoP11Il2CppClass
sn:_emscripten_glDepthMask
oUd:__ZN5physx2Gu24PCMMeshContactGeneration15processContactsEhb
Oxf:_Collection_1_IsSynchronized_m2601980439_gshared
qEh:__ZL76UInt16_t986882611_CustomAttributesCacheGenerator_UInt16_TryParse_m1818885113P21CustomAttributesCache
Gff:_Enumerator_VerifyState_m3639069574_gshared
mza:__ZN4crnd25static_huffman_data_model22prepare_decoder_tablesEv
Amb:__ZN9Texture2D23VirtualRedirectTransferER17RemapPPtrTransfer
V0b:__ZN16ReflectionProbesD2Ev
eZe:_Array_Sort_TisIl2CppObject_TisIl2CppObject_m1915706600_gshared
sfh:_ModulusRing_Difference_m662924064
cak:_InternalEnumerator_1_MoveNext_m1869236997_gshared
Hng:_CanvasUpdateRegistry_ObjectValidForUpdate_m855695984
Bwg:_InputField_set_onValueChanged_m2406388125
E0h:__ZL95Physics2D_t2540166467_CustomAttributesCacheGenerator_Physics2D_Raycast_m2303387255____maxDepth5P21CustomAttributesCache
KGf:_ReadOnlyCollection_1_System_Collections_ICollection_get_SyncRoot_m2702046016_gshared
lZ:__ZL22CleanupUnityWebStreamsPv
$lk:_Regex_get_RightToLeft_m529734879
eOb:__Z18Transfer_BlittableI18StreamedBinaryReadILb0EELb0E10ColorRGBAfEvRK29SerializationCommandArgumentsR31RuntimeSerializationCommandInfo
gth:_ListDictionary_Add_m4276262662
Ijm:__Znaj
p0e:_RIPEMD160Managed_GGG_m1639995340
Vym:_emscripten_glEnableClientState__wrapper
dkk:_Enumerator_System_Collections_IEnumerator_get_Current_m1648049763_gshared
k5l:__ZN6il2cpp6icalls8mscorlib4Mono8Security12Cryptography18KeyPairPersistence15_ProtectMachineEP12Il2CppString
EYi:__Z57RuntimeInvoker_DSAParameters_t1872138834_SByte_t454417549PK10MethodInfoPvPS2_
Neb:__ZN11GameManager15ThreadedCleanupEv
Dqf:_List_1__ctor_m1337392449_gshared
DOd:__ZN5physxL26solveFriction4_StaticBlockEPKNS_23PxcSolverConstraintDescERNS_16PxcSolverContextE
YPf:_Array_System_Collections_IList_Remove_m2438892375
UMg:_TextWriter__ctor_m2225796097
Krj:_ScriptableObject_Internal_CreateScriptableObject_m1778903390
hTd:__ZN5physx30PxcGetMaterialShapeHeightFieldEPKNS_12PxsShapeCoreES2_RNS_18PxcNpThreadContextEPNS_15PxsMaterialInfoE
yda:__ZNK6Camera16GetStereoEnabledEv
sFf:__ZN21InterfaceFuncInvoker1I19Vector4_t2243707581iE6InvokeEjP11Il2CppClassPvi
D1b:__ZN12LightManager15InitializeClassEv
j1d:__ZN5physx6shdfnd8PoolBaseINS_2Sc19ParticlePacketShapeENS0_19ReflectionAllocatorIS3_EEE12allocateSlabEv
Qtj:_GUIStyle_GetFontInternal_m3509743324
f5b:__ZN18ScriptingArgumentsC2Ev
s2j:_TimeZone_IsDaylightSavingTime_m875882154
OIl:__ZN13Il2CppHashMapINSt3__24pairIPK9FieldInfoP11Il2CppClassEEj17ReflectionMapHashIS7_E19ReflectionMapEqualsIS7_ENS0_9allocatorINS1_IK10KeyWrapperIS7_EjEEEEEC2EjRKS9_RKSB_
k2g:_ShortcutExtensions_DOGoto_m3839282017
DBi:_ArrayReadOnlyList_1_Insert_m503707439_gshared
O6h:__ZL99ShortcutExtensions_t3524050470_CustomAttributesCacheGenerator_ShortcutExtensions_DOPlay_m2113281574P21CustomAttributesCache
vWi:__Z52RuntimeInvoker_Single_t2076509932_Decimal_t724701077PK10MethodInfoPvPS2_
mkh:_CipherSuiteCollection_System_Collections_IList_set_Item_m750275607
M_g:_RectOffsetPlugin__cctor_m4059289360
to:FUNCTION_TABLE_fifffiffi
O1e:_SHA1CryptoServiceProvider__ctor_m3127563759
gt:__ZN8Vector3f8TransferI14SafeBinaryReadEEvRT_
Zkf:_List_1_System_Collections_IList_Insert_m3835271496_gshared
Fr:FUNCTION_TABLE_ii
Rkk:_Enumerator_MoveNext_m335649778_AdjustorThunk
Feb:__ZN10TagManager8TransferI18StreamedBinaryReadILb0EEEEvRT_
k9k:_TweenSettingsExtensions_PrependInterval_m3957684016
yvc:__Z18Transfer_BlittableI9JSONWriteLb0E8BitFieldEvRK29SerializationCommandArgumentsR31RuntimeSerializationCommandInfo
R5j:_UInt32_ToString_m3894907091_AdjustorThunk
U9b:__Z35scripting_class_get_field_from_nameP11Il2CppClassPKc
wLe:_Tweener_DOStartupSpecials_TisInt64_t909078037_TisInt64_t909078037_TisNoOptions_t2508431845_m767202396_gshared
trm:b44
wc:invoke_diiii
nDc:__ZNK13BoxCollider2D26GetTypeInfoVirtualInternalEv
_Sc:__ZL17sweepVolumeVsMeshPKN5physx3Cct9SweepTestEPKNS0_11TouchedMeshERNS0_12SweptContactERKNS_6PxVec3ERKNS_10PxGeometryERKNS_11PxTransformEjPKNS_10PxTriangleEj
Rik:_ShimEnumerator_get_Key_m616785465_gshared
M8g:_SmallXmlParser_Error_m1832158746
yCh:_RepeatContext_get_IsLazy_m1620488045
ifd:__ZNK5physx12NpBatchQuery19getFilterShaderDataEv
CXd:__ZN5physx2Gu31checkOverlapOBB_heightFieldGeomERKNS_10PxGeometryERKNS_11PxTransformERKNS0_3BoxE
qrm:b41
AWb:__ZN9ShaderLab20SerializedSubProgram8TransferI18StreamedBinaryReadILb0EEEEvRT_
sMg:_StreamAsyncResult_get_AsyncWaitHandle_m4218169359
Bwj:_LayerMask_op_Implicit_m2135076047
mrm:b40
QLc:__ZN5physx2Gu23findRotationMatrixFromZERKNS_6PxVec3E
APa:__Z9EndJobSetR8JobFence11JobPriority
SNd:__ZNK5physx2Gu29EPASupportMapPairRelativeImplINS0_8CapsuleVENS0_11ConvexHullVEE18doWarmStartSupportEiiRNS_6shdfnd3aos5Vec3VES8_S8_
owe:__ZN2UI13CanvasManager9AddCanvasEPNS_6CanvasE
xXa:__ZN14qsort_internal6_QSortIP21ForwardRenderPassDataiN23ForwardShaderRenderLoop18RenderObjectSorterILb0EEEEEvT_S6_T0_T1_
cPa:__ZNK6Camera22CalculateRenderingPathEv
mwc:__ZN9JSONWrite8TransferI5RectTIfEEEvRT_PKc17TransferMetaFlags
_Dd:__ZN5physx13NpVolumeCache10invalidateEv
Sih:_ContentInfo_get_Content_m1802070908
ZIb:__ZL12InvokeMethodI17RemapPPtrTransferEvRK29SerializationCommandArgumentsR31RuntimeSerializationCommandInfo
v6k:_U3CU3Ec__DisplayClass64_0_U3CDOShakeRotationU3Eb__0_m3789213667
lch:_X509Certificate_get_PublicKey_m714501701
Jyg:_U3CMouseDragOutsideRectU3Ec__Iterator1_System_Collections_IEnumerator_get_Current_m561728752
Bne:_tt_sbit_decoder_load_image
aca:__Z14IsHalfRTFormat19RenderTextureFormat
R9e:_String_LastIndexOf_m290475879
lAc:__ZN15b2DistanceJointD0Ev
Evg:_Image_get_layoutPriority_m2151045813
kqd:__ZN5physx22NpParticleBaseTemplateINS_15PxParticleFluidENS_15NpParticleFluidEE12setPositionsEjRKNS_16PxStrideIteratorIKjEERKNS4_IKNS_6PxVec3EEE
mhj:__Z71RuntimeInvoker_Void_t1841601450_CornerU26_t4129226442_Int32_t2071877448PK10MethodInfoPvPS2_
UNg:_TextReader_Read_m975794707
$nc:__ZNSt3__24listIN10GUIManager12SortedScriptE11memory_poolIS2_EE6__sortI13OldSortScriptEENS_15__list_iteratorIS2_PvEESA_SA_jRT_
OZc:__ZN5physx6shdfnd5ArrayIPvNS0_19ReflectionAllocatorINS_2Sc10NPhaseCore16ClothListElementEEEE15growAndPushBackERKS2_
$5j:_UInt64_System_IConvertible_ToChar_m1930853313_AdjustorThunk
unh:_TlsClientCertificate_SendCertificates_m1096074091
Zlg:_UIBehaviour_OnCanvasHierarchyChanged_m762109874
U$f:_SyncHashtable_get_Item_m408601391
JIi:_ByRefType_get_BaseType_m3405859119
VPh:__ZL45DSA_t903174880_CustomAttributesCacheGeneratorP21CustomAttributesCache
l3d:__ZN5physx2Gu10ConvexMeshD0Ev
Iuf:_Stack_1_System_Collections_ICollection_CopyTo_m2104527616_gshared
e1l:_GC_add_map_entry
Pdf:_StringBuilder_AppendFormat_m1666670800
eqb:__ZN12LineRenderer8TransferI18StreamedBinaryReadILb0EEEEvRT_
FYa:__ZN18DeferredRenderLoop13RenderGBufferEP13RenderTexturePS1_b8JobFencePK25DeferredRenderLoopScratchRi
D5k:_U3CU3Ec__DisplayClass50_0__ctor_m2897528665
b9i:__Z148RuntimeInvoker_Il2CppObject_Vector2U26_t3911752445_Vector2U26_t3911752445_Single_t2076509932_Int32_t2071877448_Single_t2076509932_Single_t2076509932PK10MethodInfoPvPS2_
k8i:__Z67RuntimeInvoker_Double_t4078015681_Playable_t3667545548_Il2CppObjectPK10MethodInfoPvPS2_
Cvf:_Collection_1_CheckWritable_m9604409_gshared
_Jb:__Z18Transfer_BlittableI17RemapPPtrTransferLb1E8BitFieldEvRK29SerializationCommandArgumentsR31RuntimeSerializationCommandInfo
Jnl:__ZL25UnresolvedVirtualCall_148P12Il2CppObjectS0_dPK10MethodInfo
oNl:__ZN6il2cpp6icalls8mscorlib6System9ThreadingL11ThreadStartEPv
T5l:__ZN6il2cpp2vm9LastError31InitializeLastErrorThreadStaticEv
GFa:__ZN9GfxDevice12DeleteBufferEP9GfxBuffer
HLf:_ReadOnlyCollection_1_System_Collections_IList_Remove_m3878418841_gshared
epj:__Z56RuntimeInvoker_Boolean_t3825574718_Nullable_1_t283458390PK10MethodInfoPvPS2_
Gwg:_InputField_EnforceContentType_m1902926812
RUa:__ZN14qsort_internal31_FindAndMovePivotToLastPositionIP15RODataDepthPassi17ROSorterDepthPassEEvT_S4_T0_T1_
njc:__Z97Register_UnityEngine_Experimental_Director_Playable_INTERNAL_CALL_SetInputWeightFromIndexInternalv
xca:__ZN12CachedReader10Align4ReadEv
ZEc:__ZN15b2WorldManifold10InitializeEPK10b2ManifoldRK11b2TransformfS5_f
yFf:_Collection_1_CopyTo_m42272870_gshared
a9i:__Z154RuntimeInvoker_RaycastHit2D_t4063908774_Vector2_t2243707579_Vector2_t2243707579_Single_t2076509932_Int32_t2071877448_Single_t2076509932_Single_t2076509932PK10MethodInfoPvPS2_
CQl:__ZN6il2cpp2vm9Exception28GetMarshalDirectiveExceptionEPKc
ARg:_MulticastDelegate_GetObjectData_m3187757658
gng:_CanvasScaler_set_referencePixelsPerUnit_m1188599784
pMf:_ReadOnlyCollection_1_System_Collections_IList_get_Item_m887129009_gshared
Egd:__ZN5physx2Sc14ConstraintCore13setBreakForceEff
N2:__Z26scripting_class_is_genericP11Il2CppClass
S_b:__ZNK28MonoBehaviourPropertyBinding12SetPPtrValueERKN11UnityEngine9Animation10BoundCurveEi
Vge:__ZN20TextRenderingPrivate8FontImpl8TransferI14SafeBinaryReadEEvRT_
tgj:__Z59RuntimeInvoker_Boolean_t3825574718_KeyValuePair_2_t38854645PK10MethodInfoPvPS2_
RTg:_U3CWaitForCompletionU3Ed__13_System_Collections_IEnumerator_get_Current_m1875371376
DFb:__ZN9Scripting35ErrorMessageForUnsupportedEnumFieldEP9FieldInfo
kBd:__ZN5physx7NpScene15removeAggregateERNS_11PxAggregateEb
Xtj:_GUIStyle_Draw_m4006459684
_Pk:_TweenSettingsExtensions_From_TisIl2CppObject_m55509018_gshared
n9f:_Decimal_System_IConvertible_ToType_m3828527724_AdjustorThunk
rua:__ZN9GfxDevice17ImmediateTexCoordEifff
fYg:_ColorPlugin_ConvertToStartValue_m339617241
fpe:_ft_black_new
tfm:__ZNSt3__28time_putIwNS_19ostreambuf_iteratorIwNS_11char_traitsIwEEEEED2Ev
KSg:_OperatingSystem_Clone_m1943707477
gpk:_Alternation_AddAlternative_m623421443
Tzh:_X509CertificateEnumerator_System_Collections_IEnumerator_Reset_m327358896
xoj:__Z36RuntimeInvoker_Enumerator_t402048720PK10MethodInfoPvPS2_
GKe:_Tweener_DoChangeValues_TisVector2_t2243707579_TisVector2_t2243707579_TisVectorOptions_t293385261_m1705072435_gshared
PUe:_Array_InternalArray__ICollection_CopyTo_TisKeyValuePair_2_t1174980068_m1818152223_gshared
G5e:_Hash__ctor_m2554411450
Y2e:_SHAConstants__cctor_m2781430679
A0g:_ShortcutExtensions_DOPixelRect_m1451235077
Kbb:__ZN17FileSystemHandler4CopyER13FileEntryDataS1_
U4k:_U3CU3Ec__DisplayClass39_0_U3CDOResizeU3Eb__1_m1377407424
aNl:__ZN15dense_hashtableINSt3__24pairIK10KeyWrapperINS1_IP11Il2CppClassjEEES4_EES6_N6il2cpp8metadata14ArrayClassHashEN14dense_hash_mapIS6_S4_SB_NSA_17ArrayClassCompareENS0_9allocatorIS8_EEE9SelectKeyESD_SF_E12maybe_shrinkEv
F7e:_Single_System_IConvertible_ToDateTime_m2510003459_AdjustorThunk
dbg:_Delegate_RemoveImpl_m3666700529
rdj:__Z138RuntimeInvoker_Void_t1841601450_PathOptions_t2659884781_Il2CppObject_Il2CppObject_Single_t2076509932_Vector3_t2243707580_Int32_t2071877448PK10MethodInfoPvPS2_
orm:_emscripten_glUniform4f__wrapper
Cth:_NameObjectCollectionBase_OnDeserialization_m3478980442
cvg:_Image_get_mainTexture_m1027716278
swg:_InputField_set_caretColor_m2252440840
D_d:__ZN5physx6shdfnd5ArrayINS_25PxcThresholdStreamElementENS0_19ReflectionAllocatorIS2_EEE8recreateEj
HD:__ZN8Animator8TransferI19StreamedBinaryWriteILb0EEEEvRT_
CQa:__ZNK6Camera16GetProjectionFarEv
X$a:__Z24InverseTransformRotationRK23TransformAccessReadOnlyRKN4math7_float4E
fM:__ZN11AudioSource6UpdateEv
LRe:_Array_InternalArray__IndexOf_TisSlot_t2267560602_m1912863273_gshared
nal:_StateMachineBehaviour_OnStateExit_m1490844990
eua:__ZN9GfxDevice21ResetDynamicResourcesEv
H5l:__ZN6il2cpp2os9FastMutex4LockEv
Wmd:__ZN5physx7NpCloth21setCollisionMassScaleEf
RXd:__ZN5physx6shdfnd5ArrayINS_7PxPlaneENS0_19ReflectionAllocatorIS2_EEE8recreateEj
$Of:_Comparison_1_EndInvoke_m4174686984_gshared
Kpi:_StreamingContext__ctor_m3063421596_AdjustorThunk
Ffe:__ZN13PhysicsModule17GetRigidBodyStateERK9RigidbodyPN8IPhysics14RigidBodyStateE
$Fe:__ZN20UnityConnectSettings23VirtualRedirectTransferER18StreamedBinaryReadILb1EE
W2k:_UnityAction_1_Invoke_m2563206587_gshared
uLf:_ReadOnlyCollection_1_System_Collections_Generic_IListU3CTU3E_Insert_m3054305464_gshared
qFh:__ZL70IntPtr_t_CustomAttributesCacheGenerator_IntPtr_op_Explicit_m3896766622P21CustomAttributesCache
vD:__ZN8Animator8TransferI14SafeBinaryReadEEvRT_
ndb:__ZN17GlobalGameManager23VirtualRedirectTransferER18StreamedBinaryReadILb0EE
aSe:_Array_InternalArray__IndexOf_TisTypeTag_t141209596_m2882894956_gshared
pXj:_Slider_get_value_m4182660424
czc:__ZNK14b2CapsuleShape5CloneEP16b2BlockAllocator
Yv:__ZN17AnimationPlayable34CollectAnimatorControllerPlayablesER13dynamic_arrayIP26AnimatorControllerPlayableLj4EE
eP:__ZN16BaseVideoTexture19UpdateVideoTexturesEv
$8i:__Z79RuntimeInvoker_RaycastHit2D_t4063908774_Vector2_t2243707579_Vector2_t2243707579PK10MethodInfoPvPS2_
wna:__ZNK16LightmapSettings23HasLightProbeTetrahedraEv
Fmh:_Context_get_WriteSequenceNumber_m243492531
gsb:__ZN6Sprite23VirtualRedirectTransferER19StreamedBinaryWriteILb0EE
cLh:__ZL51Assembly_t4268412390_CustomAttributesCacheGeneratorP21CustomAttributesCache
J9e:_String_LastIndexOfAny_m1473637802
Alc:__Z38Transform_CUSTOM_INTERNAL_set_positionP12Il2CppObjectRK8Vector3f
Byj:_Mesh_get_canAccess_m2763498171
Y7j:_Version_CompareTo_m596235198
Slf:_List_1_System_Collections_ICollection_CopyTo_m3062449209_gshared
Oea:__ZNK9ShaderLab7Program19HasMatchingVariantsERK13dynamic_arrayI16ShaderKeywordSetLj4EE
ZB:__ZN15SerializeTraitsIN4math4trsXEE8TransferI8BlobSizeEEvRS1_RT_
Tf:_emscripten_glVertexPointer
PGa:__ZNSt3__26__treeI20DeviceDepthStateGLES11memcmp_lessIS1_S1_ENS_9allocatorIS1_EEE7destroyEPNS_11__tree_nodeIS1_PvEE
isg:_Graphic__ctor_m821539719
bkf:_List_1_System_Collections_Generic_ICollectionU3CTU3E_get_IsReadOnly_m1614481629_gshared
gzl:__ZN6il2cpp2vm7Runtime47RaiseExecutionEngineExceptionIfMethodIsNotFoundEPK10MethodInfo
_Xa:__Z17GetFrustumPortionPK8Vector3fffPS_
C0c:__ZNK5physx2Gu22SupportMapRelativeImplINS0_4BoxVEE18doWarmStartSupportEiRNS_6shdfnd3aos5Vec3VE
O6k:_U3CU3Ec__DisplayClass69_0__ctor_m121185203
o7j:_UnauthorizedAccessException__ctor_m259001183
D1e:__ZN18VirtActionInvoker1IP30AsymmetricAlgorithm_t784058677E6InvokeEjPvS1_
Thb:__ZN5Light13AwakeFromLoadE17AwakeFromLoadMode
Xbl:_TouchScreenKeyboard_set_text_m3456054179
$pg:_DefaultControls_CreateDropdown_m1384069408
Sql:__ZNK15dense_hashtableINSt3__24pairIK10KeyWrapperIPK22Il2CppGenericParameterEP11Il2CppClassEES6_N6il2cpp5utils11PointerHashIS4_EEN14dense_hash_mapIS6_S9_SE_NS0_8equal_toIS6_EENS0_9allocatorISA_EEE9SelectKeyESH_SJ_E5beginEv
xjm:__ZNSt3__26locale5__imp11make_globalEv
Ojg:_PointerEventData_get_clickCount_m4064532478
nJf:_ReadOnlyCollection_1_System_Collections_Generic_ICollectionU3CTU3E_get_IsReadOnly_m3508872969_gshared
Dla:__ZNK10GameObject38MarkGameObjectAndComponentDependenciesER27GarbageCollectorThreadState
Gjb:__ZN14DirectorPlayerD0Ev
uSg:_NumberFormatter_NumberToString_m3855209845
Xfl:_UnityEvent_1_GetDelegate_m4062537313_gshared
Eyi:_TweenerCore_3_UpdateDelay_m3599180177_gshared
Hxj:_Material_GetFloat_m562289878
Beg:_CCGregorianCalendar_is_leap_year_m567513478
tDl:__ZNK19ReflectionMapEqualsINSt3__24pairIPK14Il2CppAssemblyP11Il2CppClassEEEclERK10KeyWrapperIS7_ESC_
qxh:_Oid_get_Value_m2271181078
bSf:_Attribute_IsDefined_m2118467641
wig:_ExecuteEvents_Execute_m898902863
QCi:_InternalEnumerator_1_System_Collections_IEnumerator_get_Current_m3125080595_gshared
$Cf:_Collection_1_System_Collections_IList_Add_m2091889616_gshared
s5b:__ZN16StreamedResource8TransferI24GenerateTypeTreeTransferEEvRT_
DAc:__ZN11b2GearJoint4DumpEv
Arg:_DropdownItem_OnPointerEnter_m761897861
jBb:__ZN19StreamedBinaryWriteILb0EE8TransferINSt3__24pairI8UnityStr4PPtrI6ObjectEEEEEvRT_PKc17TransferMetaFlags
lWc:__ZN5physx3Cct10Controller13onOriginShiftERKNS_6PxVec3E
ODa:__ZN10Matrix3x3f15InvertTransposeEv
rNe:_Array_InternalArray__ICollection_Remove_TisKeyValuePair_2_t1174980068_m2768765894_gshared
OOe:_Enumerable_Where_TisIl2CppObject_m4266917885_gshared
Dtc:__ZN6HelperI8JSONRead23TransferArrayField_InfoE24SerializationFunctionForERKS1_R23StaticTransferFieldInfoPb
IMa:__Z11IsBatchmodev
FFl:__ZNK15dense_hashtableINSt3__24pairIK10KeyWrapperINS1_IPK10MethodInfoP11Il2CppClassEEEjEES9_17ReflectionMapHashIS8_EN14dense_hash_mapIS9_jSD_19ReflectionMapEqualsIS8_ENS0_9allocatorISB_EEE9SelectKeyESG_SI_E10test_emptyERK24dense_hashtable_iteratorISB_S9_SD_SK_SG_SI_E
ZTk:_PKCS12_CertificateSafeBag_m3272197807
Vzf:_Collection_1_set_Item_m2199807215_gshared
lNd:__ZN5physx2Gu19_gjkRelativeRayCastINS0_9TriangleVENS0_11ConvexHullVEEEbRT_RT0_RKNS_6shdfnd3aos15PsMatTransformVERKNS9_6FloatVERKNS9_5Vec3VESI_RSD_RSG_SK_f
AIb:__Z29Transfer_Blittable_ArrayFieldI14SafeBinaryRead8Vector3fEvRT_R9ArrayInfoRK23StaticTransferFieldInfo
b5j:_UInt32_System_IConvertible_ToBoolean_m91295134
pp:FUNCTION_TABLE_vfii
E$j:_Monitor_Monitor_test_synchronised_m1542589500
S2h:__ZL68RuntimePlatform_t1869584967_CustomAttributesCacheGenerator_WP8PlayerP21CustomAttributesCache
Yhe:__ZN20TextRenderingPrivate8FontImpl18ResetCachedTextureEv
LEh:__ZL75String_t_CustomAttributesCacheGenerator_String_Concat_m626692867____values0P21CustomAttributesCache
_Zh:__ZL98GameObject_t1756533147_CustomAttributesCacheGenerator_GameObject_SendMessage_m71956653____options2P21CustomAttributesCache
Iah:_SymmetricTransform_TransformFinalBlock_m4192185386
hDg:_TextInfo__ctor_m1263401274
ySd:__ZNK5physx19ActorAABBUpdateTask7getNameEv
Thj:__Z94RuntimeInvoker_Il2CppObject_Il2CppObject_Color2_t232726623_Single_t2076509932_SByte_t454417549PK10MethodInfoPvPS2_
thl:_ListPool_1_Release_m3047738410_gshared
Vbl:_TouchScreenKeyboard_Open_m913506328
Y$l:_GC_print_finalization_stats
tmh:_Context_get_SecurityProtocolFlags_m3295551796
ulk:_ValueCollection__ctor_m927733289_gshared
sgl:_UnityEvent_4_FindMethod_Impl_m4079512420_gshared
YBc:__ZNK12b2WheelJoint10GetAnchorBEv
Kak:_InternalEnumerator_1__ctor_m2981879621_AdjustorThunk
xcc:__Z53Register_UnityEngine_Behaviour_get_isActiveAndEnabledv
hZh:__ZL87Component_t3819376471_CustomAttributesCacheGenerator_Component_GetComponent_m4225719715P21CustomAttributesCache
xEb:__ZNK13MonoBehaviour26GetTypeInfoVirtualInternalEv
QNj:_EqualityComparer_1__ctor_m3971803374_gshared
ueb:__ZNSt3__26vectorIN4core12basic_stringIcNS1_20StringStorageDefaultIcEEEENS_9allocatorIS5_EEE8__appendEj
bgm:__ZNKSt3__210moneypunctIwLb0EE13do_pos_formatEv
NBl:_il2cpp_gc_collect
jAb:__ZN26PlayerSettingsSplashScreen8TransferI17RemapPPtrTransferEEvRT_
Ghe:__ZN20TextRenderingPrivate8FontImpl8TransferI17RemapPPtrTransferEEvRT_
B8j:_InternalEnumerator_1_get_Current_m3922357178_gshared
Qzl:__ZN6il2cpp6icalls8mscorlib6SystemL17CollectTypeFieldsINS_5utils10functional10TrueFilterEEEvP11Il2CppClassPKS7_iRNSt3__26vectorIP9FieldInfoNSB_9allocatorISE_EEEERKT_
qdi:__ZL72ColorBlock_t2652774230_CustomAttributesCacheGenerator_m_HighlightedColorP21CustomAttributesCache
c1c:__ZN5physx3Scb5Scene20addArticulationJointERNS0_17ArticulationJointE
svb:__ZN7SubMesh8TransferI18StreamedBinaryReadILb1EEEEvRT_
K2j:_Type_get_IsValueType_m1733572463
WBd:__ZN5physx7NpScene14resetFilteringERNS_12PxRigidActorEPKPNS_7PxShapeEj
Epb:__Z13GetTagManagerv
FDi:_InternalEnumerator_1_Dispose_m1748410190_AdjustorThunk
FZi:__Z127RuntimeInvoker_Void_t1841601450_IntPtr_t_Int32_t2071877448_SByte_t454417549_Int32_t2071877448_SByte_t454417549_SByte_t454417549PK10MethodInfoPvPS2_
TNe:_Array_InternalArray__ICollection_Remove_TisUInt16_t986882611_m65494986_gshared
cKj:_DefaultComparer__ctor_m418731767_gshared
GJf:_ReadOnlyCollection_1_IndexOf_m3054637117_gshared
DC:__ZN11UnityEngine9Animation37HasGenericRootTransformPropertyValuesERKNS0_30AnimatorGenericBindingConstantEb
qQ:__ZN11UnityEngine15CloudWebService17CloudJobSchedulerD0Ev
B8e:_String_System_IConvertible_ToBoolean_m2696751322
cma:__ZN18LoadSceneOperation7PerformEv
lhe:__ZNSt3__26vectorI8UnityStr13stl_allocatorIS1_L18MemLabelIdentifier34ELi16EEE8__appendEj
I8j:_InternalEnumerator_1__ctor_m3228997263_AdjustorThunk
Opj:_GUILayer_INTERNAL_CALL_HitTest_m693512502
rLc:__ZL30GeomMTDCallback_CapsuleCapsuleRN5physx6PxVec3ERfRKNS_10PxGeometryERKNS_11PxTransformES5_S8_
Ew:__ZN7mecanim9animation17DestroyClipOutputEPNS0_10ClipOutputERNS_6memory9AllocatorE
klg:__ZN16VirtFuncInvoker1IfP8String_tE6InvokeEjPvS1_
sG:__ZL16FMOD_ErrorString11FMOD_RESULT_464
Ywk:_Camera_get_pixelRect_m2084185953
ITc:__ZL18intersectAnyVsMeshILi0EEbPKN5physx2Gu6SphereEPKNS1_7CapsuleEPKNS1_3BoxERKNS1_13RTreeMidphaseERKNS0_11PxTransformERKNS0_11PxMeshScaleEP14LimitedResults
l1j:_TimeSpan__ctor_m1888018443_AdjustorThunk
D5:__ZL23AddConflictingClassIMPL11ClassIDTypeS_
P$f:_SyncHashtable_get_Count_m3694444082
U7c:__ZN5physx14NpArticulation6wakeUpEv
PKl:__ZNSt3__26vectorINS_12basic_stringIcNS_11char_traitsIcEENS_9allocatorIcEEEENS4_IS6_EEE8allocateEj
NIe:_DOTween_To_TisVector3_t2243707580_TisIl2CppObject_TisPathOptions_t2659884781_m2353724347_gshared
jbj:__Z131RuntimeInvoker_Void_t1841601450_Il2CppObject_AnimatorStateInfo_t2577870592_Int32_t2071877448_AnimatorControllerPlayable_t4078305555PK10MethodInfoPvPS2_
lFa:__ZN22VertexDeclarationCache5ClearEv
Axm:_emscripten_glUniform2i__wrapper
eBj:_Physics2D_CircleCastAll_m946205889
a4f:_Double_Parse_m2344589511
dPa:__ZN6Camera24PrepareCullingParametersERK23CameraCullingParameters13RenderingPathR11CullResults
G9i:__Z54RuntimeInvoker_Vector2_t2243707579_Vector2_t2243707579PK10MethodInfoPvPS2_
LWg:_DOTween_Shake_m1527020091
XQh:__ZL84Evidence_t1407710183_CustomAttributesCacheGenerator_Evidence_GetHashCode_m1260371757P21CustomAttributesCache
aTa:__ZN13MonoBehaviour30InvokeMethodOrCoroutineCheckedE21ScriptingMethodIl2CppP12Il2CppObjectPP15Il2CppException
xJf:_ReadOnlyCollection_1_System_Collections_ICollection_get_IsSynchronized_m2344337514_gshared
eJb:__Z26Transfer_UnityEngineObjectI17RemapPPtrTransferLb0EEvRK29SerializationCommandArgumentsR31RuntimeSerializationCommandInfo
Cbj:__Z68RuntimeInvoker_Color2_t232726623_Color2_t232726623_Color2_t232726623PK10MethodInfoPvPS2_
T9e:_String_IsNullOrEmpty_m2802126737
PUf:_Byte_Parse_m1442736478
Kva:__ZN13GfxDeviceGLES15OnDeviceCreatedEb
PGg:_Int64_Parse_m3258022240
E9e:_String_IndexOfOrdinal_m3591623977
j1a:__ZN10GameObject12SetHideFlagsEi
Nri:_CryptoConfig_EncodeLongNumber_m2352037787
q3j:_Type_GetMethod_m475234662
l8e:_Single_GetHashCode_m3102305584
vHf:_ReadOnlyCollection_1_get_Count_m2562379905_gshared
kJk:_ActivationServices_get_ConstructionActivator_m1726426854
_Lb:__Z29Transfer_Blittable_ArrayFieldI24GenerateTypeTreeTransfer4AABBEvRT_R9ArrayInfoRK23StaticTransferFieldInfo
xTh:__ZL76Convert_t2607082565_CustomAttributesCacheGenerator_Convert_ToChar_m245844937P21CustomAttributesCache
SSh:__ZL52Activator_t1850728717_CustomAttributesCacheGeneratorP21CustomAttributesCache
_0l:_GC_adj_bytes_allocd
bYj:_SpriteState_t1353336012_marshal_pinvoke_cleanup
vUe:_Array_InternalArray__ICollection_Add_TisKeyframe_t1449471340_m887263954_gshared
y4d:__ZN5physx20InternalTriangleMesh16allocateVerticesEj
odl:_UIVertex__cctor_m803910084
YVe:_Array_InternalArray__Insert_TisDateTime_t693205669_m1484996356_gshared
q7k:_U3CU3Ec__DisplayClass76_0_U3CDOBlendableColorU3Eb__0_m1181049533
Ylf:_List_1_System_Collections_IList_Remove_m3933652540_gshared
EKj:_DefaultComparer_GetHashCode_m926674183_gshared
FLg:_MonoIO_get_ConsoleInput_m2976499023
MNi:_OpCode_get_Size_m481593949_AdjustorThunk
lZf:_BitArrayEnumerator_checkVersion_m3839504595
rQf:_Array_GetUpperBound_m1352329707
gMa:__ZZ23InitPlayerLoopCallbacksvEN36UpdateScriptRunBehaviourUpdatestruct7ForwardEv
GQd:__ZN5physx6shdfnd5ArrayINS_17PxcBroadPhasePairENS0_19ReflectionAllocatorIS2_EEE8recreateEj
mPl:__ZN6il2cpp6icalls8mscorlib6System10Reflection10MonoMethod19get_base_definitionEP22Il2CppReflectionMethod
Va:invoke_fiiifii
V3i:__Z61RuntimeInvoker_Void_t1841601450_Byte_t3683104436_Il2CppObjectPK10MethodInfoPvPS2_
_kh:_RecordProtocol__ctor_m168945279
w8f:_DateTimeOffset_Equals_m3728302791_AdjustorThunk
URc:__ZThn4_N16RayRTreeCallbackILi1ELb0EED1Ev
qce:__ZN5physx7profile11EventBufferINS_24PxDefaultContextProviderENS_6shdfnd6MutexTINS0_26WrapperReflectionAllocatorIhEEEENS0_14ScopedLockImplIS7_EENS_24PxProfileNullEventFilterEE9sendEventINS0_10StartEventEEEvRNS0_11EventHeaderERT_
pvj:_GUIStyleState_t3801000545_marshal_pinvoke_back
LXa:__ZN20SphericalHarmonicsL219AddDirectionalLightERKN4math7_float3ERKNS0_7_float4E
ALe:_Tweener_DOStartupSpecials_TisUInt32_t2149682021_TisUInt32_t2149682021_TisUintOptions_t2267095136_m4231793679_gshared
i2j:_TimeSpan_op_GreaterThanOrEqual_m3997050520
oUh:__ZL77Convert_t2607082565_CustomAttributesCacheGenerator_Convert_ToUInt16_m36213644P21CustomAttributesCache
Pdj:__Z53RuntimeInvoker_Il2CppObject_StringOptions_t2885323933PK10MethodInfoPvPS2_
a_:__Z26ScheduleJobForEachInternalR8JobFencePFvPvjES1_iPFvS1_E11JobPriority
Bxh:_OidEnumerator_MoveNext_m1889267785
a9b:__ZN9Scripting18RaiseMonoExceptionEPKcz
X$h:__ZL76Physics_t634932869_CustomAttributesCacheGenerator_Physics_Raycast_m780162053P21CustomAttributesCache
pmb:__ZN9Texture2D8TransferI19StreamedBinaryWriteILb0EEEEvRT_
yDb:__ZN24RingBufferMemoryFileData6UnlockEPv
dsj:_GUISkin_set_box_m877476512
Drg:_OptionData__ctor_m3070653720
ihl:_TweenRunner_1_StartTween_m3792842064_gshared
_1b:__ZN9ShaderLab16FastPropertyName15InitBy28BitHashEj
N7e:_Single_System_IConvertible_ToInt32_m3269519527_AdjustorThunk
gsl:__ZN6il2cpp2vm5Class7GetNameEP11Il2CppClass
PRb:__ZN13MonoBehaviour18TransferEngineDataI18StreamedBinaryReadILb0EEEE4PPtrI10MonoScriptERT_
U1e:_SHA1Internal_ProcessBlock_m4070037334
v2l:__ZN6il2cpp6icalls8mscorlib6System10Reflection14MonoMethodInfo15get_method_infoE12Il2CppIntPtrP16Il2CppMethodInfo
tef:_UTF32Encoding_GetDecoder_m2714144074
Pki:_ObjRef_GetObjectData_m3081609242
JSd:__ZN5physx20updateBodyShapeAABBsEPKjjS1_PKNS_17PxcAABBDataStaticEPNS_11IntegerAABBEj
Iub:__ZN17PackedFloatVector12UnpackFloatsEPfiiii
DRh:__ZL113EncoderReplacementFallback_t4228544112_CustomAttributesCacheGenerator_EncoderReplacementFallback__ctor_m517300448P21CustomAttributesCache
VGf:_ReadOnlyCollection_1__ctor_m3671019970_gshared
mgf:_List_1_System_Collections_ICollection_get_IsSynchronized_m1555268017_gshared
sSk:_Mesh_GetAllocArrayFromChannel_TisColor32_t874517518_m2030100417_gshared
iva:__ZN13GfxDeviceGLES21DestroyComputeProgramER12ObjectHandleI18ComputeProgram_TagPvE
z3f:_Convert_ToDecimal_m2007036836
s6:__ZN17UniqueIDGenerator16DestroyPureIndexEj
TTb:__ZN14SafeBinaryRead21TransferSTLStyleArrayINSt3__26vectorIN9ShaderLab20SerializedSubProgram12UAVParameterENS1_9allocatorIS5_EEEEEEvRT_17TransferMetaFlags
qLk:_Context_NotifyDynamicSinks_m1367144344
kV:__ZNK13BaseAllocator10IsAssignedEv
JS:__ZN24TextDOMTransferWriteBaseI9JSONWriteE12PushMetaFlagEi
Ebh:__ZN16VirtFuncInvoker1I25DSAParameters_t1872138834bE6InvokeEjPvb
jzi:_TweenerCore_3_SetFrom_m2915691848_gshared
KGj:_Dictionary_2_TryGetValue_m3108198470_gshared
Bmd:__ZN5physx7NpCloth22removeCollisionCapsuleEj
$mh:_Context_get_Current_m2717045324
ETi:__Z45RuntimeInvoker_Int16_t4041245914_Il2CppObjectPK10MethodInfoPvPS2_
lrg:_Dropdown_DestroyItem_m234623804
elh:_TlsClientCertificateVerify__ctor_m110646389
pka:__ZN6prcoreL26RemapGenericIntegerToFloatI17TexFormatARGB888815TexFormatRFloatEEvPKNS_9InnerInfoE
TU:__ZN5Mutex6UnlockEv
Oyl:__ZN6il2cpp2vm10ThreadPool10InitializeEv
zLk:_Context_GetServerContextSinkChain_m390126977
V$k:_Nullable_1_get_HasValue_m452334108_AdjustorThunk
QFl:__ZNK15dense_hashtableINSt3__24pairIK10KeyWrapperINS1_IPK11Il2CppImageP11Il2CppClassEEEjEES9_17ReflectionMapHashIS8_EN14dense_hash_mapIS9_jSD_19ReflectionMapEqualsIS8_ENS0_9allocatorISB_EEE9SelectKeyESG_SI_E13find_positionERSA_
K_d:__ZN5physx18PxsSolverStartTask16articulationTaskEv
kZe:_Array_Sort_TisIl2CppObject_m143182644_gshared
qNg:_StringReader_Read_m513112775
Dob:__ZNK8Renderer8GetLayerEv
m2c:__ZN5physx6shdfnd4sortIPvNS0_4LessIS2_EENS0_19ReflectionAllocatorINS_2Cm5BlockIS2_Lj16EEEEEEEvPT_jRKT0_RKT1_j
kVc:__ZN5physx3Cct17CapsuleController18setNonWalkableModeENS_27PxControllerNonWalkableMode4EnumE
y2c:__ZN5physx2Sc11InteractionD2Ev
uxf:_Collection_1_Add_m2613548553_gshared
zy:__ZN7mecanim9animation22DestroyBlendTreeOutputEPNS0_15BlendTreeOutputERNS_6memory9AllocatorE
gYa:__ZNK6Camera20GetReplacementShaderEv
bgd:__ZN18MultiQueryCallbackIN5physx12PxRaycastHitEE6invokeERfPKNS0_2Sq13PrunerPayloadEj
g9f:_Decimal__ctor_m569480123_AdjustorThunk
Muh:_HttpWebRequest__cctor_m3013631978
dMc:__ZN5physx2Gu9ContainerC2Ev
aUb:__ZNSt3__26vectorIN9ShaderLab20SerializedSubProgram14ConstantBufferENS_9allocatorIS3_EEE7reserveEj
boa:__ZL23stbir__calculate_memoryP11stbir__info
Tmg:_Button_OnPointerClick_m2524861687
h8g:_KeyGeneratedEventHandler_EndInvoke_m1587195139
Dxd:__ZN5physx15NpActorTemplateINS_13PxRigidStaticEE13setActorFlagsENS_7PxFlagsINS_11PxActorFlag4EnumEtEE
eUj:_Scrollbar_FindSelectableOnRight_m3219495255
Rs:__ZN9Behaviour11FixedUpdateEv
oBb:__ZNK30RuntimeInitializeOnLoadManager26GetTypeInfoVirtualInternalEv
Gwe:__ZNSt3__227__insertion_sort_incompleteIRPFbPN2UI6CanvasES3_EPS3_EEbT0_S8_T_
ryc:__ZNK9rapidjson12GenericValueINS_4UTF8IcEE13JSONAllocatorE6AcceptINS_12PrettyWriterI16TempBufferWriterS2_S2_S3_EEEEbRT_
Vud:__ZN5physx19NpRigidBodyTemplateINS_14PxRigidDynamicEE11attachShapeERNS_7PxShapeE
Raj:__Z55RuntimeInvoker_AnalyticsResult_t3037633135_Il2CppObjectPK10MethodInfoPvPS2_
PQf:_Array_BinarySearch_m1368352453
HVe:_Array_InternalArray__ICollection_CopyTo_TisVector3_t2243707580_m509487340_gshared
Wtg:_GridLayoutGroup_get_constraint_m1351424857
l5k:_U3CU3Ec__DisplayClass45_0__ctor_m1346328561
Wtc:__ZL26Transfer_SimpleNativeClassI8JSONRead10RectOffsetLb1EEvRK29SerializationCommandArgumentsR31RuntimeSerializationCommandInfo
Sze:__Z44CanvasRenderer_CUSTOM_INTERNAL_CALL_SetColorP12Il2CppObjectRK10ColorRGBAf
bIi:_CustomAttributeData_GetCustomAttributes_m119332220
l7d:__ZN5physx2Gu27computeBoundsAroundVerticesERNS_9PxBounds3EjPKNS_6PxVec3E
yJk:_UrlAttribute_Equals_m1587451932
zY:__ZNSt3__26__treeINS_12basic_stringIcNS_11char_traitsIcEENS_9allocatorIcEEEENS_4lessIS6_EENS4_IS6_EEE12__find_equalIS6_EERPNS_16__tree_node_baseIPvEESG_RKT_
Wwc:__Z18Transfer_BlittableI9JSONWriteLb1EsEvRK29SerializationCommandArgumentsR31RuntimeSerializationCommandInfo
aBd:__ZNK5physx7NpScene9getLimitsEv
jDe:__Z48UnityAnalyticsHandler_CUSTOM_SendCustomEventNameP12Il2CppObjectP12Il2CppString
Psi:_DSAParameters_t1872138834_marshal_pinvoke_cleanup
Hda:__ZN6ObjectD2Ev
BLa:__ZZ23InitPlayerLoopCallbacksvEN44EarlyUpdateResetFrameStatsAfterPresentstruct7ForwardEv
HNd:__ZNK5physx2Gu29EPASupportMapPairRelativeImplINS0_9TriangleVENS0_8CapsuleVEE9doSupportERKNS_6shdfnd3aos5Vec3VERS7_SA_SA_
s2f:_DateTime_Parse_m1628430317
Esd:__ZNK5physx2Sc18ParticleSystemCore19getParticleReadDataERNS_23PxParticleFluidReadDataE
zRd:__ZN3MBP12updateObjectEjRK5IAABB
pwg:_InputField_get_placeholder_m1768315947
o5c:__ZN5physx6shdfnd5ArrayINS_6PxVec3ENS0_19ReflectionAllocatorIS2_EEE15growAndPushBackERKS2_
aoj:__Z37RuntimeInvoker_Enumerator_t2983962278PK10MethodInfoPvPS2_
lua:__ZN13GfxDeviceGLES22ReleaseThreadOwnershipEv
Ipk:__ZN23InterfaceActionInvoker3IP8String_tbbE6InvokeEjP11Il2CppClassPvS1_bb
KQl:__ZN6il2cpp2os19ReleaseSocketHandleEj
UQh:__ZL59ApplicationTrust_t3968282840_CustomAttributesCacheGeneratorP21CustomAttributesCache
eIh:__ZL128SafeHandleZeroOrMinusOneIsInvalid_t1177681199_CustomAttributesCacheGenerator_SafeHandleZeroOrMinusOneIsInvalid__ctor_m3340306667P21CustomAttributesCache
aOi:_TypeBuilder_GetPropertyImpl_m1854119335
uFb:__Z30GetOrCreateObjectStoredInFieldP9FieldInfoRK17GeneralMonoObjectb
_Ed:__ZN5physx2Sc5Scene20fireTriggerCallbacksEv
xJi:_TypeBuilder_get_next_table_index_m1415870184
Ilm:___cxa_can_catch
fgh:_SequentialSearchPrimeGeneratorBase_GenerateNewPrime_m296245934
VVf:_Char_GetUnicodeCategory_m4273361321
CEh:__ZL63String_t_CustomAttributesCacheGenerator_String_Split_m394273024P21CustomAttributesCache
TLe:_Tweener_Setup_TisUInt64_t2909196914_TisUInt64_t2909196914_TisNoOptions_t2508431845_m3328590235_gshared
iwl:__ZN15dense_hashtableINSt3__24pairIK10KeyWrapperIPK19Il2CppGenericMethodEPK26Il2CppGenericMethodIndicesEES6_N6il2cpp8metadata23Il2CppGenericMethodHashEN14dense_hash_mapIS6_SA_SE_NSD_26Il2CppGenericMethodCompareENS0_9allocatorISB_EEE9SelectKeyESG_SI_E12maybe_shrinkEv
Qwe:__ZN2UI11CanvasGroup23VirtualRedirectTransferER19StreamedBinaryWriteILb0EE
WMd:__ZN5physx2Gu18GJKRelativeRayCastERNS0_8CapsuleVERNS0_4BoxVERKNS_6shdfnd3aos15PsMatTransformVERKNS6_6FloatVERKNS6_5Vec3VESF_RSA_RSD_SH_fb
vgj:__Z68RuntimeInvoker_Boolean_t3825574718_Il2CppObject_ObjectU26_t597476745PK10MethodInfoPvPS2_
BO:__ZN10AudioMixer6UpdateEf
YBa:__ZNK13TranslateGLES23VertexArraySizeBitfieldEi
hLk:_Identity_get_ClientDynamicProperties_m767245959
gwi:_TweenerCore_3_ChangeEndValue_m3330381752_gshared
OCi:_InternalEnumerator_1__ctor_m675130983_AdjustorThunk
$_i:__Z95RuntimeInvoker_Void_t1841601450_SByte_t454417549_Il2CppObject_SByte_t454417549_SByte_t454417549PK10MethodInfoPvPS2_
HVl:__ZN6il2cpp2os5posix15PosixWaitObjectC2ENS2_4TypeE
UTa:__ZN6Camera21PostMultiCustomRenderENS_10RenderFlagEb
tEa:__ZN14DrawBufferGLESI11IndexBuffer26IndexBufferUsageMapperGLESED0Ev
C3c:__ZN5physx15PxsArticulationD2Ev
Dll:__ZL24UnresolvedVirtualCall_34P12Il2CppObjectS0_PK10MethodInfo
ytm:_emscripten_glVertexPointer__wrapper
Qqa:__ZN23ShaderVariantCollection13WarmupShadersEv
smh:_Context_set_ProtocolNegotiated_m1177527245
f5j:_UInt32_System_IConvertible_ToChar_m1056040486
cSk:_ScriptableObject_CreateInstance_TisIl2CppObject_m926060499_gshared
ish:_TlsStream_get_Length_m1562309511
Cma:__Z27scripting_gc_collect_unsafei
PO:__ZN11AudioModule20SuspendVideoTexturesEv
oZf:_CaseInsensitiveComparer__ctor_m1125492797
y1b:__ZN12CubemapArrayC2E18MemLabelIdentifier18ObjectCreationMode
Owd:__ZN5physx13NpRigidStaticC2ERKNS_11PxTransformE
Z1f:_Convert_ToByte_m395020137
BKb:__Z26Transfer_UnityEngineObjectI24GenerateTypeTreeTransferLb0EEvRK29SerializationCommandArgumentsR31RuntimeSerializationCommandInfo
DHc:__ZN10Collider2D16RecreateColliderEbP11Rigidbody2D
vse:_UNITY_FT_GlyphLoader_CheckPoints
Kpf:_List_1_System_Collections_ICollection_CopyTo_m1995866425_gshared
ACc:__ZN16b2PolygonContact7DestroyEP9b2ContactP16b2BlockAllocator
Kkm:___cxa_get_globals_fast
gNd:__ZN5physxL20PxcSweepBoxTrianglesERKNS_11PxsCCDShapeES2_RKNS_11PxTransformES5_S5_S5_fRNS_6PxVec3ES7_RNS_10PxcNpCacheERNS_18PxcNpThreadContextERKNS_2Cm23FastVertex2ShapeScalingERNS_2Gu9TriangleVEf
lOg:_TextWriter_WriteLine_m1754475888
BWc:__ZN5physx3Cct15ObstacleContextD0Ev
Fib:__ZN15SharedLightData7PrecalcEv
kna:__ZN10Matrix4x4fmLERKS_
W1k:_InvokableCall_1_Invoke_m769918017_gshared
kt:__ZN4PPtrI9TransformE8TransferI18StreamedBinaryReadILb0EEEEvRT_
$Qk:_Array_InternalArray__get_Item_TisDouble_t4078015681_m2215331088_gshared
bRh:__ZL57PrincipalPolicy_t289802916_CustomAttributesCacheGeneratorP21CustomAttributesCache
RBf:_Collection_1_ClearItems_m3446813399_gshared
y8:__ZN18AssetBundleManagerC2Ev
$2b:__ZN5Light16TransformChangedEv
dzi:_TweenerCore_3_ApplyTween_m1795781652_gshared
HKa:__ZN15ArchiveReadFileD0Ev
Bah:_SymmetricTransform_TransformBlock_m1524716432
t7:__ZN18ConcurrentFreeListI28FileTextureUploadInstructionE7CleanUpEv
lHl:__ZN15dense_hashtableINSt3__24pairIK10KeyWrapperINS1_IPK9EventInfoP11Il2CppClassEEEjEES9_17ReflectionMapHashIS8_EN14dense_hash_mapIS9_jSD_19ReflectionMapEqualsIS8_ENS0_9allocatorISB_EEE9SelectKeyESG_SI_E4swapERSL_
CQe:_Array_compare_TisColor32_t874517518_m3842009370_gshared
AEe:__ZN11UnityEngine15PlatformWrapper18GetOperatingSystemEv
oAa:__ZNSt3__26vectorIP14DataBufferGLESNS_9allocatorIS2_EEE21__push_back_slow_pathIKS2_EEvRT_
RFd:__ZN5physx3Scb9Aggregate9syncStateERNS0_5SceneE
yYh:__ZL61ExtensionAttribute_t1840441203_CustomAttributesCacheGeneratorP21CustomAttributesCache
BMf:_ReadOnlyCollection_1_System_Collections_Generic_ICollectionU3CTU3E_Remove_m974176789_gshared
Gag:_Delegate_return_type_match_m4278947849
gyg:_InputField_GenerateHightlight_m1346735465
Xzl:__ZN6il2cpp6icalls8mscorlib6System8MonoType19GetGenericArgumentsEP20Il2CppReflectionType
Udj:__Z225RuntimeInvoker_Void_t1841601450_VectorOptions_t293385261_Il2CppObject_SByte_t454417549_Il2CppObject_Il2CppObject_Single_t2076509932_Vector3_t2243707580_Vector3_t2243707580_Single_t2076509932_SByte_t454417549_Int32_t2071877448PK10MethodInfoPvPS2_
E2b:__ZN12LineRenderer21ReleaseGeometryJobMemEP25DynamicVBOGeometryJobData
tlm:__ZNSt8bad_castD0Ev
q1f:_GC_SuppressFinalize_m953228702
rse:_FT_MSB
_Ee:__ZNSt3__26__treeINS_12__value_typeI8UnityStr14CallbackArray2IRKS2_R8JSONReadEEENS_19__map_value_compareIS2_S9_NS_4lessIS2_EELb1EEE13stl_allocatorIS9_L18MemLabelIdentifier5ELi16EEE7destroyEPNS_11__tree_nodeIS9_PvEE
arh:_InternalAsyncResult_get_ProceedAfterHandshake_m552962842
p$g:_UintPlugin__ctor_m1851929470
w1i:__Z50RuntimeInvoker_SByte_t454417549_Double_t4078015681PK10MethodInfoPvPS2_
S1h:__ZL72GUISkin_t1436893342_CustomAttributesCacheGenerator_m_verticalSliderThumbP21CustomAttributesCache
i5l:__ZN6il2cpp6icalls8mscorlib4Mono8Security12Cryptography18KeyPairPersistence10_CanSecureEP12Il2CppString
z2g:_ShortcutExtensions_DOTogglePause_m968655382
wbd:__ZN5physx7NpActor17resolveReferencesERNS_24PxDeserializationContextE
Yfe:__ZN9Rigidbody15InitializeClassEv
ZVg:_PureQuaternionPlugin__ctor_m2869270851
RMi:_MethodBuilder_Invoke_m1874904900
NSe:_Tweener_DoUpdateDelay_TisInt32_t2071877448_TisInt32_t2071877448_TisNoOptions_t2508431845_m125283222_gshared
JVe:_Array_InternalArray__Insert_TisControlPoint_t168081159_m1402559514_gshared
R_g:_RectPlugin_SetChangeValue_m2964213558
Qek:_DefaultComparer__ctor_m3180706193_gshared
Frf:_List_1_System_Collections_Generic_IEnumerableU3CTU3E_GetEnumerator_m3625278020_gshared
$ra:__ZN13GfxDeviceGLES14SetRasterStateEPK17DeviceRasterState
x6k:_U3CU3Ec__DisplayClass65_0__ctor_m3924660207
oFb:__Z26scripting_field_get_offsetP9FieldInfo
IGb:__Z30TransferField_LinearCollectionI14SafeBinaryReadEvRK29SerializationCommandArgumentsR31RuntimeSerializationCommandInfo
MZc:__ZN5physx6shdfnd8internal8HashBaseINS0_4PairIKPKNS_2Sc8ShapeSimENS4_10NPhaseCore16ClothListElementEEES7_NS0_4HashIS7_EENS1_11HashMapBaseIS7_SA_SD_NS0_9AllocatorEE6GetKeyESF_Lb1EE5eraseERS8_
Ywg:_InputField_set_caretPositionInternal_m231166704
bFb:__Z23TransferScriptingObjectI14SafeBinaryReadEvRT_P12Il2CppObjectP11Il2CppClassPK15MonoScriptCache
rZc:__ZN5physx5Elems17setStaticAABBDataEjRKNS_17PxcAABBDataStaticE
Olh:_TlsServerHello__ctor_m3032108168
eca:__ZN14SafeBinaryRead11EndTransferEv
bIl:__ZN14dense_hash_mapI10KeyWrapperIPK10Il2CppTypeEjN6il2cpp8metadata14Il2CppTypeHashENS6_17Il2CppTypeCompareENSt3__29allocatorINS9_4pairIKS4_jEEEEEC2EjRKS7_RKS8_
HKh:__ZL98ILGenerator_t99948092_CustomAttributesCacheGenerator_ILGenerator_Mono_GetCurrentOffset_m3553856682P21CustomAttributesCache
MUc:__ZN5physx11PxHitBufferINS_12PxRaycastHitEE14processTouchesEPKS1_j
KU:__ZNK3WWW12GetAudioClipEv
wGb:__ZN14SafeBinaryRead8TransferI8MonoPPtrEEvRT_PKc17TransferMetaFlags
NIj:_Dictionary_2_System_Collections_Generic_ICollectionU3CSystem_Collections_Generic_KeyValuePairU3CTKeyU2CTValueU3EU3E_Remove_m1705959559_gshared
Ock:_InternalEnumerator_1_System_Collections_IEnumerator_get_Current_m1533037706_gshared
wDa:__ZN21UniformBufferTFMethod13MapBoneBufferEj
Mph:_RecordProtocol_SendChangeCipherSpec_m3542001341
rFl:__ZN15dense_hashtableINSt3__24pairIK10KeyWrapperINS1_IPK10MethodInfoP11Il2CppClassEEEjEES9_17ReflectionMapHashIS8_EN14dense_hash_mapIS9_jSD_19ReflectionMapEqualsIS8_ENS0_9allocatorISB_EEE9SelectKeyESG_SI_E4swapERSL_
zQb:__ZN8GUIStyle8TransferI18StreamedBinaryReadILb1EEEEvRT_
OXe:_Array_InternalArray__set_Item_TisVector3_t2243707580_m1390667454_gshared
Hnc:__ZN12GUIClipState10BeginOnGUIER10InputEvent
NNl:__ZNSt3__26vectorIcNS_9allocatorIcEEEC2Ej
wgc:__Z40Register_UnityEngine_Input_GetKeyDownIntv
w8g:_KeyPairPersistence_CanSecure_m2251009700
HLa:__ZZ23InitPlayerLoopCallbacksvEN27FixedUpdateClearLinesstruct7ForwardEv
Pub:__ZN10VertexData6ResizeEjjjRK19VertexStreamsLayoutRK20VertexChannelsLayout
L4b:__ZN14DirectorPlayer8TransferI14SafeBinaryReadEEvRT_
Jji:_ReturnMessage_get_Properties_m531965085
CLi:_GenericTypeParameterBuilder_IsSubclassOf_m563999142
L3:__ZN14SerializedFileD2Ev
Die:__ZNSt3__26vectorIN20TextRenderingPrivate8FontImpl7IntRectE13stl_allocatorIS3_L18MemLabelIdentifier34ELi16EEE21__push_back_slow_pathIKS3_EEvRT_
b_:__Z21CompleteFenceInternalR8JobFence
ipc:__Z30Event_Get_Custom_PropModifiersP12Il2CppObject
z3c:__ZN5physx6shdfnd5ArrayIPvNS0_16AlignedAllocatorILj64ENS0_9AllocatorEEEE15growAndPushBackERKS2_
dJj:_Dictionary_2_ContainsValue_m2375979648_gshared
mw:__ZN7mecanim9animation16CreateClipOutputEPKNS0_4ClipERNS_6memory9AllocatorE
ZVe:_Array_InternalArray__Insert_TisDecimal_t724701077_m1429254816_gshared
Ehl:_ListPool_1_Get_m2998644518_gshared
jPb:__ZN18StreamedBinaryReadILb0EE21TransferSTLStyleArrayI13dynamic_arrayIyLj8EEEEvRT_17TransferMetaFlags
H0i:__Z76RuntimeInvoker_IntPtr_t_SByte_t454417549_Il2CppObject_BooleanU26_t3168250738PK10MethodInfoPvPS2_
gDl:__ZN6il2cpp2vm10Reflection17GetAssemblyObjectEPK14Il2CppAssembly
qza:__ZN18AsyncUploadManager17DoScaledPaddedJobEP28FileTextureUploadInstruction
QVc:__ZN5physx3Cct12SweptCapsuleC2Ev
iye:__ZN2UIL31GenerateRenderableUIInstructionEPNS_28PreprocessUIInstructionsDataEj
XSb:__ZN6Shader21AwakeFromLoadThreadedEv
F_e:__ZN16VirtFuncInvoker0IiE6InvokeEjPv
Ygm:__ZNSt3__28messagesIwED0Ev
qja:__ZN6prcoreL17RemapGenericFloatI17TexFormatRGBFloat17TexFormatRGBAHalfEEvPKNS_9InnerInfoE
Qei:__ZL70InputField_t1631627530_CustomAttributesCacheGenerator_m_CharacterLimitP21CustomAttributesCache
usf:_List_1_get_Capacity_m2443158653_gshared
KUg:_U3CU3Ec_U3CToEaseFunctionU3Eb__4_2_m3849412322
Zuc:__ZN8JSONRead21TransferSTLStyleArrayI13dynamic_arrayI8Vector2fLj4EEEEvRT_18MemLabelIdentifier17TransferMetaFlags
Xde:__ZN5physx24PxcContactBoxHeightFieldERKNS_2Gu13GeometryUnionES3_RKNS_11PxTransformES6_RKfRNS_10PxcNpCacheERNS0_13ContactBufferE
g6l:__ZN6il2cpp2os9SemaphoreC2Eii
MCi:_InternalEnumerator_1_get_Current_m2960188445_AdjustorThunk
FIb:__ZNSt3__26vectorI8MonoPPtr13stl_allocatorIS1_L18MemLabelIdentifier1ELi16EEE8__appendEj
zYj:_Text_set_alignByGeometry_m1514652028
YZi:__Z92RuntimeInvoker_Void_t1841601450_Il2CppObject_Il2CppObject_SByte_t454417549_Int32_t2071877448PK10MethodInfoPvPS2_
HDa:__ZN15UniformTFMethod20IsBoneCountSupportedEi
pSd:__ZNK5physx23AggregateAABBUpdateTask7getNameEv
CXa:__ZN14qsort_internal31_FindAndMovePivotToLastPositionIP21ForwardRenderPassDataiN23ForwardShaderRenderLoop18RenderObjectSorterILb1EEEEEvT_S6_T0_T1_
_3e:_X509Certificate_GetExpirationDateString_m2351894475
cDj:_Rect_Contains_m1334685291_AdjustorThunk
bKg:_FileStream_get_Position_m465478322
wom:dynCall_viidi
bWe:_Array_InternalArray__Insert_TisInt64_t909078037_m3039874636_gshared
epm:dynCall_vffff
cTf:_Convert_ToInt16_m1787678274
kZj:_ToggleGroup_NotifyToggleOn_m997426227
Wph:_RSASslSignatureDeformatter_SetKey_m1150106904
r1h:__ZL74Event_t3028476042_CustomAttributesCacheGenerator_Event_Cleanup_m1195902101P21CustomAttributesCache
K0:__ZN24ScriptingMethodFiltering17FilterOnSignatureENS_18MethodSearchFilterE
PIi:_TypeBuilder_get_Module_m1668298460
k2d:__ZN5physx13NpClothFabric16scaleRestlengthsEf
lW:__ZN18ScreenManagerWebGL13SetLockCursorE14CursorLockMode
Pre:_cf2_arrstack_finalize
NQg:_MonoType_GetMethodsByName_m1854415088
GJi:_DerivedType_GetMethods_m165266904
jrl:__ZN15dense_hashtableINSt3__24pairIK10KeyWrapperIPK22Il2CppGenericParameterEP11Il2CppClassEES6_N6il2cpp5utils11PointerHashIS4_EEN14dense_hash_mapIS6_S9_SE_NS0_8equal_toIS6_EENS0_9allocatorISA_EEE9SelectKeyESH_SJ_E15insert_noresizeERKSA_
fah:_RSAManaged_EncryptValue_m4089823119
T_g:_RectPlugin_EvaluateAndApply_m120801595
L_b:__ZN13MonoBehaviour19HandleNotificationsEPviR11MessageData
vyd:__ZN5physx6shdfnd5ArrayIPNS_2Sc17ParticleSystemSimENS0_19ReflectionAllocatorIS4_EEE8recreateEj
mOg:_TextWriter_WriteLine_m4183081714
TJj:_DefaultComparer_GetHashCode_m926363525_gshared
ytj:_GUIStyle_set_focused_m1547304893
Uwd:__ZNK5physx13NpRigidStatic7getTypeEv
dBj:_Physics2D_INTERNAL_CALL_RaycastAll_m2386382509
MOj:_GenericComparer_1__ctor_m1058302999_gshared
Yaj:__Z69RuntimeInvoker_Void_t1841601450_Int32_t2071877448_HitInfo_t1761367055PK10MethodInfoPvPS2_
Kda:__ZNK11NamedObject26GetTypeInfoVirtualInternalEv
SKg:_ReadDelegate_Invoke_m2091885836
owi:_TweenerCore_3_ApplyTween_m2587998509_gshared
SKi:_TypeBuilder_GetField_m2112455315
Lrm:b58
Mrm:b59
Ynf:_List_1_System_Collections_IList_get_IsFixedSize_m3412144440_gshared
Erm:b52
Frm:b53
Brm:b50
Sej:__Z51RuntimeInvoker_Vector4_t2243707581_SByte_t454417549PK10MethodInfoPvPS2_
kWd:__ZN5physx9PxTaskMgrD0Ev
Jrm:b57
Grm:b54
Hrm:b55
Y5g:_Kernel_Multiply_m3585610531
jjh:_CertificateSelectionCallback_EndInvoke_m3525317639
T$b:__ZN13TrailRenderer11TrailPointsD0Ev
LL:__ZN4PPtrI15AudioMixerGroupE8TransferI18StreamedBinaryReadILb0EEEEvRT_
yVi:__Z67RuntimeInvoker_Void_t1841601450_Int32_t2071877448_Int16_t4041245914PK10MethodInfoPvPS2_
UZi:__Z117RuntimeInvoker_Int32_t2071877448_IntPtr_t_Il2CppObject_Int32_t2071877448_Int32_t2071877448_MonoIOErrorU26_t1029615899PK10MethodInfoPvPS2_
eQc:__ZN5physx2Gu22closestPtPointTriangleEPNS_6shdfnd3aos5Vec3VES4_S4_PiS5_Rj
c6k:_U3CU3Ec__DisplayClass59_0__ctor_m3763074742
HRf:_SimpleEnumerator_Reset_m1341779532
YKl:__ZNSt3__214__split_bufferINS_12basic_stringIcNS_11char_traitsIcEENS_9allocatorIcEEEERNS4_IS6_EEEC2EjjS8_
u9g:_MACAlgorithm_Core_m2390605245
ybk:_InternalEnumerator_1_System_Collections_IEnumerator_get_Current_m30488070_gshared
MZb:__ZN10GameObject12CleanupClassEv
p8j:_InternalEnumerator_1_System_Collections_IEnumerator_Reset_m2624612805_AdjustorThunk
j6c:__ZN5physx3Scb5Scene13addRigidNoSimINS0_11RigidStaticELb0ELb1EEEvRT_RNS0_13ObjectTrackerE
Esa:__ZN9GfxDevice25SetShaderPropertiesSharedERK19ShaderPropertySheet
Cgl:_IndexedSet_1_GetEnumerator_m3646001838_gshared
Boa:__ZN18StreamedBinaryReadILb1EE20TransferTypelessDataEjPvi
JDb:__ZN10MonoScript17MainThreadCleanupEv
Ada:__ZN13RenderTexture9SetActiveEiP12ObjectHandleI17RenderSurface_TagP17RenderSurfaceBaseES4_PPS_i11CubemapFaceij
Eya:__ZN18AsyncUploadManager19AsyncResourceUploadER9GfxDeviceii9TextureID
jSj:_VertexHelper_AddUIVertexTriangleStream_m4009409241
Ffk:_Comparer_1__ctor_m844571340_gshared
y2b:__ZL25InitializeDefaultMaterialv
qAe:__Z53Register_UnityEngine_CanvasRenderer_get_materialCountv
Pfk:_Comparer_1__cctor_m581228891_gshared
N9h:__ZL121StringPluginExtensions_t3910942986_CustomAttributesCacheGenerator_StringPluginExtensions_AppendScrambledChars_m2999297406P21CustomAttributesCache
Flh:_TlsStream_Write_m2055734301
UIa:__ZN19FileAccessorHandlerD2Ev
wgk:_Comparer_1__ctor_m2941434245_gshared
OZj:_VertexHelper_AddVert_m3290455716
GQh:__ZL56SHA256Managed_t2029745292_CustomAttributesCacheGeneratorP21CustomAttributesCache
DKh:__ZL126GenericTypeParameterBuilder_t1370236603_CustomAttributesCacheGenerator_GenericTypeParameterBuilder_MakeGenericType_m2955814622P21CustomAttributesCache
j0h:__ZL95Physics_t634932869_CustomAttributesCacheGenerator_Physics_RaycastAll_m410413656____maxDistance1P21CustomAttributesCache
_Se:_Tweener_DoUpdateDelay_TisVector3_t2243707580_TisIl2CppObject_TisVector3ArrayOptions_t2672570171_m1372426701_gshared
cW:__ZN13ScreenManager17RequestResolutionEiibi
OTc:__ZN26IntersectAnyVsMeshCallbackILi0ELb1EED2Ev
XBl:_il2cpp_unity_liveness_calculation_from_statics
E0j:_Scheduler_get_Instance_m1989471839
Itg:_GraphicRaycaster_get_eventCamera_m4031517334
Fwh:_WebRequest_System_Runtime_Serialization_ISerializable_GetObjectData_m3377822910
ypb:__ZN8Renderer8TransferI17RemapPPtrTransferEEvRT_
tAf:_Collection_1_Contains_m1299140035_gshared
CSk:_ExecuteEvents_ExecuteHierarchy_TisIl2CppObject_m2541874163_gshared
AUe:_Array_InternalArray__ICollection_Add_TisUICharInfo_t3056636800_m968274080_gshared
Mhl:_ObjectPool_1__ctor_m1532275833_gshared
ZYe:_Array_Sort_TisChar_t3454481338_m2123467555_gshared
mml:__ZL24UnresolvedVirtualCall_71P12Il2CppObjectS0_S0_iS0_S0_S0_PK10MethodInfo
jFh:__ZL64IntPtr_t_CustomAttributesCacheGenerator_IntPtr__ctor_m3803259710P21CustomAttributesCache
hrf:_List_1_GetIndex_m3262928832_gshared
Jnd:__ZNK5physx2Sc9ClothCore16getCollisionDataEPNS_22PxClothCollisionSphereEPjPNS_21PxClothCollisionPlaneES4_PNS_24PxClothCollisionTriangleE
q0g:_U3CU3Ec__DisplayClass0_0__ctor_m2486159704
F$a:__Z24LookRotationToQuaternionRK8Vector3fS1_P11Quaternionf
D$a:__ZN16ReflectionProbes9GetCameraEv
Ord:__ZNK5physx2Sc18ParticleSystemCore20getMaxMotionDistanceEv
weh:_ArgumentException__ctor_m2105824819
Tye:__ZN2UI6Canvas17SetSortingLayerIDEi
Hmg:_BaseMeshEffect_get_graphic_m3358796463
FTl:__ZN6il2cpp2vm11MethodStack23CleanupForCurrentThreadEv
OXg:_EaseFactory_StopMotion_m2300428264
B0k:_Predicate_1_Invoke_m695569038_gshared
kjl:_Enumerator_VerifyState_m825848279_AdjustorThunk
uKf:_ReadOnlyCollection_1_System_Collections_ICollection_CopyTo_m3161309318_gshared
E8e:_String_System_IConvertible_ToDateTime_m1423627978
mjc:__Z83Register_UnityEngine_Experimental_Director_Playable_INTERNAL_CALL_GetOutputInternalv
hSd:__ZN5physx10BPWorkTaskD0Ev
oIb:__ZN14SafeBinaryRead21TransferSTLStyleArrayI13dynamic_arrayI4AABBLj4EEEEvRT_17TransferMetaFlags
Rga:__ZN18UnityPropertySheet8TransferI19StreamedBinaryWriteILb0EEEEvRT_
eoh:_TlsServerCertificate_checkServerIdentity_m3836435780
Dwc:__ZN9JSONWrite21TransferSTLStyleArrayI31ArrayOfManagedObjectsTransfererEEvRT_17TransferMetaFlags
ibh:_PKCS12_Decrypt_m2353135969
mDk:_PersistentCallGroup_Initialize_m3908067069
b9d:__ZN4PPtrI14PhysicMaterialE8TransferI18StreamedBinaryReadILb1EEEEvRT_
iQi:_MonoEvent_ToString_m386956596
O2h:__ZL70RuntimePlatform_t1869584967_CustomAttributesCacheGenerator_FlashPlayerP21CustomAttributesCache
Xjg:_PointerEventData_get_pointerPress_m880101744
kHd:__ZN5physx20NpRigidActorTemplateINS_13PxRigidStaticEE14resetFilteringERNS_3Scb11RigidObjectEPKPNS_7PxShapeEj
njk:_Transform_1_BeginInvoke_m1786442111_gshared
JEg:_Int32_GetFormatException_m1729046182
hwf:_Collection_1_get_Count_m3834276648_gshared
eMl:__ZN15dense_hashtableINSt3__24pairIK10KeyWrapperIP11Il2CppClassES4_EES5_N6il2cpp8metadata16SZArrayClassHashEN14dense_hash_mapIS5_S4_SA_NS9_19SZArrayClassCompareENS0_9allocatorIS7_EEE9SelectKeyESC_SE_EC2ERKSH_j
_7a:__ZN21UnityDefaultAllocatorI17LowLevelAllocatorE10DeallocateEPv
IY:__GLOBAL__sub_I_runtime_camera2_lump_cpp
rxl:__ZL14GetReducedTypePK10Il2CppType
pu:__ZN15PackedIntVector8TransferI14SafeBinaryReadEEvRT_
EOi:_FieldInfo_get_IsLiteral_m267898096
Rza:__ZN17SharedTextureDataD0Ev
B9c:__ZNK5physx19NpArticulationJoint20getTangentialDampingEv
hrh:_SslStreamBase_EndNegotiateHandshake_m1732321201
zjk:_Transform_1_BeginInvoke_m1167293475_gshared
KH:__ZN13AudioListener8DoUpdateEv
DKc:__ZN5physx3Cct10Controller22setUpDirectionInternalERKNS_6PxVec3E
iEh:__ZL71SByte_t454417549_CustomAttributesCacheGenerator_SByte_Parse_m1620039654P21CustomAttributesCache
U1f:__Z13bankers_roundd
nsb:__ZN14SafeBinaryRead8TransferI5RectTIfEEEvRT_PKc17TransferMetaFlags
Bn:_emscripten_glGenFramebuffers
__f:_Hashtable_CopyTo_m2778915805
Z7:__ZN17BaseObjectManager16StaticInitializeEPv
VIi:_ConstructorBuilder_get_IsCompilerContext_m2796899803
nZh:__ZL97Component_t3819376471_CustomAttributesCacheGenerator_Component_GetComponentsInChildren_m843288020P21CustomAttributesCache
Gtb:__ZN13TrailRenderer18TransferDeprecatedI14SafeBinaryReadEEvRT_
xnj:__Z37RuntimeInvoker_UICharInfo_t3056636800PK10MethodInfoPvPS2_
sRe:_Array_IndexOf_TisUIVertex_t1204258818_m613887160_gshared
oxk:_Camera_FireOnPostRender_m94860165
Cpg:_FloatTween_GetDuration_m1757342579_AdjustorThunk
t2f:_DateTime_CoreParse_m2014268103
Jof:_List_1__ctor_m3698273726_gshared
$ml:__ZL25UnresolvedVirtualCall_112P12Il2CppObjectiiaS0_PK10MethodInfo
tZg:_LongPlugin_GetSpeedBasedDuration_m2541162194
jgb:__ZN9Behaviour23VirtualRedirectTransferER17RemapPPtrTransfer
fCe:__ZN21UnityAnalyticsManager23VirtualRedirectTransferER19StreamedBinaryWriteILb0EE
Kvc:__Z18Transfer_BlittableI9JSONWriteLb0EyEvRK29SerializationCommandArgumentsR31RuntimeSerializationCommandInfo
z6j:_UInt64_Equals_m1243465002
FZk:_SingleGear0__ctor_m1703069260
Xkb:__ZN12CubemapArray23VirtualRedirectTransferER14SafeBinaryRead
vod:__ZNK5physx2Sc9ClothCore23getNbCollisionTrianglesEv
Pri:_CryptographicException__ctor_m1012314467
Fkd:__ZN5physx7NpShape16setFlagsInternalENS_7PxFlagsINS_11PxShapeFlag4EnumEhEE
IMf:_ReadOnlyCollection_1_System_Collections_IList_Add_m616574295_gshared
KEg:_Int32_ProcessTrailingWhitespace_m2812079777
Kma:__ZN18ProceduralMaterial9ReloadAllEbb
Gjc:__Z43RectTransform_CUSTOM_INTERNAL_set_sizeDeltaP12Il2CppObjectRK13Vector2fIcall
KSc:__ZN5physx2Gu30distanceSegmentTriangleSquaredERKNS_6shdfnd3aos5Vec3VES5_S5_S5_S5_RS3_S6_
twh:_WebProxy__ctor_m3679722173
dFi:_InternalEnumerator_1_Dispose_m2743309309_AdjustorThunk
Lca:__ZN24GenerateTypeTreeTransfer18BeginArrayTransferEPKcS1_Ri17TransferMetaFlags
wca:__ZN15TextureSettings8TransferI18StreamedBinaryReadILb1EEEEvRT_
Lya:__Z16DecompressCrunchPKhRjR13TextureFormatiiii18MemLabelIdentifier
ogm:__ZNSt3__29money_getIcNS_19istreambuf_iteratorIcNS_11char_traitsIcEEEEED2Ev
xtf:_List_1__ctor_m2082969060_gshared
Yn:___syscall51
ao:___syscall54
